

Microchip MPLAB XC8 Assembler V2.31 build 20201012212115 
                                                                                               Sun Sep 05 20:49:09 2021

Microchip MPLAB XC8 C Compiler v2.31 (Free license) build 20201012212115 Og1 
     1                           	processor	16F887
     2                           	pagewidth 120
     3                           	opt	flic
     4                           	psect	cinit,global,class=CODE,merge=1,delta=2
     5                           	psect	bssCOMMON,global,class=COMMON,space=1,delta=1,noexec
     6                           	psect	bssBANK0,global,class=BANK0,space=1,delta=1,noexec
     7                           	psect	cstackCOMMON,global,class=COMMON,space=1,delta=1,noexec
     8                           	psect	cstackBANK0,global,class=BANK0,space=1,delta=1,noexec
     9                           	psect	maintext,global,class=CODE,split=1,delta=2
    10                           	psect	text1,local,class=CODE,merge=1,delta=2
    11                           	psect	text2,local,class=CODE,merge=1,delta=2
    12                           	psect	text3,local,class=CODE,merge=1,delta=2
    13                           	psect	text4,local,class=CODE,merge=1,delta=2,group=1
    14                           	psect	text5,local,class=CODE,merge=1,delta=2,group=1
    15                           	psect	text6,local,class=CODE,merge=1,delta=2,group=1
    16                           	psect	text7,local,class=CODE,merge=1,delta=2
    17                           	psect	intentry,global,class=CODE,delta=2
    18                           	psect	config,global,abs,ovrld,class=CONFIG,space=4,delta=2,noexec
    19                           	dabs	1,0x7E,2
    20  0000                     
    21                           ; Version 2.20
    22                           ; Generated 12/02/2020 GMT
    23                           ; 
    24                           ; Copyright © 2020, Microchip Technology Inc. and its subsidiaries ("Microchip")
    25                           ; All rights reserved.
    26                           ; 
    27                           ; This software is developed by Microchip Technology Inc. and its subsidiaries ("Microch
      +                          ip").
    28                           ; 
    29                           ; Redistribution and use in source and binary forms, with or without modification, are
    30                           ; permitted provided that the following conditions are met:
    31                           ; 
    32                           ;     1. Redistributions of source code must retain the above copyright notice, this lis
      +                          t of
    33                           ;        conditions and the following disclaimer.
    34                           ; 
    35                           ;     2. Redistributions in binary form must reproduce the above copyright notice, this 
      +                          list
    36                           ;        of conditions and the following disclaimer in the documentation and/or other
    37                           ;        materials provided with the distribution.
    38                           ; 
    39                           ;     3. Microchip's name may not be used to endorse or promote products derived from th
      +                          is
    40                           ;        software without specific prior written permission.
    41                           ; 
    42                           ; THIS SOFTWARE IS PROVIDED BY MICROCHIP "AS IS" AND ANY EXPRESS OR IMPLIED WARRANTIES,
    43                           ; INCLUDING, BUT NOT LIMITED TO, THE IMPLIED WARRANTIES OF MERCHANTABILITY AND FITNESS F
      +                          OR
    44                           ; PURPOSE ARE DISCLAIMED.  IN NO EVENT SHALL MICROCHIP BE LIABLE FOR ANY DIRECT, INDIREC
      +                          T,
    45                           ; INCIDENTAL, SPECIAL, EXEMPLARY, OR CONSEQUENTIAL DAMAGES (INCLUDING BUT NOT LIMITED TO
    46                           ; PROCUREMENT OF SUBSTITUTE GOODS OR SERVICES; LOSS OF USE, DATA OR PROFITS; OR BUSINESS
    47                           ; INTERRUPTION) HOWSOEVER CAUSED AND ON ANY THEORY OF LIABILITY, WHETHER IN CONTRACT, ST
      +                          RICT
    48                           ; LIABILITY, OR TORT (INCLUDING NEGLIGENCE OR OTHERWISE) ARISING IN ANY WAY OUT OF THE U
      +                          SE OF
    49                           ; THIS SOFTWARE, EVEN IF ADVISED OF THE POSSIBILITY OF SUCH DAMAGE.
    50                           ; 
    51                           ; 
    52                           ; Code-generator required, PIC16F887 Definitions
    53                           ; 
    54                           ; SFR Addresses
    55  0000                     	;# 
    56  0001                     	;# 
    57  0002                     	;# 
    58  0003                     	;# 
    59  0004                     	;# 
    60  0005                     	;# 
    61  0006                     	;# 
    62  0007                     	;# 
    63  0008                     	;# 
    64  0009                     	;# 
    65  000A                     	;# 
    66  000B                     	;# 
    67  000C                     	;# 
    68  000D                     	;# 
    69  000E                     	;# 
    70  000E                     	;# 
    71  000F                     	;# 
    72  0010                     	;# 
    73  0011                     	;# 
    74  0012                     	;# 
    75  0013                     	;# 
    76  0014                     	;# 
    77  0015                     	;# 
    78  0015                     	;# 
    79  0016                     	;# 
    80  0017                     	;# 
    81  0018                     	;# 
    82  0019                     	;# 
    83  001A                     	;# 
    84  001B                     	;# 
    85  001B                     	;# 
    86  001C                     	;# 
    87  001D                     	;# 
    88  001E                     	;# 
    89  001F                     	;# 
    90  0081                     	;# 
    91  0085                     	;# 
    92  0086                     	;# 
    93  0087                     	;# 
    94  0088                     	;# 
    95  0089                     	;# 
    96  008C                     	;# 
    97  008D                     	;# 
    98  008E                     	;# 
    99  008F                     	;# 
   100  0090                     	;# 
   101  0091                     	;# 
   102  0092                     	;# 
   103  0093                     	;# 
   104  0093                     	;# 
   105  0093                     	;# 
   106  0094                     	;# 
   107  0095                     	;# 
   108  0096                     	;# 
   109  0097                     	;# 
   110  0098                     	;# 
   111  0099                     	;# 
   112  009A                     	;# 
   113  009B                     	;# 
   114  009C                     	;# 
   115  009D                     	;# 
   116  009E                     	;# 
   117  009F                     	;# 
   118  0105                     	;# 
   119  0107                     	;# 
   120  0108                     	;# 
   121  0109                     	;# 
   122  010C                     	;# 
   123  010C                     	;# 
   124  010D                     	;# 
   125  010E                     	;# 
   126  010F                     	;# 
   127  0185                     	;# 
   128  0187                     	;# 
   129  0188                     	;# 
   130  0189                     	;# 
   131  018C                     	;# 
   132  018D                     	;# 
   133  0000                     	;# 
   134  0001                     	;# 
   135  0002                     	;# 
   136  0003                     	;# 
   137  0004                     	;# 
   138  0005                     	;# 
   139  0006                     	;# 
   140  0007                     	;# 
   141  0008                     	;# 
   142  0009                     	;# 
   143  000A                     	;# 
   144  000B                     	;# 
   145  000C                     	;# 
   146  000D                     	;# 
   147  000E                     	;# 
   148  000E                     	;# 
   149  000F                     	;# 
   150  0010                     	;# 
   151  0011                     	;# 
   152  0012                     	;# 
   153  0013                     	;# 
   154  0014                     	;# 
   155  0015                     	;# 
   156  0015                     	;# 
   157  0016                     	;# 
   158  0017                     	;# 
   159  0018                     	;# 
   160  0019                     	;# 
   161  001A                     	;# 
   162  001B                     	;# 
   163  001B                     	;# 
   164  001C                     	;# 
   165  001D                     	;# 
   166  001E                     	;# 
   167  001F                     	;# 
   168  0081                     	;# 
   169  0085                     	;# 
   170  0086                     	;# 
   171  0087                     	;# 
   172  0088                     	;# 
   173  0089                     	;# 
   174  008C                     	;# 
   175  008D                     	;# 
   176  008E                     	;# 
   177  008F                     	;# 
   178  0090                     	;# 
   179  0091                     	;# 
   180  0092                     	;# 
   181  0093                     	;# 
   182  0093                     	;# 
   183  0093                     	;# 
   184  0094                     	;# 
   185  0095                     	;# 
   186  0096                     	;# 
   187  0097                     	;# 
   188  0098                     	;# 
   189  0099                     	;# 
   190  009A                     	;# 
   191  009B                     	;# 
   192  009C                     	;# 
   193  009D                     	;# 
   194  009E                     	;# 
   195  009F                     	;# 
   196  0105                     	;# 
   197  0107                     	;# 
   198  0108                     	;# 
   199  0109                     	;# 
   200  010C                     	;# 
   201  010C                     	;# 
   202  010D                     	;# 
   203  010E                     	;# 
   204  010F                     	;# 
   205  0185                     	;# 
   206  0187                     	;# 
   207  0188                     	;# 
   208  0189                     	;# 
   209  018C                     	;# 
   210  018D                     	;# 
   211  0000                     	;# 
   212  0001                     	;# 
   213  0002                     	;# 
   214  0003                     	;# 
   215  0004                     	;# 
   216  0005                     	;# 
   217  0006                     	;# 
   218  0007                     	;# 
   219  0008                     	;# 
   220  0009                     	;# 
   221  000A                     	;# 
   222  000B                     	;# 
   223  000C                     	;# 
   224  000D                     	;# 
   225  000E                     	;# 
   226  000E                     	;# 
   227  000F                     	;# 
   228  0010                     	;# 
   229  0011                     	;# 
   230  0012                     	;# 
   231  0013                     	;# 
   232  0014                     	;# 
   233  0015                     	;# 
   234  0015                     	;# 
   235  0016                     	;# 
   236  0017                     	;# 
   237  0018                     	;# 
   238  0019                     	;# 
   239  001A                     	;# 
   240  001B                     	;# 
   241  001B                     	;# 
   242  001C                     	;# 
   243  001D                     	;# 
   244  001E                     	;# 
   245  001F                     	;# 
   246  0081                     	;# 
   247  0085                     	;# 
   248  0086                     	;# 
   249  0087                     	;# 
   250  0088                     	;# 
   251  0089                     	;# 
   252  008C                     	;# 
   253  008D                     	;# 
   254  008E                     	;# 
   255  008F                     	;# 
   256  0090                     	;# 
   257  0091                     	;# 
   258  0092                     	;# 
   259  0093                     	;# 
   260  0093                     	;# 
   261  0093                     	;# 
   262  0094                     	;# 
   263  0095                     	;# 
   264  0096                     	;# 
   265  0097                     	;# 
   266  0098                     	;# 
   267  0099                     	;# 
   268  009A                     	;# 
   269  009B                     	;# 
   270  009C                     	;# 
   271  009D                     	;# 
   272  009E                     	;# 
   273  009F                     	;# 
   274  0105                     	;# 
   275  0107                     	;# 
   276  0108                     	;# 
   277  0109                     	;# 
   278  010C                     	;# 
   279  010C                     	;# 
   280  010D                     	;# 
   281  010E                     	;# 
   282  010F                     	;# 
   283  0185                     	;# 
   284  0187                     	;# 
   285  0188                     	;# 
   286  0189                     	;# 
   287  018C                     	;# 
   288  018D                     	;# 
   289  0000                     	;# 
   290  0001                     	;# 
   291  0002                     	;# 
   292  0003                     	;# 
   293  0004                     	;# 
   294  0005                     	;# 
   295  0006                     	;# 
   296  0007                     	;# 
   297  0008                     	;# 
   298  0009                     	;# 
   299  000A                     	;# 
   300  000B                     	;# 
   301  000C                     	;# 
   302  000D                     	;# 
   303  000E                     	;# 
   304  000E                     	;# 
   305  000F                     	;# 
   306  0010                     	;# 
   307  0011                     	;# 
   308  0012                     	;# 
   309  0013                     	;# 
   310  0014                     	;# 
   311  0015                     	;# 
   312  0015                     	;# 
   313  0016                     	;# 
   314  0017                     	;# 
   315  0018                     	;# 
   316  0019                     	;# 
   317  001A                     	;# 
   318  001B                     	;# 
   319  001B                     	;# 
   320  001C                     	;# 
   321  001D                     	;# 
   322  001E                     	;# 
   323  001F                     	;# 
   324  0081                     	;# 
   325  0085                     	;# 
   326  0086                     	;# 
   327  0087                     	;# 
   328  0088                     	;# 
   329  0089                     	;# 
   330  008C                     	;# 
   331  008D                     	;# 
   332  008E                     	;# 
   333  008F                     	;# 
   334  0090                     	;# 
   335  0091                     	;# 
   336  0092                     	;# 
   337  0093                     	;# 
   338  0093                     	;# 
   339  0093                     	;# 
   340  0094                     	;# 
   341  0095                     	;# 
   342  0096                     	;# 
   343  0097                     	;# 
   344  0098                     	;# 
   345  0099                     	;# 
   346  009A                     	;# 
   347  009B                     	;# 
   348  009C                     	;# 
   349  009D                     	;# 
   350  009E                     	;# 
   351  009F                     	;# 
   352  0105                     	;# 
   353  0107                     	;# 
   354  0108                     	;# 
   355  0109                     	;# 
   356  010C                     	;# 
   357  010C                     	;# 
   358  010D                     	;# 
   359  010E                     	;# 
   360  010F                     	;# 
   361  0185                     	;# 
   362  0187                     	;# 
   363  0188                     	;# 
   364  0189                     	;# 
   365  018C                     	;# 
   366  018D                     	;# 
   367  000E                     _TMR1	set	14
   368  0014                     _SSPCON	set	20
   369  000B                     _INTCONbits	set	11
   370  0009                     _PORTE	set	9
   371  0008                     _PORTD	set	8
   372  0007                     _PORTC	set	7
   373  0006                     _PORTB	set	6
   374  0005                     _PORTA	set	5
   375  0013                     _SSPBUF	set	19
   376  0014                     _SSPCONbits	set	20
   377  000C                     _PIR1bits	set	12
   378  0010                     _T1CONbits	set	16
   379  0006                     _PORTBbits	set	6
   380  0063                     _SSPIF	set	99
   381  005E                     _PEIE	set	94
   382  005F                     _GIE	set	95
   383  0091                     _SSPCON2bits	set	145
   384  0094                     _SSPSTAT	set	148
   385  0093                     _SSPADD	set	147
   386  0091                     _SSPCON2	set	145
   387  008F                     _OSCCONbits	set	143
   388  0088                     _TRISD	set	136
   389  0087                     _TRISCbits	set	135
   390  0086                     _TRISBbits	set	134
   391  0094                     _SSPSTATbits	set	148
   392  0463                     _SSPIE	set	1123
   393  043C                     _TRISC4	set	1084
   394  043B                     _TRISC3	set	1083
   395  04A0                     _BF	set	1184
   396  0189                     _ANSELH	set	393
   397  0188                     _ANSEL	set	392
   398                           
   399                           	psect	cinit
   400  000F                     start_initialization:	
   401                           ; #config settings
   402                           
   403  000F                     __initialization:
   404                           
   405                           ; Clear objects allocated to COMMON
   406  000F  01F8               	clrf	__pbssCOMMON& (0+127)
   407  0010  01F9               	clrf	(__pbssCOMMON+1)& (0+127)
   408  0011  01FA               	clrf	(__pbssCOMMON+2)& (0+127)
   409                           
   410                           ; Clear objects allocated to BANK0
   411  0012  1283               	bcf	3,5	;RP0=0, select bank0
   412  0013  1303               	bcf	3,6	;RP1=0, select bank0
   413  0014  01D4               	clrf	__pbssBANK0& (0+127)
   414  0015                     end_of_initialization:	
   415                           ;End of C runtime variable initialization code
   416                           
   417  0015                     __end_of__initialization:
   418  0015  0183               	clrf	3
   419  0016  120A  118A  2BE4   	ljmp	_main	;jump to C main() function
   420                           
   421                           	psect	bssCOMMON
   422  0078                     __pbssCOMMON:
   423  0078                     _PWM2:
   424  0078                     	ds	1
   425  0079                     _PWM1:
   426  0079                     	ds	1
   427  007A                     _z:
   428  007A                     	ds	1
   429                           
   430                           	psect	bssBANK0
   431  0054                     __pbssBANK0:
   432  0054                     _dist:
   433  0054                     	ds	1
   434                           
   435                           	psect	cstackCOMMON
   436  0070                     __pcstackCOMMON:
   437  0070                     ?_I2C_Slave_Init:
   438  0070                     ?_isr:	
   439                           ; 1 bytes @ 0x0
   440                           
   441  0070                     ??_isr:	
   442                           ; 1 bytes @ 0x0
   443                           
   444  0070                     ?_setup:	
   445                           ; 1 bytes @ 0x0
   446                           
   447  0070                     ?_main:	
   448                           ; 1 bytes @ 0x0
   449                           
   450                           
   451                           ; 1 bytes @ 0x0
   452  0070                     	ds	3
   453  0073                     ??_I2C_Slave_Init:
   454  0073                     ?___xxtofl:	
   455                           ; 1 bytes @ 0x3
   456                           
   457  0073                     I2C_Slave_Init@address:	
   458                           ; 4 bytes @ 0x3
   459                           
   460  0073                     ___xxtofl@val:	
   461                           ; 1 bytes @ 0x3
   462                           
   463                           
   464                           ; 4 bytes @ 0x3
   465  0073                     	ds	1
   466  0074                     ??_setup:
   467                           
   468                           ; 1 bytes @ 0x4
   469  0074                     	ds	3
   470  0077                     ??_C_distancia:
   471                           
   472                           ; 1 bytes @ 0x7
   473  0077                     	ds	1
   474                           
   475                           	psect	cstackBANK0
   476  0020                     __pcstackBANK0:
   477  0020                     ??___xxtofl:
   478                           
   479                           ; 1 bytes @ 0x0
   480  0020                     	ds	4
   481  0024                     ___xxtofl@sign:
   482                           
   483                           ; 1 bytes @ 0x4
   484  0024                     	ds	1
   485  0025                     ___xxtofl@exp:
   486                           
   487                           ; 1 bytes @ 0x5
   488  0025                     	ds	1
   489  0026                     ___xxtofl@arg:
   490                           
   491                           ; 4 bytes @ 0x6
   492  0026                     	ds	4
   493  002A                     ?___fldiv:
   494  002A                     ___fldiv@a:	
   495                           ; 4 bytes @ 0xA
   496                           
   497                           
   498                           ; 4 bytes @ 0xA
   499  002A                     	ds	4
   500  002E                     ___fldiv@b:
   501                           
   502                           ; 4 bytes @ 0xE
   503  002E                     	ds	4
   504  0032                     ??___fldiv:
   505                           
   506                           ; 1 bytes @ 0x12
   507  0032                     	ds	5
   508  0037                     ___fldiv@rem:
   509                           
   510                           ; 4 bytes @ 0x17
   511  0037                     	ds	4
   512  003B                     ___fldiv@sign:
   513                           
   514                           ; 1 bytes @ 0x1B
   515  003B                     	ds	1
   516  003C                     ___fldiv@new_exp:
   517                           
   518                           ; 2 bytes @ 0x1C
   519  003C                     	ds	2
   520  003E                     ___fldiv@grs:
   521                           
   522                           ; 4 bytes @ 0x1E
   523  003E                     	ds	4
   524  0042                     ___fldiv@bexp:
   525                           
   526                           ; 1 bytes @ 0x22
   527  0042                     	ds	1
   528  0043                     ___fldiv@aexp:
   529                           
   530                           ; 1 bytes @ 0x23
   531  0043                     	ds	1
   532  0044                     ?___fltol:
   533  0044                     ___fltol@f1:	
   534                           ; 4 bytes @ 0x24
   535                           
   536                           
   537                           ; 4 bytes @ 0x24
   538  0044                     	ds	4
   539  0048                     ??___fltol:
   540                           
   541                           ; 1 bytes @ 0x28
   542  0048                     	ds	5
   543  004D                     ___fltol@sign1:
   544                           
   545                           ; 1 bytes @ 0x2D
   546  004D                     	ds	1
   547  004E                     ___fltol@exp1:
   548                           
   549                           ; 1 bytes @ 0x2E
   550  004E                     	ds	1
   551  004F                     ?_C_distancia:
   552                           
   553                           ; 2 bytes @ 0x2F
   554  004F                     	ds	2
   555  0051                     ??_main:
   556                           
   557                           ; 1 bytes @ 0x31
   558  0051                     	ds	3
   559                           
   560                           	psect	maintext
   561  03E4                     __pmaintext:	
   562 ;;
   563 ;;Main: autosize = 0, tempsize = 3, incstack = 0, save=0
   564 ;;
   565 ;; *************** function _main *****************
   566 ;; Defined at:
   567 ;;		line 192 in file "MainSlave.c"
   568 ;; Parameters:    Size  Location     Type
   569 ;;		None
   570 ;; Auto vars:     Size  Location     Type
   571 ;;		None
   572 ;; Return value:  Size  Location     Type
   573 ;;                  1    wreg      void 
   574 ;; Registers used:
   575 ;;		wreg, status,2, status,0, btemp+1, pclath, cstack
   576 ;; Tracked objects:
   577 ;;		On entry : B00/0
   578 ;;		On exit  : 0/0
   579 ;;		Unchanged: 0/0
   580 ;; Data sizes:     COMMON   BANK0   BANK1   BANK3   BANK2
   581 ;;      Params:         0       0       0       0       0
   582 ;;      Locals:         0       0       0       0       0
   583 ;;      Temps:          0       3       0       0       0
   584 ;;      Totals:         0       3       0       0       0
   585 ;;Total ram usage:        3 bytes
   586 ;; Hardware stack levels required when called:    3
   587 ;; This function calls:
   588 ;;		_C_distancia
   589 ;;		_setup
   590 ;; This function is called by:
   591 ;;		Startup code after reset
   592 ;; This function uses a non-reentrant model
   593 ;;
   594                           
   595                           
   596                           ;psect for function _main
   597  03E4                     _main:
   598  03E4                     l1555:	
   599                           ;incstack = 0
   600                           ; Regs used in _main: [wreg+status,2+status,0+btemp+1+pclath+cstack]
   601                           
   602                           
   603                           ;MainSlave.c: 193:     setup();
   604  03E4  120A  118A  2434  120A  118A  	fcall	_setup
   605  03E9                     l1557:
   606                           
   607                           ;MainSlave.c: 196:         _delay((unsigned long)((200)*(8000000/4000.0)));
   608  03E9  3003               	movlw	3
   609  03EA  1283               	bcf	3,5	;RP0=0, select bank0
   610  03EB  1303               	bcf	3,6	;RP1=0, select bank0
   611  03EC  00D3               	movwf	??_main+2
   612  03ED  3008               	movlw	8
   613  03EE  00D2               	movwf	??_main+1
   614  03EF  3076               	movlw	118
   615  03F0  00D1               	movwf	??_main
   616  03F1                     u1557:
   617  03F1  0BD1               	decfsz	??_main,f
   618  03F2  2BF1               	goto	u1557
   619  03F3  0BD2               	decfsz	??_main+1,f
   620  03F4  2BF1               	goto	u1557
   621  03F5  0BD3               	decfsz	??_main+2,f
   622  03F6  2BF1               	goto	u1557
   623  03F7  0000               	nop
   624  03F8                     l1559:
   625                           
   626                           ;MainSlave.c: 197:         C_distancia(dist);
   627  03F8  1283               	bcf	3,5	;RP0=0, select bank0
   628  03F9  1303               	bcf	3,6	;RP1=0, select bank0
   629  03FA  0854               	movf	_dist,w
   630  03FB  00D1               	movwf	??_main
   631  03FC  01D2               	clrf	??_main+1
   632  03FD  0851               	movf	??_main,w
   633  03FE  00CF               	movwf	?_C_distancia
   634  03FF  0852               	movf	??_main+1,w
   635  0400  00D0               	movwf	?_C_distancia+1
   636  0401  120A  118A  2393  120A  118A  	fcall	_C_distancia
   637  0406                     l1561:
   638                           
   639                           ;MainSlave.c: 199:         PORTD = dist;
   640  0406  1283               	bcf	3,5	;RP0=0, select bank0
   641  0407  1303               	bcf	3,6	;RP1=0, select bank0
   642  0408  0854               	movf	_dist,w
   643  0409  0088               	movwf	8	;volatile
   644  040A                     l1563:
   645                           
   646                           ;MainSlave.c: 201:         if(dist <= 4){
   647  040A  3005               	movlw	5
   648  040B  0254               	subwf	_dist,w
   649  040C  1803               	skipnc
   650  040D  2C0F               	goto	u1531
   651  040E  2C10               	goto	u1530
   652  040F                     u1531:
   653  040F  2C1C               	goto	l100
   654  0410                     u1530:
   655  0410                     l1565:
   656                           
   657                           ;MainSlave.c: 202:             PORTBbits.RB3 = 1;
   658  0410  1586               	bsf	6,3	;volatile
   659                           
   660                           ;MainSlave.c: 203:             PORTBbits.RB2 = 0;
   661  0411  1106               	bcf	6,2	;volatile
   662  0412                     l1567:
   663                           
   664                           ;MainSlave.c: 204:             _delay((unsigned long)((1)*(8000000/4000.0)));
   665  0412  3003               	movlw	3
   666  0413  1283               	bcf	3,5	;RP0=0, select bank0
   667  0414  1303               	bcf	3,6	;RP1=0, select bank0
   668  0415  00D2               	movwf	??_main+1
   669  0416  3097               	movlw	151
   670  0417  00D1               	movwf	??_main
   671  0418                     u1567:
   672  0418  0BD1               	decfsz	??_main,f
   673  0419  2C18               	goto	u1567
   674  041A  0BD2               	decfsz	??_main+1,f
   675  041B  2C18               	goto	u1567
   676  041C                     l100:	
   677                           ;MainSlave.c: 205:         }
   678                           
   679                           
   680                           ;MainSlave.c: 206:         if(dist >= 5){
   681  041C  3005               	movlw	5
   682  041D  1283               	bcf	3,5	;RP0=0, select bank0
   683  041E  1303               	bcf	3,6	;RP1=0, select bank0
   684  041F  0254               	subwf	_dist,w
   685  0420  1C03               	skipc
   686  0421  2C23               	goto	u1541
   687  0422  2C24               	goto	u1540
   688  0423                     u1541:
   689  0423  2BE9               	goto	l1557
   690  0424                     u1540:
   691  0424                     l1569:
   692                           
   693                           ;MainSlave.c: 207:             PORTBbits.RB3 = 0;
   694  0424  1186               	bcf	6,3	;volatile
   695                           
   696                           ;MainSlave.c: 208:             PORTBbits.RB2 = 1;
   697  0425  1506               	bsf	6,2	;volatile
   698  0426                     l1571:
   699                           
   700                           ;MainSlave.c: 209:             _delay((unsigned long)((1)*(8000000/4000.0)));
   701  0426  3003               	movlw	3
   702  0427  1283               	bcf	3,5	;RP0=0, select bank0
   703  0428  1303               	bcf	3,6	;RP1=0, select bank0
   704  0429  00D2               	movwf	??_main+1
   705  042A  3097               	movlw	151
   706  042B  00D1               	movwf	??_main
   707  042C                     u1577:
   708  042C  0BD1               	decfsz	??_main,f
   709  042D  2C2C               	goto	u1577
   710  042E  0BD2               	decfsz	??_main+1,f
   711  042F  2C2C               	goto	u1577
   712  0430  2BE9               	goto	l1557
   713  0431  120A  118A  280C   	ljmp	start
   714  0434                     __end_of_main:
   715                           
   716                           	psect	text1
   717  0434                     __ptext1:	
   718 ;; *************** function _setup *****************
   719 ;; Defined at:
   720 ;;		line 126 in file "MainSlave.c"
   721 ;; Parameters:    Size  Location     Type
   722 ;;		None
   723 ;; Auto vars:     Size  Location     Type
   724 ;;		None
   725 ;; Return value:  Size  Location     Type
   726 ;;                  1    wreg      void 
   727 ;; Registers used:
   728 ;;		wreg, status,2, status,0, pclath, cstack
   729 ;; Tracked objects:
   730 ;;		On entry : 0/0
   731 ;;		On exit  : 0/0
   732 ;;		Unchanged: 0/0
   733 ;; Data sizes:     COMMON   BANK0   BANK1   BANK3   BANK2
   734 ;;      Params:         0       0       0       0       0
   735 ;;      Locals:         0       0       0       0       0
   736 ;;      Temps:          0       0       0       0       0
   737 ;;      Totals:         0       0       0       0       0
   738 ;;Total ram usage:        0 bytes
   739 ;; Hardware stack levels used:    1
   740 ;; Hardware stack levels required when called:    2
   741 ;; This function calls:
   742 ;;		_I2C_Slave_Init
   743 ;; This function is called by:
   744 ;;		_main
   745 ;; This function uses a non-reentrant model
   746 ;;
   747                           
   748                           
   749                           ;psect for function _setup
   750  0434                     _setup:
   751  0434                     l1395:	
   752                           ;incstack = 0
   753                           ; Regs used in _setup: [wreg+status,2+status,0+pclath+cstack]
   754                           
   755                           
   756                           ;MainSlave.c: 129:     ANSEL = 0X00;
   757  0434  1683               	bsf	3,5	;RP0=1, select bank3
   758  0435  1703               	bsf	3,6	;RP1=1, select bank3
   759  0436  0188               	clrf	8	;volatile
   760  0437                     l1397:
   761                           
   762                           ;MainSlave.c: 130:     ANSELH = 0x00000001;
   763  0437  3001               	movlw	1
   764  0438  0089               	movwf	9	;volatile
   765  0439                     l1399:
   766                           
   767                           ;MainSlave.c: 132:     TRISBbits.TRISB0 = 1;
   768  0439  1683               	bsf	3,5	;RP0=1, select bank1
   769  043A  1303               	bcf	3,6	;RP1=0, select bank1
   770  043B  1406               	bsf	6,0	;volatile
   771  043C                     l1401:
   772                           
   773                           ;MainSlave.c: 133:     TRISBbits.TRISB3 = 0;
   774  043C  1186               	bcf	6,3	;volatile
   775  043D                     l1403:
   776                           
   777                           ;MainSlave.c: 134:     TRISBbits.TRISB2 = 0;
   778  043D  1106               	bcf	6,2	;volatile
   779  043E                     l1405:
   780                           
   781                           ;MainSlave.c: 135:     TRISBbits.TRISB4 = 1;
   782  043E  1606               	bsf	6,4	;volatile
   783  043F                     l1407:
   784                           
   785                           ;MainSlave.c: 136:     TRISBbits.TRISB5 = 0;
   786  043F  1286               	bcf	6,5	;volatile
   787  0440                     l1409:
   788                           
   789                           ;MainSlave.c: 137:     TRISCbits.TRISC3 = 0;
   790  0440  1187               	bcf	7,3	;volatile
   791  0441                     l1411:
   792                           
   793                           ;MainSlave.c: 138:     TRISCbits.TRISC4 = 0;
   794  0441  1207               	bcf	7,4	;volatile
   795  0442                     l1413:
   796                           
   797                           ;MainSlave.c: 139:     TRISD = 0X00;
   798  0442  0188               	clrf	8	;volatile
   799  0443                     l1415:
   800                           
   801                           ;MainSlave.c: 141:     PORTA = 0X00;
   802  0443  1283               	bcf	3,5	;RP0=0, select bank0
   803  0444  1303               	bcf	3,6	;RP1=0, select bank0
   804  0445  0185               	clrf	5	;volatile
   805  0446                     l1417:
   806                           
   807                           ;MainSlave.c: 142:     PORTB = 0X00;
   808  0446  0186               	clrf	6	;volatile
   809  0447                     l1419:
   810                           
   811                           ;MainSlave.c: 143:     PORTC = 0X00;
   812  0447  0187               	clrf	7	;volatile
   813  0448                     l1421:
   814                           
   815                           ;MainSlave.c: 144:     PORTD = 0X00;
   816  0448  0188               	clrf	8	;volatile
   817  0449                     l1423:
   818                           
   819                           ;MainSlave.c: 145:     PORTE = 0X00;
   820  0449  0189               	clrf	9	;volatile
   821  044A                     l1425:
   822                           
   823                           ;MainSlave.c: 148:     OSCCONbits.SCS = 1;
   824  044A  1683               	bsf	3,5	;RP0=1, select bank1
   825  044B  1303               	bcf	3,6	;RP1=0, select bank1
   826  044C  140F               	bsf	15,0	;volatile
   827  044D                     l1427:
   828                           
   829                           ;MainSlave.c: 149:     OSCCONbits.IRCF2 = 1;
   830  044D  170F               	bsf	15,6	;volatile
   831  044E                     l1429:
   832                           
   833                           ;MainSlave.c: 150:     OSCCONbits.IRCF1 = 1;
   834  044E  168F               	bsf	15,5	;volatile
   835  044F                     l1431:
   836                           
   837                           ;MainSlave.c: 151:     OSCCONbits.IRCF0 = 1;
   838  044F  160F               	bsf	15,4	;volatile
   839  0450                     l1433:
   840                           
   841                           ;MainSlave.c: 154:     INTCONbits.GIE = 1;
   842  0450  178B               	bsf	11,7	;volatile
   843  0451                     l1435:
   844                           
   845                           ;MainSlave.c: 155:     INTCONbits.PEIE = 1;
   846  0451  170B               	bsf	11,6	;volatile
   847  0452                     l1437:
   848                           
   849                           ;MainSlave.c: 158:     TMR1 = 0X00;
   850  0452  1283               	bcf	3,5	;RP0=0, select bank0
   851  0453  1303               	bcf	3,6	;RP1=0, select bank0
   852  0454  018E               	clrf	14	;volatile
   853  0455  018F               	clrf	15	;volatile
   854  0456                     l1439:
   855                           
   856                           ;MainSlave.c: 159:     T1CONbits.T1CKPS = 0B01;
   857  0456  0810               	movf	16,w	;volatile
   858  0457  39CF               	andlw	-49
   859  0458  3810               	iorlw	16
   860  0459  0090               	movwf	16	;volatile
   861  045A                     l1441:
   862                           
   863                           ;MainSlave.c: 160:     T1CONbits.TMR1GE = 0;
   864  045A  1310               	bcf	16,6	;volatile
   865  045B                     l1443:
   866                           
   867                           ;MainSlave.c: 161:     T1CONbits.TMR1CS = 0;
   868  045B  1090               	bcf	16,1	;volatile
   869  045C                     l1445:
   870                           
   871                           ;MainSlave.c: 186:     I2C_Slave_Init(0x50);
   872  045C  3050               	movlw	80
   873  045D  120A  118A  2463  120A  118A  	fcall	_I2C_Slave_Init
   874  0462                     l94:
   875  0462  0008               	return
   876  0463                     __end_of_setup:
   877                           
   878                           	psect	text2
   879  0463                     __ptext2:	
   880 ;; *************** function _I2C_Slave_Init *****************
   881 ;; Defined at:
   882 ;;		line 93 in file "I2C.c"
   883 ;; Parameters:    Size  Location     Type
   884 ;;  address         1    wreg     unsigned char 
   885 ;; Auto vars:     Size  Location     Type
   886 ;;  address         1    3[COMMON] unsigned char 
   887 ;; Return value:  Size  Location     Type
   888 ;;                  1    wreg      void 
   889 ;; Registers used:
   890 ;;		wreg
   891 ;; Tracked objects:
   892 ;;		On entry : 0/0
   893 ;;		On exit  : 0/0
   894 ;;		Unchanged: 0/0
   895 ;; Data sizes:     COMMON   BANK0   BANK1   BANK3   BANK2
   896 ;;      Params:         0       0       0       0       0
   897 ;;      Locals:         1       0       0       0       0
   898 ;;      Temps:          0       0       0       0       0
   899 ;;      Totals:         1       0       0       0       0
   900 ;;Total ram usage:        1 bytes
   901 ;; Hardware stack levels used:    1
   902 ;; Hardware stack levels required when called:    1
   903 ;; This function calls:
   904 ;;		Nothing
   905 ;; This function is called by:
   906 ;;		_setup
   907 ;; This function uses a non-reentrant model
   908 ;;
   909                           
   910                           
   911                           ;psect for function _I2C_Slave_Init
   912  0463                     _I2C_Slave_Init:
   913                           
   914                           ;incstack = 0
   915                           ; Regs used in _I2C_Slave_Init: [wreg]
   916                           ;I2C_Slave_Init@address stored from wreg
   917  0463  00F3               	movwf	I2C_Slave_Init@address
   918  0464                     l1147:
   919                           
   920                           ;I2C.c: 93: void I2C_Slave_Init(uint8_t address);I2C.c: 94: {;I2C.c: 95:     SSPADD = ad
      +                          dress;
   921  0464  0873               	movf	I2C_Slave_Init@address,w
   922  0465  1683               	bsf	3,5	;RP0=1, select bank1
   923  0466  1303               	bcf	3,6	;RP1=0, select bank1
   924  0467  0093               	movwf	19	;volatile
   925                           
   926                           ;I2C.c: 96:     SSPCON = 0x36;
   927  0468  3036               	movlw	54
   928  0469  1283               	bcf	3,5	;RP0=0, select bank0
   929  046A  1303               	bcf	3,6	;RP1=0, select bank0
   930  046B  0094               	movwf	20	;volatile
   931                           
   932                           ;I2C.c: 97:     SSPSTAT = 0x80;
   933  046C  3080               	movlw	128
   934  046D  1683               	bsf	3,5	;RP0=1, select bank1
   935  046E  1303               	bcf	3,6	;RP1=0, select bank1
   936  046F  0094               	movwf	20	;volatile
   937                           
   938                           ;I2C.c: 98:     SSPCON2 = 0x01;
   939  0470  3001               	movlw	1
   940  0471  0091               	movwf	17	;volatile
   941  0472                     l1149:
   942                           
   943                           ;I2C.c: 99:     TRISC3 = 1;
   944  0472  1587               	bsf	7,3	;volatile
   945  0473                     l1151:
   946                           
   947                           ;I2C.c: 100:     TRISC4 = 1;
   948  0473  1607               	bsf	7,4	;volatile
   949  0474                     l1153:
   950                           
   951                           ;I2C.c: 101:     GIE = 1;
   952  0474  178B               	bsf	11,7	;volatile
   953  0475                     l1155:
   954                           
   955                           ;I2C.c: 102:     PEIE = 1;
   956  0475  170B               	bsf	11,6	;volatile
   957  0476                     l1157:
   958                           
   959                           ;I2C.c: 103:     SSPIF = 0;
   960  0476  1283               	bcf	3,5	;RP0=0, select bank0
   961  0477  1303               	bcf	3,6	;RP1=0, select bank0
   962  0478  118C               	bcf	12,3	;volatile
   963  0479                     l1159:
   964                           
   965                           ;I2C.c: 104:     SSPIE = 1;
   966  0479  1683               	bsf	3,5	;RP0=1, select bank1
   967  047A  1303               	bcf	3,6	;RP1=0, select bank1
   968  047B  158C               	bsf	12,3	;volatile
   969  047C                     l159:
   970  047C  0008               	return
   971  047D                     __end_of_I2C_Slave_Init:
   972                           
   973                           	psect	text3
   974  0393                     __ptext3:	
   975 ;; *************** function _C_distancia *****************
   976 ;; Defined at:
   977 ;;		line 36 in file "Ultrasonicoo.c"
   978 ;; Parameters:    Size  Location     Type
   979 ;;		None
   980 ;; Auto vars:     Size  Location     Type
   981 ;;		None
   982 ;; Return value:  Size  Location     Type
   983 ;;                  2   47[BANK0 ] int 
   984 ;; Registers used:
   985 ;;		wreg, status,2, status,0, btemp+1, pclath, cstack
   986 ;; Tracked objects:
   987 ;;		On entry : 0/0
   988 ;;		On exit  : 0/0
   989 ;;		Unchanged: 0/0
   990 ;; Data sizes:     COMMON   BANK0   BANK1   BANK3   BANK2
   991 ;;      Params:         0       2       0       0       0
   992 ;;      Locals:         0       0       0       0       0
   993 ;;      Temps:          1       0       0       0       0
   994 ;;      Totals:         1       2       0       0       0
   995 ;;Total ram usage:        3 bytes
   996 ;; Hardware stack levels used:    1
   997 ;; Hardware stack levels required when called:    2
   998 ;; This function calls:
   999 ;;		___fldiv
  1000 ;;		___fltol
  1001 ;;		___xxtofl
  1002 ;; This function is called by:
  1003 ;;		_main
  1004 ;; This function uses a non-reentrant model
  1005 ;;
  1006                           
  1007                           
  1008                           ;psect for function _C_distancia
  1009  0393                     _C_distancia:
  1010  0393                     l1543:	
  1011                           ;incstack = 0
  1012                           ; Regs used in _C_distancia: [wreg+status,2+status,0+btemp+1+pclath+cstack]
  1013                           
  1014                           
  1015                           ;Ultrasonicoo.c: 37:     dist = 0x00;
  1016  0393  1283               	bcf	3,5	;RP0=0, select bank0
  1017  0394  1303               	bcf	3,6	;RP1=0, select bank0
  1018  0395  01D4               	clrf	_dist
  1019                           
  1020                           ;Ultrasonicoo.c: 38:     TMR1 = 0X00;
  1021  0396  018E               	clrf	14	;volatile
  1022  0397  018F               	clrf	15	;volatile
  1023  0398                     l1545:
  1024                           
  1025                           ;Ultrasonicoo.c: 39:     PORTBbits.RB5 = 1;
  1026  0398  1686               	bsf	6,5	;volatile
  1027  0399                     l1547:
  1028                           
  1029                           ;Ultrasonicoo.c: 40:     _delay((unsigned long)((10)*(8000000/4000000.0)));
  1030  0399  3006               	movlw	6
  1031  039A  00F7               	movwf	??_C_distancia
  1032  039B                     u1587:
  1033  039B  0BF7               	decfsz	??_C_distancia,f
  1034  039C  2B9B               	goto	u1587
  1035  039D  0000               	nop
  1036  039E                     l1549:
  1037                           
  1038                           ;Ultrasonicoo.c: 41:     PORTBbits.RB5 = 0;
  1039  039E  1283               	bcf	3,5	;RP0=0, select bank0
  1040  039F  1303               	bcf	3,6	;RP1=0, select bank0
  1041  03A0  1286               	bcf	6,5	;volatile
  1042  03A1                     l13:	
  1043                           ;Ultrasonicoo.c: 42:     while(PORTBbits.RB4 == 0){};
  1044                           
  1045  03A1  1E06               	btfss	6,4	;volatile
  1046  03A2  2BA4               	goto	u1511
  1047  03A3  2BA5               	goto	u1510
  1048  03A4                     u1511:
  1049  03A4  2BA1               	goto	l13
  1050  03A5                     u1510:
  1051  03A5                     l15:
  1052                           
  1053                           ;Ultrasonicoo.c: 43:     T1CONbits.TMR1ON = 1;
  1054  03A5  1410               	bsf	16,0	;volatile
  1055  03A6                     l16:	
  1056                           ;Ultrasonicoo.c: 44:     while(PORTBbits.RB4 == 1){};
  1057                           
  1058  03A6  1A06               	btfsc	6,4	;volatile
  1059  03A7  2BA9               	goto	u1521
  1060  03A8  2BAA               	goto	u1520
  1061  03A9                     u1521:
  1062  03A9  2BA6               	goto	l16
  1063  03AA                     u1520:
  1064  03AA                     l18:
  1065                           
  1066                           ;Ultrasonicoo.c: 45:     T1CONbits.TMR1ON = 0;
  1067  03AA  1010               	bcf	16,0	;volatile
  1068  03AB                     l1551:
  1069                           
  1070                           ;Ultrasonicoo.c: 46:     dist = TMR1/58.82;
  1071  03AB  080E               	movf	14,w	;volatile
  1072  03AC  00F3               	movwf	___xxtofl@val
  1073  03AD  080F               	movf	15,w	;volatile
  1074  03AE  00F4               	movwf	___xxtofl@val+1
  1075  03AF  01F5               	clrf	___xxtofl@val+2
  1076  03B0  01F6               	clrf	___xxtofl@val+3
  1077  03B1  3000               	movlw	0
  1078  03B2  120A  118A  21F6  120A  118A  	fcall	___xxtofl
  1079  03B7  0876               	movf	?___xxtofl+3,w
  1080  03B8  1283               	bcf	3,5	;RP0=0, select bank0
  1081  03B9  1303               	bcf	3,6	;RP1=0, select bank0
  1082  03BA  00B1               	movwf	___fldiv@b+3
  1083  03BB  0875               	movf	?___xxtofl+2,w
  1084  03BC  00B0               	movwf	___fldiv@b+2
  1085  03BD  0874               	movf	?___xxtofl+1,w
  1086  03BE  00AF               	movwf	___fldiv@b+1
  1087  03BF  0873               	movf	?___xxtofl,w
  1088  03C0  00AE               	movwf	___fldiv@b
  1089  03C1  3042               	movlw	66
  1090  03C2  00AD               	movwf	___fldiv@a+3
  1091  03C3  306B               	movlw	107
  1092  03C4  00AC               	movwf	___fldiv@a+2
  1093  03C5  3047               	movlw	71
  1094  03C6  00AB               	movwf	___fldiv@a+1
  1095  03C7  30AE               	movlw	174
  1096  03C8  00AA               	movwf	___fldiv@a
  1097  03C9  120A  118A  2019  120A  118A  	fcall	___fldiv
  1098  03CE  1283               	bcf	3,5	;RP0=0, select bank0
  1099  03CF  1303               	bcf	3,6	;RP1=0, select bank0
  1100  03D0  082D               	movf	?___fldiv+3,w
  1101  03D1  00C7               	movwf	___fltol@f1+3
  1102  03D2  082C               	movf	?___fldiv+2,w
  1103  03D3  00C6               	movwf	___fltol@f1+2
  1104  03D4  082B               	movf	?___fldiv+1,w
  1105  03D5  00C5               	movwf	___fltol@f1+1
  1106  03D6  082A               	movf	?___fldiv,w
  1107  03D7  00C4               	movwf	___fltol@f1
  1108  03D8  120A  118A  22B2  120A  118A  	fcall	___fltol
  1109  03DD  1283               	bcf	3,5	;RP0=0, select bank0
  1110  03DE  1303               	bcf	3,6	;RP1=0, select bank0
  1111  03DF  0844               	movf	?___fltol,w
  1112  03E0  00F7               	movwf	??_C_distancia
  1113  03E1  0877               	movf	??_C_distancia,w
  1114  03E2  00D4               	movwf	_dist
  1115  03E3                     l19:
  1116  03E3  0008               	return
  1117  03E4                     __end_of_C_distancia:
  1118                           
  1119                           	psect	text4
  1120  01F6                     __ptext4:	
  1121 ;; *************** function ___xxtofl *****************
  1122 ;; Defined at:
  1123 ;;		line 10 in file "C:\Program Files\Microchip\xc8\v2.31\pic\sources\c90\common\xxtofl.c"
  1124 ;; Parameters:    Size  Location     Type
  1125 ;;  sign            1    wreg     unsigned char 
  1126 ;;  val             4    3[COMMON] long 
  1127 ;; Auto vars:     Size  Location     Type
  1128 ;;  sign            1    4[BANK0 ] unsigned char 
  1129 ;;  arg             4    6[BANK0 ] unsigned long 
  1130 ;;  exp             1    5[BANK0 ] unsigned char 
  1131 ;; Return value:  Size  Location     Type
  1132 ;;                  4    3[COMMON] unsigned char 
  1133 ;; Registers used:
  1134 ;;		wreg, status,2, status,0
  1135 ;; Tracked objects:
  1136 ;;		On entry : 0/0
  1137 ;;		On exit  : 0/0
  1138 ;;		Unchanged: 0/0
  1139 ;; Data sizes:     COMMON   BANK0   BANK1   BANK3   BANK2
  1140 ;;      Params:         4       0       0       0       0
  1141 ;;      Locals:         0       6       0       0       0
  1142 ;;      Temps:          0       4       0       0       0
  1143 ;;      Totals:         4      10       0       0       0
  1144 ;;Total ram usage:       14 bytes
  1145 ;; Hardware stack levels used:    1
  1146 ;; Hardware stack levels required when called:    1
  1147 ;; This function calls:
  1148 ;;		Nothing
  1149 ;; This function is called by:
  1150 ;;		_C_distancia
  1151 ;; This function uses a non-reentrant model
  1152 ;;
  1153                           
  1154                           
  1155                           ;psect for function ___xxtofl
  1156  01F6                     ___xxtofl:
  1157                           
  1158                           ;incstack = 0
  1159                           ; Regs used in ___xxtofl: [wreg+status,2+status,0]
  1160                           ;___xxtofl@sign stored from wreg
  1161  01F6  1283               	bcf	3,5	;RP0=0, select bank0
  1162  01F7  1303               	bcf	3,6	;RP1=0, select bank0
  1163  01F8  00A4               	movwf	___xxtofl@sign
  1164  01F9                     l1499:
  1165  01F9  0824               	movf	___xxtofl@sign,w
  1166  01FA  1903               	btfsc	3,2
  1167  01FB  29FD               	goto	u1371
  1168  01FC  29FE               	goto	u1370
  1169  01FD                     u1371:
  1170  01FD  2A12               	goto	l1505
  1171  01FE                     u1370:
  1172  01FE                     l1501:
  1173  01FE  1FF6               	btfss	___xxtofl@val+3,7
  1174  01FF  2A01               	goto	u1381
  1175  0200  2A02               	goto	u1380
  1176  0201                     u1381:
  1177  0201  2A12               	goto	l1505
  1178  0202                     u1380:
  1179  0202                     l1503:
  1180  0202  0973               	comf	___xxtofl@val,w
  1181  0203  00A6               	movwf	___xxtofl@arg
  1182  0204  0974               	comf	___xxtofl@val+1,w
  1183  0205  00A7               	movwf	___xxtofl@arg+1
  1184  0206  0975               	comf	___xxtofl@val+2,w
  1185  0207  00A8               	movwf	___xxtofl@arg+2
  1186  0208  0976               	comf	___xxtofl@val+3,w
  1187  0209  00A9               	movwf	___xxtofl@arg+3
  1188  020A  0AA6               	incf	___xxtofl@arg,f
  1189  020B  1903               	skipnz
  1190  020C  0AA7               	incf	___xxtofl@arg+1,f
  1191  020D  1903               	skipnz
  1192  020E  0AA8               	incf	___xxtofl@arg+2,f
  1193  020F  1903               	skipnz
  1194  0210  0AA9               	incf	___xxtofl@arg+3,f
  1195  0211  2A1A               	goto	l678
  1196  0212                     l1505:
  1197  0212  0876               	movf	___xxtofl@val+3,w
  1198  0213  00A9               	movwf	___xxtofl@arg+3
  1199  0214  0875               	movf	___xxtofl@val+2,w
  1200  0215  00A8               	movwf	___xxtofl@arg+2
  1201  0216  0874               	movf	___xxtofl@val+1,w
  1202  0217  00A7               	movwf	___xxtofl@arg+1
  1203  0218  0873               	movf	___xxtofl@val,w
  1204  0219  00A6               	movwf	___xxtofl@arg
  1205  021A                     l678:
  1206  021A  0876               	movf	___xxtofl@val+3,w
  1207  021B  0475               	iorwf	___xxtofl@val+2,w
  1208  021C  0474               	iorwf	___xxtofl@val+1,w
  1209  021D  0473               	iorwf	___xxtofl@val,w
  1210  021E  1D03               	skipz
  1211  021F  2A21               	goto	u1391
  1212  0220  2A22               	goto	u1390
  1213  0221                     u1391:
  1214  0221  2A2B               	goto	l1511
  1215  0222                     u1390:
  1216  0222                     l1507:
  1217  0222  3000               	movlw	0
  1218  0223  00F6               	movwf	?___xxtofl+3
  1219  0224  3000               	movlw	0
  1220  0225  00F5               	movwf	?___xxtofl+2
  1221  0226  3000               	movlw	0
  1222  0227  00F4               	movwf	?___xxtofl+1
  1223  0228  3000               	movlw	0
  1224  0229  00F3               	movwf	?___xxtofl
  1225  022A  2AB1               	goto	l680
  1226  022B                     l1511:
  1227  022B  3096               	movlw	150
  1228  022C  00A0               	movwf	??___xxtofl
  1229  022D  0820               	movf	??___xxtofl,w
  1230  022E  00A5               	movwf	___xxtofl@exp
  1231  022F  2A3D               	goto	l1515
  1232  0230                     l1513:
  1233  0230  3001               	movlw	1
  1234  0231  00A0               	movwf	??___xxtofl
  1235  0232  0820               	movf	??___xxtofl,w
  1236  0233  07A5               	addwf	___xxtofl@exp,f
  1237  0234  3001               	movlw	1
  1238  0235                     u1405:
  1239  0235  1003               	clrc
  1240  0236  0CA9               	rrf	___xxtofl@arg+3,f
  1241  0237  0CA8               	rrf	___xxtofl@arg+2,f
  1242  0238  0CA7               	rrf	___xxtofl@arg+1,f
  1243  0239  0CA6               	rrf	___xxtofl@arg,f
  1244  023A  3EFF               	addlw	-1
  1245  023B  1D03               	skipz
  1246  023C  2A35               	goto	u1405
  1247  023D                     l1515:
  1248  023D  30FE               	movlw	254
  1249  023E  0529               	andwf	___xxtofl@arg+3,w
  1250  023F  1D03               	btfss	3,2
  1251  0240  2A42               	goto	u1411
  1252  0241  2A43               	goto	u1410
  1253  0242                     u1411:
  1254  0242  2A30               	goto	l1513
  1255  0243                     u1410:
  1256  0243  2A5F               	goto	l684
  1257  0244                     l1517:
  1258  0244  3001               	movlw	1
  1259  0245  00A0               	movwf	??___xxtofl
  1260  0246  0820               	movf	??___xxtofl,w
  1261  0247  07A5               	addwf	___xxtofl@exp,f
  1262  0248                     l1519:
  1263  0248  3001               	movlw	1
  1264  0249  07A6               	addwf	___xxtofl@arg,f
  1265  024A  3000               	movlw	0
  1266  024B  1803               	skipnc
  1267  024C  3001               	movlw	1
  1268  024D  07A7               	addwf	___xxtofl@arg+1,f
  1269  024E  3000               	movlw	0
  1270  024F  1803               	skipnc
  1271  0250  3001               	movlw	1
  1272  0251  07A8               	addwf	___xxtofl@arg+2,f
  1273  0252  3000               	movlw	0
  1274  0253  1803               	skipnc
  1275  0254  3001               	movlw	1
  1276  0255  07A9               	addwf	___xxtofl@arg+3,f
  1277  0256                     l1521:
  1278  0256  3001               	movlw	1
  1279  0257                     u1425:
  1280  0257  1003               	clrc
  1281  0258  0CA9               	rrf	___xxtofl@arg+3,f
  1282  0259  0CA8               	rrf	___xxtofl@arg+2,f
  1283  025A  0CA7               	rrf	___xxtofl@arg+1,f
  1284  025B  0CA6               	rrf	___xxtofl@arg,f
  1285  025C  3EFF               	addlw	-1
  1286  025D  1D03               	skipz
  1287  025E  2A57               	goto	u1425
  1288  025F                     l684:
  1289  025F  30FF               	movlw	255
  1290  0260  0529               	andwf	___xxtofl@arg+3,w
  1291  0261  1D03               	btfss	3,2
  1292  0262  2A64               	goto	u1431
  1293  0263  2A65               	goto	u1430
  1294  0264                     u1431:
  1295  0264  2A44               	goto	l1517
  1296  0265                     u1430:
  1297  0265  2A71               	goto	l1525
  1298  0266                     l1523:
  1299  0266  3001               	movlw	1
  1300  0267  02A5               	subwf	___xxtofl@exp,f
  1301  0268  3001               	movlw	1
  1302  0269  00A0               	movwf	??___xxtofl
  1303  026A                     u1445:
  1304  026A  1003               	clrc
  1305  026B  0DA6               	rlf	___xxtofl@arg,f
  1306  026C  0DA7               	rlf	___xxtofl@arg+1,f
  1307  026D  0DA8               	rlf	___xxtofl@arg+2,f
  1308  026E  0DA9               	rlf	___xxtofl@arg+3,f
  1309  026F  0BA0               	decfsz	??___xxtofl,f
  1310  0270  2A6A               	goto	u1445
  1311  0271                     l1525:
  1312  0271  1BA8               	btfsc	___xxtofl@arg+2,7
  1313  0272  2A74               	goto	u1451
  1314  0273  2A75               	goto	u1450
  1315  0274                     u1451:
  1316  0274  2A7B               	goto	l691
  1317  0275                     u1450:
  1318  0275                     l1527:
  1319  0275  3002               	movlw	2
  1320  0276  0225               	subwf	___xxtofl@exp,w
  1321  0277  1803               	skipnc
  1322  0278  2A7A               	goto	u1461
  1323  0279  2A7B               	goto	u1460
  1324  027A                     u1461:
  1325  027A  2A66               	goto	l1523
  1326  027B                     u1460:
  1327  027B                     l691:
  1328  027B  1825               	btfsc	___xxtofl@exp,0
  1329  027C  2A7E               	goto	u1471
  1330  027D  2A7F               	goto	u1470
  1331  027E                     u1471:
  1332  027E  2A87               	goto	l692
  1333  027F                     u1470:
  1334  027F                     l1529:
  1335  027F  30FF               	movlw	255
  1336  0280  05A6               	andwf	___xxtofl@arg,f
  1337  0281  30FF               	movlw	255
  1338  0282  05A7               	andwf	___xxtofl@arg+1,f
  1339  0283  307F               	movlw	127
  1340  0284  05A8               	andwf	___xxtofl@arg+2,f
  1341  0285  30FF               	movlw	255
  1342  0286  05A9               	andwf	___xxtofl@arg+3,f
  1343  0287                     l692:
  1344  0287  1003               	clrc
  1345  0288  0CA5               	rrf	___xxtofl@exp,f
  1346  0289                     l1531:
  1347  0289  0825               	movf	___xxtofl@exp,w
  1348  028A  00A0               	movwf	??___xxtofl
  1349  028B  01A1               	clrf	??___xxtofl+1
  1350  028C  01A2               	clrf	??___xxtofl+2
  1351  028D  01A3               	clrf	??___xxtofl+3
  1352  028E  3018               	movlw	24
  1353  028F                     u1485:
  1354  028F  1003               	clrc
  1355  0290  0DA0               	rlf	??___xxtofl,f
  1356  0291  0DA1               	rlf	??___xxtofl+1,f
  1357  0292  0DA2               	rlf	??___xxtofl+2,f
  1358  0293  0DA3               	rlf	??___xxtofl+3,f
  1359  0294                     u1480:
  1360  0294  3EFF               	addlw	-1
  1361  0295  1D03               	skipz
  1362  0296  2A8F               	goto	u1485
  1363  0297  0820               	movf	??___xxtofl,w
  1364  0298  04A6               	iorwf	___xxtofl@arg,f
  1365  0299  0821               	movf	??___xxtofl+1,w
  1366  029A  04A7               	iorwf	___xxtofl@arg+1,f
  1367  029B  0822               	movf	??___xxtofl+2,w
  1368  029C  04A8               	iorwf	___xxtofl@arg+2,f
  1369  029D  0823               	movf	??___xxtofl+3,w
  1370  029E  04A9               	iorwf	___xxtofl@arg+3,f
  1371  029F                     l1533:
  1372  029F  0824               	movf	___xxtofl@sign,w
  1373  02A0  1903               	btfsc	3,2
  1374  02A1  2AA3               	goto	u1491
  1375  02A2  2AA4               	goto	u1490
  1376  02A3                     u1491:
  1377  02A3  2AA9               	goto	l1539
  1378  02A4                     u1490:
  1379  02A4                     l1535:
  1380  02A4  1FF6               	btfss	___xxtofl@val+3,7
  1381  02A5  2AA7               	goto	u1501
  1382  02A6  2AA8               	goto	u1500
  1383  02A7                     u1501:
  1384  02A7  2AA9               	goto	l1539
  1385  02A8                     u1500:
  1386  02A8                     l1537:
  1387  02A8  17A9               	bsf	___xxtofl@arg+3,7
  1388  02A9                     l1539:
  1389  02A9  0829               	movf	___xxtofl@arg+3,w
  1390  02AA  00F6               	movwf	?___xxtofl+3
  1391  02AB  0828               	movf	___xxtofl@arg+2,w
  1392  02AC  00F5               	movwf	?___xxtofl+2
  1393  02AD  0827               	movf	___xxtofl@arg+1,w
  1394  02AE  00F4               	movwf	?___xxtofl+1
  1395  02AF  0826               	movf	___xxtofl@arg,w
  1396  02B0  00F3               	movwf	?___xxtofl
  1397  02B1                     l680:
  1398  02B1  0008               	return
  1399  02B2                     __end_of___xxtofl:
  1400                           
  1401                           	psect	text5
  1402  02B2                     __ptext5:	
  1403 ;; *************** function ___fltol *****************
  1404 ;; Defined at:
  1405 ;;		line 43 in file "C:\Program Files\Microchip\xc8\v2.31\pic\sources\c90\common\fltol.c"
  1406 ;; Parameters:    Size  Location     Type
  1407 ;;  f1              4   36[BANK0 ] unsigned char 
  1408 ;; Auto vars:     Size  Location     Type
  1409 ;;  exp1            1   46[BANK0 ] unsigned char 
  1410 ;;  sign1           1   45[BANK0 ] unsigned char 
  1411 ;; Return value:  Size  Location     Type
  1412 ;;                  4   36[BANK0 ] long 
  1413 ;; Registers used:
  1414 ;;		wreg, status,2, status,0
  1415 ;; Tracked objects:
  1416 ;;		On entry : 0/0
  1417 ;;		On exit  : 0/0
  1418 ;;		Unchanged: 0/0
  1419 ;; Data sizes:     COMMON   BANK0   BANK1   BANK3   BANK2
  1420 ;;      Params:         0       4       0       0       0
  1421 ;;      Locals:         0       2       0       0       0
  1422 ;;      Temps:          0       5       0       0       0
  1423 ;;      Totals:         0      11       0       0       0
  1424 ;;Total ram usage:       11 bytes
  1425 ;; Hardware stack levels used:    1
  1426 ;; Hardware stack levels required when called:    1
  1427 ;; This function calls:
  1428 ;;		Nothing
  1429 ;; This function is called by:
  1430 ;;		_C_distancia
  1431 ;; This function uses a non-reentrant model
  1432 ;;
  1433                           
  1434                           
  1435                           ;psect for function ___fltol
  1436  02B2                     ___fltol:
  1437  02B2                     l1161:	
  1438                           ;incstack = 0
  1439                           ; Regs used in ___fltol: [wreg+status,2+status,0]
  1440                           
  1441  02B2  1003               	clrc
  1442  02B3  1283               	bcf	3,5	;RP0=0, select bank0
  1443  02B4  1303               	bcf	3,6	;RP1=0, select bank0
  1444  02B5  0D46               	rlf	___fltol@f1+2,w
  1445  02B6  0D47               	rlf	___fltol@f1+3,w
  1446  02B7  00C8               	movwf	??___fltol
  1447  02B8  0848               	movf	??___fltol,w
  1448  02B9  00CE               	movwf	___fltol@exp1
  1449  02BA  084E               	movf	___fltol@exp1,w
  1450  02BB  1D03               	btfss	3,2
  1451  02BC  2ABE               	goto	u711
  1452  02BD  2ABF               	goto	u710
  1453  02BE                     u711:
  1454  02BE  2AC8               	goto	l1167
  1455  02BF                     u710:
  1456  02BF                     l1163:
  1457  02BF  3000               	movlw	0
  1458  02C0  00C7               	movwf	?___fltol+3
  1459  02C1  3000               	movlw	0
  1460  02C2  00C6               	movwf	?___fltol+2
  1461  02C3  3000               	movlw	0
  1462  02C4  00C5               	movwf	?___fltol+1
  1463  02C5  3000               	movlw	0
  1464  02C6  00C4               	movwf	?___fltol
  1465  02C7  2B2D               	goto	l431
  1466  02C8                     l1167:
  1467  02C8  0844               	movf	___fltol@f1,w
  1468  02C9  00C8               	movwf	??___fltol
  1469  02CA  0845               	movf	___fltol@f1+1,w
  1470  02CB  00C9               	movwf	??___fltol+1
  1471  02CC  0846               	movf	___fltol@f1+2,w
  1472  02CD  00CA               	movwf	??___fltol+2
  1473  02CE  0847               	movf	___fltol@f1+3,w
  1474  02CF  00CB               	movwf	??___fltol+3
  1475  02D0  301F               	movlw	31
  1476  02D1                     u725:
  1477  02D1  1003               	clrc
  1478  02D2  0CCB               	rrf	??___fltol+3,f
  1479  02D3  0CCA               	rrf	??___fltol+2,f
  1480  02D4  0CC9               	rrf	??___fltol+1,f
  1481  02D5  0CC8               	rrf	??___fltol,f
  1482  02D6                     u720:
  1483  02D6  3EFF               	addlw	-1
  1484  02D7  1D03               	skipz
  1485  02D8  2AD1               	goto	u725
  1486  02D9  0848               	movf	??___fltol,w
  1487  02DA  00CC               	movwf	??___fltol+4
  1488  02DB  084C               	movf	??___fltol+4,w
  1489  02DC  00CD               	movwf	___fltol@sign1
  1490  02DD                     l1169:
  1491  02DD  17C6               	bsf	___fltol@f1+2,7
  1492  02DE                     l1171:
  1493  02DE  30FF               	movlw	255
  1494  02DF  05C4               	andwf	___fltol@f1,f
  1495  02E0  30FF               	movlw	255
  1496  02E1  05C5               	andwf	___fltol@f1+1,f
  1497  02E2  30FF               	movlw	255
  1498  02E3  05C6               	andwf	___fltol@f1+2,f
  1499  02E4  3000               	movlw	0
  1500  02E5  05C7               	andwf	___fltol@f1+3,f
  1501  02E6                     l1173:
  1502  02E6  3096               	movlw	150
  1503  02E7  02CE               	subwf	___fltol@exp1,f
  1504  02E8                     l1175:
  1505  02E8  1FCE               	btfss	___fltol@exp1,7
  1506  02E9  2AEB               	goto	u731
  1507  02EA  2AEC               	goto	u730
  1508  02EB                     u731:
  1509  02EB  2B06               	goto	l1185
  1510  02EC                     u730:
  1511  02EC                     l1177:
  1512  02EC  084E               	movf	___fltol@exp1,w
  1513  02ED  3A80               	xorlw	128
  1514  02EE  3E97               	addlw	151
  1515  02EF  1803               	skipnc
  1516  02F0  2AF2               	goto	u741
  1517  02F1  2AF3               	goto	u740
  1518  02F2                     u741:
  1519  02F2  2AF4               	goto	l1183
  1520  02F3                     u740:
  1521  02F3  2ABF               	goto	l1163
  1522  02F4                     l1183:
  1523  02F4  3001               	movlw	1
  1524  02F5                     u755:
  1525  02F5  1003               	clrc
  1526  02F6  0CC7               	rrf	___fltol@f1+3,f
  1527  02F7  0CC6               	rrf	___fltol@f1+2,f
  1528  02F8  0CC5               	rrf	___fltol@f1+1,f
  1529  02F9  0CC4               	rrf	___fltol@f1,f
  1530  02FA  3EFF               	addlw	-1
  1531  02FB  1D03               	skipz
  1532  02FC  2AF5               	goto	u755
  1533  02FD  3001               	movlw	1
  1534  02FE  00C8               	movwf	??___fltol
  1535  02FF  0848               	movf	??___fltol,w
  1536  0300  07CE               	addwf	___fltol@exp1,f
  1537  0301  1D03               	btfss	3,2
  1538  0302  2B04               	goto	u761
  1539  0303  2B05               	goto	u760
  1540  0304                     u761:
  1541  0304  2AF4               	goto	l1183
  1542  0305                     u760:
  1543  0305  2B1D               	goto	l1193
  1544  0306                     l1185:
  1545  0306  3020               	movlw	32
  1546  0307  024E               	subwf	___fltol@exp1,w
  1547  0308  1C03               	skipc
  1548  0309  2B0B               	goto	u771
  1549  030A  2B0C               	goto	u770
  1550  030B                     u771:
  1551  030B  2B18               	goto	l438
  1552  030C                     u770:
  1553  030C  2ABF               	goto	l1163
  1554  030D                     l1191:
  1555  030D  3001               	movlw	1
  1556  030E  00C8               	movwf	??___fltol
  1557  030F                     u785:
  1558  030F  1003               	clrc
  1559  0310  0DC4               	rlf	___fltol@f1,f
  1560  0311  0DC5               	rlf	___fltol@f1+1,f
  1561  0312  0DC6               	rlf	___fltol@f1+2,f
  1562  0313  0DC7               	rlf	___fltol@f1+3,f
  1563  0314  0BC8               	decfsz	??___fltol,f
  1564  0315  2B0F               	goto	u785
  1565  0316  3001               	movlw	1
  1566  0317  02CE               	subwf	___fltol@exp1,f
  1567  0318                     l438:
  1568  0318  084E               	movf	___fltol@exp1,w
  1569  0319  1D03               	btfss	3,2
  1570  031A  2B1C               	goto	u791
  1571  031B  2B1D               	goto	u790
  1572  031C                     u791:
  1573  031C  2B0D               	goto	l1191
  1574  031D                     u790:
  1575  031D                     l1193:
  1576  031D  084D               	movf	___fltol@sign1,w
  1577  031E  1903               	btfsc	3,2
  1578  031F  2B21               	goto	u801
  1579  0320  2B22               	goto	u800
  1580  0321                     u801:
  1581  0321  2B2D               	goto	l441
  1582  0322                     u800:
  1583  0322                     l1195:
  1584  0322  09C4               	comf	___fltol@f1,f
  1585  0323  09C5               	comf	___fltol@f1+1,f
  1586  0324  09C6               	comf	___fltol@f1+2,f
  1587  0325  09C7               	comf	___fltol@f1+3,f
  1588  0326  0AC4               	incf	___fltol@f1,f
  1589  0327  1903               	skipnz
  1590  0328  0AC5               	incf	___fltol@f1+1,f
  1591  0329  1903               	skipnz
  1592  032A  0AC6               	incf	___fltol@f1+2,f
  1593  032B  1903               	skipnz
  1594  032C  0AC7               	incf	___fltol@f1+3,f
  1595  032D                     l441:
  1596  032D                     l431:
  1597  032D  0008               	return
  1598  032E                     __end_of___fltol:
  1599                           
  1600                           	psect	text6
  1601  0019                     __ptext6:	
  1602 ;; *************** function ___fldiv *****************
  1603 ;; Defined at:
  1604 ;;		line 8 in file "C:\Program Files\Microchip\xc8\v2.31\pic\sources\c90\common\sprcdiv.c"
  1605 ;; Parameters:    Size  Location     Type
  1606 ;;  a               4   10[BANK0 ] long 
  1607 ;;  b               4   14[BANK0 ] long 
  1608 ;; Auto vars:     Size  Location     Type
  1609 ;;  grs             4   30[BANK0 ] unsigned long 
  1610 ;;  rem             4   23[BANK0 ] unsigned long 
  1611 ;;  new_exp         2   28[BANK0 ] int 
  1612 ;;  aexp            1   35[BANK0 ] unsigned char 
  1613 ;;  bexp            1   34[BANK0 ] unsigned char 
  1614 ;;  sign            1   27[BANK0 ] unsigned char 
  1615 ;; Return value:  Size  Location     Type
  1616 ;;                  4   10[BANK0 ] unsigned char 
  1617 ;; Registers used:
  1618 ;;		wreg, status,2, status,0, btemp+1
  1619 ;; Tracked objects:
  1620 ;;		On entry : 0/0
  1621 ;;		On exit  : 0/0
  1622 ;;		Unchanged: 0/0
  1623 ;; Data sizes:     COMMON   BANK0   BANK1   BANK3   BANK2
  1624 ;;      Params:         0       8       0       0       0
  1625 ;;      Locals:         0      13       0       0       0
  1626 ;;      Temps:          0       5       0       0       0
  1627 ;;      Totals:         0      26       0       0       0
  1628 ;;Total ram usage:       26 bytes
  1629 ;; Hardware stack levels used:    1
  1630 ;; Hardware stack levels required when called:    1
  1631 ;; This function calls:
  1632 ;;		Nothing
  1633 ;; This function is called by:
  1634 ;;		_C_distancia
  1635 ;; This function uses a non-reentrant model
  1636 ;;
  1637                           
  1638                           
  1639                           ;psect for function ___fldiv
  1640  0019                     ___fldiv:
  1641  0019                     l1197:	
  1642                           ;incstack = 0
  1643                           ; Regs used in ___fldiv: [wreg+status,2+status,0+btemp+1]
  1644                           
  1645  0019  1283               	bcf	3,5	;RP0=0, select bank0
  1646  001A  1303               	bcf	3,6	;RP1=0, select bank0
  1647  001B  0831               	movf	___fldiv@b+3,w
  1648  001C  3980               	andlw	128
  1649  001D  00B2               	movwf	??___fldiv
  1650  001E  0832               	movf	??___fldiv,w
  1651  001F  00BB               	movwf	___fldiv@sign
  1652  0020                     l1199:
  1653  0020  0831               	movf	___fldiv@b+3,w
  1654  0021  00B2               	movwf	??___fldiv
  1655  0022  0732               	addwf	??___fldiv,w
  1656  0023  00B3               	movwf	??___fldiv+1
  1657  0024  0833               	movf	??___fldiv+1,w
  1658  0025  00C2               	movwf	___fldiv@bexp
  1659  0026                     l1201:
  1660  0026  1FB0               	btfss	___fldiv@b+2,7
  1661  0027  2829               	goto	u811
  1662  0028  282A               	goto	u810
  1663  0029                     u811:
  1664  0029  282B               	goto	l1205
  1665  002A                     u810:
  1666  002A                     l1203:
  1667  002A  1442               	bsf	___fldiv@bexp,0
  1668  002B                     l1205:
  1669  002B  0842               	movf	___fldiv@bexp,w
  1670  002C  1903               	btfsc	3,2
  1671  002D  282F               	goto	u821
  1672  002E  2830               	goto	u820
  1673  002F                     u821:
  1674  002F  2840               	goto	l1215
  1675  0030                     u820:
  1676  0030                     l1207:
  1677  0030  0A42               	incf	___fldiv@bexp,w
  1678  0031  1D03               	btfss	3,2
  1679  0032  2834               	goto	u831
  1680  0033  2835               	goto	u830
  1681  0034                     u831:
  1682  0034  283D               	goto	l1211
  1683  0035                     u830:
  1684  0035                     l1209:
  1685  0035  3000               	movlw	0
  1686  0036  00B1               	movwf	___fldiv@b+3
  1687  0037  3000               	movlw	0
  1688  0038  00B0               	movwf	___fldiv@b+2
  1689  0039  3000               	movlw	0
  1690  003A  00AF               	movwf	___fldiv@b+1
  1691  003B  3000               	movlw	0
  1692  003C  00AE               	movwf	___fldiv@b
  1693  003D                     l1211:
  1694  003D  17B0               	bsf	___fldiv@b+2,7
  1695  003E                     l1213:
  1696  003E  01B1               	clrf	___fldiv@b+3
  1697  003F  2848               	goto	l1217
  1698  0040                     l1215:
  1699  0040  3000               	movlw	0
  1700  0041  00B1               	movwf	___fldiv@b+3
  1701  0042  3000               	movlw	0
  1702  0043  00B0               	movwf	___fldiv@b+2
  1703  0044  3000               	movlw	0
  1704  0045  00AF               	movwf	___fldiv@b+1
  1705  0046  3000               	movlw	0
  1706  0047  00AE               	movwf	___fldiv@b
  1707  0048                     l1217:
  1708  0048  082D               	movf	___fldiv@a+3,w
  1709  0049  3980               	andlw	128
  1710  004A  00B2               	movwf	??___fldiv
  1711  004B  0832               	movf	??___fldiv,w
  1712  004C  06BB               	xorwf	___fldiv@sign,f
  1713  004D                     l1219:
  1714  004D  082D               	movf	___fldiv@a+3,w
  1715  004E  00B2               	movwf	??___fldiv
  1716  004F  0732               	addwf	??___fldiv,w
  1717  0050  00B3               	movwf	??___fldiv+1
  1718  0051  0833               	movf	??___fldiv+1,w
  1719  0052  00C3               	movwf	___fldiv@aexp
  1720  0053                     l1221:
  1721  0053  1FAC               	btfss	___fldiv@a+2,7
  1722  0054  2856               	goto	u841
  1723  0055  2857               	goto	u840
  1724  0056                     u841:
  1725  0056  2858               	goto	l1225
  1726  0057                     u840:
  1727  0057                     l1223:
  1728  0057  1443               	bsf	___fldiv@aexp,0
  1729  0058                     l1225:
  1730  0058  0843               	movf	___fldiv@aexp,w
  1731  0059  1903               	btfsc	3,2
  1732  005A  285C               	goto	u851
  1733  005B  285D               	goto	u850
  1734  005C                     u851:
  1735  005C  286D               	goto	l1235
  1736  005D                     u850:
  1737  005D                     l1227:
  1738  005D  0A43               	incf	___fldiv@aexp,w
  1739  005E  1D03               	btfss	3,2
  1740  005F  2861               	goto	u861
  1741  0060  2862               	goto	u860
  1742  0061                     u861:
  1743  0061  286A               	goto	l1231
  1744  0062                     u860:
  1745  0062                     l1229:
  1746  0062  3000               	movlw	0
  1747  0063  00AD               	movwf	___fldiv@a+3
  1748  0064  3000               	movlw	0
  1749  0065  00AC               	movwf	___fldiv@a+2
  1750  0066  3000               	movlw	0
  1751  0067  00AB               	movwf	___fldiv@a+1
  1752  0068  3000               	movlw	0
  1753  0069  00AA               	movwf	___fldiv@a
  1754  006A                     l1231:
  1755  006A  17AC               	bsf	___fldiv@a+2,7
  1756  006B                     l1233:
  1757  006B  01AD               	clrf	___fldiv@a+3
  1758  006C  2875               	goto	l594
  1759  006D                     l1235:
  1760  006D  3000               	movlw	0
  1761  006E  00AD               	movwf	___fldiv@a+3
  1762  006F  3000               	movlw	0
  1763  0070  00AC               	movwf	___fldiv@a+2
  1764  0071  3000               	movlw	0
  1765  0072  00AB               	movwf	___fldiv@a+1
  1766  0073  3000               	movlw	0
  1767  0074  00AA               	movwf	___fldiv@a
  1768  0075                     l594:
  1769  0075  082D               	movf	___fldiv@a+3,w
  1770  0076  042C               	iorwf	___fldiv@a+2,w
  1771  0077  042B               	iorwf	___fldiv@a+1,w
  1772  0078  042A               	iorwf	___fldiv@a,w
  1773  0079  1D03               	skipz
  1774  007A  287C               	goto	u871
  1775  007B  287D               	goto	u870
  1776  007C                     u871:
  1777  007C  2896               	goto	l1245
  1778  007D                     u870:
  1779  007D                     l1237:
  1780  007D  3000               	movlw	0
  1781  007E  00B1               	movwf	___fldiv@b+3
  1782  007F  3000               	movlw	0
  1783  0080  00B0               	movwf	___fldiv@b+2
  1784  0081  3000               	movlw	0
  1785  0082  00AF               	movwf	___fldiv@b+1
  1786  0083  3000               	movlw	0
  1787  0084  00AE               	movwf	___fldiv@b
  1788  0085  3080               	movlw	128
  1789  0086  04B0               	iorwf	___fldiv@b+2,f
  1790  0087  307F               	movlw	127
  1791  0088  04B1               	iorwf	___fldiv@b+3,f
  1792  0089                     l1239:
  1793  0089  083B               	movf	___fldiv@sign,w
  1794  008A  00B2               	movwf	??___fldiv
  1795  008B  0832               	movf	??___fldiv,w
  1796  008C  04B1               	iorwf	___fldiv@b+3,f
  1797  008D                     l1241:
  1798  008D  0831               	movf	___fldiv@b+3,w
  1799  008E  00AD               	movwf	?___fldiv+3
  1800  008F  0830               	movf	___fldiv@b+2,w
  1801  0090  00AC               	movwf	?___fldiv+2
  1802  0091  082F               	movf	___fldiv@b+1,w
  1803  0092  00AB               	movwf	?___fldiv+1
  1804  0093  082E               	movf	___fldiv@b,w
  1805  0094  00AA               	movwf	?___fldiv
  1806  0095  29F5               	goto	l596
  1807  0096                     l1245:
  1808  0096  0842               	movf	___fldiv@bexp,w
  1809  0097  1D03               	btfss	3,2
  1810  0098  289A               	goto	u881
  1811  0099  289B               	goto	u880
  1812  009A                     u881:
  1813  009A  28A4               	goto	l1251
  1814  009B                     u880:
  1815  009B                     l1247:
  1816  009B  3000               	movlw	0
  1817  009C  00AD               	movwf	?___fldiv+3
  1818  009D  3000               	movlw	0
  1819  009E  00AC               	movwf	?___fldiv+2
  1820  009F  3000               	movlw	0
  1821  00A0  00AB               	movwf	?___fldiv+1
  1822  00A1  3000               	movlw	0
  1823  00A2  00AA               	movwf	?___fldiv
  1824  00A3  29F5               	goto	l596
  1825  00A4                     l1251:
  1826  00A4  0842               	movf	___fldiv@bexp,w
  1827  00A5  00B2               	movwf	??___fldiv
  1828  00A6  01B3               	clrf	??___fldiv+1
  1829  00A7  0833               	movf	??___fldiv+1,w
  1830  00A8  00B5               	movwf	??___fldiv+3
  1831  00A9  0843               	movf	___fldiv@aexp,w
  1832  00AA  0232               	subwf	??___fldiv,w
  1833  00AB  00B4               	movwf	??___fldiv+2
  1834  00AC  1C03               	skipc
  1835  00AD  03B5               	decf	??___fldiv+3,f
  1836  00AE  0834               	movf	??___fldiv+2,w
  1837  00AF  3E7F               	addlw	127
  1838  00B0  00BC               	movwf	___fldiv@new_exp
  1839  00B1  0835               	movf	??___fldiv+3,w
  1840  00B2  1803               	skipnc
  1841  00B3  3E01               	addlw	1
  1842  00B4  3E00               	addlw	0
  1843  00B5  00BD               	movwf	___fldiv@new_exp+1
  1844  00B6                     l1253:
  1845  00B6  0831               	movf	___fldiv@b+3,w
  1846  00B7  00BA               	movwf	___fldiv@rem+3
  1847  00B8  0830               	movf	___fldiv@b+2,w
  1848  00B9  00B9               	movwf	___fldiv@rem+2
  1849  00BA  082F               	movf	___fldiv@b+1,w
  1850  00BB  00B8               	movwf	___fldiv@rem+1
  1851  00BC  082E               	movf	___fldiv@b,w
  1852  00BD  00B7               	movwf	___fldiv@rem
  1853  00BE                     l1255:
  1854  00BE  3000               	movlw	0
  1855  00BF  00B1               	movwf	___fldiv@b+3
  1856  00C0  3000               	movlw	0
  1857  00C1  00B0               	movwf	___fldiv@b+2
  1858  00C2  3000               	movlw	0
  1859  00C3  00AF               	movwf	___fldiv@b+1
  1860  00C4  3000               	movlw	0
  1861  00C5  00AE               	movwf	___fldiv@b
  1862  00C6                     l1257:
  1863  00C6  3000               	movlw	0
  1864  00C7  00C1               	movwf	___fldiv@grs+3
  1865  00C8  3000               	movlw	0
  1866  00C9  00C0               	movwf	___fldiv@grs+2
  1867  00CA  3000               	movlw	0
  1868  00CB  00BF               	movwf	___fldiv@grs+1
  1869  00CC  3000               	movlw	0
  1870  00CD  00BE               	movwf	___fldiv@grs
  1871  00CE                     l1259:
  1872  00CE  01C3               	clrf	___fldiv@aexp
  1873  00CF  291A               	goto	l1279
  1874  00D0                     l1261:
  1875  00D0  0843               	movf	___fldiv@aexp,w
  1876  00D1  1903               	btfsc	3,2
  1877  00D2  28D4               	goto	u891
  1878  00D3  28D5               	goto	u890
  1879  00D4                     u891:
  1880  00D4  28F5               	goto	l1271
  1881  00D5                     u890:
  1882  00D5                     l1263:
  1883  00D5  3001               	movlw	1
  1884  00D6  00B2               	movwf	??___fldiv
  1885  00D7                     u905:
  1886  00D7  1003               	clrc
  1887  00D8  0DB7               	rlf	___fldiv@rem,f
  1888  00D9  0DB8               	rlf	___fldiv@rem+1,f
  1889  00DA  0DB9               	rlf	___fldiv@rem+2,f
  1890  00DB  0DBA               	rlf	___fldiv@rem+3,f
  1891  00DC  0BB2               	decfsz	??___fldiv,f
  1892  00DD  28D7               	goto	u905
  1893  00DE  3001               	movlw	1
  1894  00DF  00B2               	movwf	??___fldiv
  1895  00E0                     u915:
  1896  00E0  1003               	clrc
  1897  00E1  0DAE               	rlf	___fldiv@b,f
  1898  00E2  0DAF               	rlf	___fldiv@b+1,f
  1899  00E3  0DB0               	rlf	___fldiv@b+2,f
  1900  00E4  0DB1               	rlf	___fldiv@b+3,f
  1901  00E5  0BB2               	decfsz	??___fldiv,f
  1902  00E6  28E0               	goto	u915
  1903  00E7                     l1265:
  1904  00E7  1FC1               	btfss	___fldiv@grs+3,7
  1905  00E8  28EA               	goto	u921
  1906  00E9  28EB               	goto	u920
  1907  00EA                     u921:
  1908  00EA  28EC               	goto	l1269
  1909  00EB                     u920:
  1910  00EB                     l1267:
  1911  00EB  142E               	bsf	___fldiv@b,0
  1912  00EC                     l1269:
  1913  00EC  3001               	movlw	1
  1914  00ED  00B2               	movwf	??___fldiv
  1915  00EE                     u935:
  1916  00EE  1003               	clrc
  1917  00EF  0DBE               	rlf	___fldiv@grs,f
  1918  00F0  0DBF               	rlf	___fldiv@grs+1,f
  1919  00F1  0DC0               	rlf	___fldiv@grs+2,f
  1920  00F2  0DC1               	rlf	___fldiv@grs+3,f
  1921  00F3  0BB2               	decfsz	??___fldiv,f
  1922  00F4  28EE               	goto	u935
  1923  00F5                     l1271:
  1924  00F5  082D               	movf	___fldiv@a+3,w
  1925  00F6  023A               	subwf	___fldiv@rem+3,w
  1926  00F7  1D03               	skipz
  1927  00F8  2903               	goto	u945
  1928  00F9  082C               	movf	___fldiv@a+2,w
  1929  00FA  0239               	subwf	___fldiv@rem+2,w
  1930  00FB  1D03               	skipz
  1931  00FC  2903               	goto	u945
  1932  00FD  082B               	movf	___fldiv@a+1,w
  1933  00FE  0238               	subwf	___fldiv@rem+1,w
  1934  00FF  1D03               	skipz
  1935  0100  2903               	goto	u945
  1936  0101  082A               	movf	___fldiv@a,w
  1937  0102  0237               	subwf	___fldiv@rem,w
  1938  0103                     u945:
  1939  0103  1C03               	skipc
  1940  0104  2906               	goto	u941
  1941  0105  2907               	goto	u940
  1942  0106                     u941:
  1943  0106  2916               	goto	l1277
  1944  0107                     u940:
  1945  0107                     l1273:
  1946  0107  1741               	bsf	___fldiv@grs+3,6
  1947  0108                     l1275:
  1948  0108  082A               	movf	___fldiv@a,w
  1949  0109  02B7               	subwf	___fldiv@rem,f
  1950  010A  082B               	movf	___fldiv@a+1,w
  1951  010B  1C03               	skipc
  1952  010C  0F2B               	incfsz	___fldiv@a+1,w
  1953  010D  02B8               	subwf	___fldiv@rem+1,f
  1954  010E  082C               	movf	___fldiv@a+2,w
  1955  010F  1C03               	skipc
  1956  0110  0F2C               	incfsz	___fldiv@a+2,w
  1957  0111  02B9               	subwf	___fldiv@rem+2,f
  1958  0112  082D               	movf	___fldiv@a+3,w
  1959  0113  1C03               	skipc
  1960  0114  0F2D               	incfsz	___fldiv@a+3,w
  1961  0115  02BA               	subwf	___fldiv@rem+3,f
  1962  0116                     l1277:
  1963  0116  3001               	movlw	1
  1964  0117  00B2               	movwf	??___fldiv
  1965  0118  0832               	movf	??___fldiv,w
  1966  0119  07C3               	addwf	___fldiv@aexp,f
  1967  011A                     l1279:
  1968  011A  301A               	movlw	26
  1969  011B  0243               	subwf	___fldiv@aexp,w
  1970  011C  1C03               	skipc
  1971  011D  291F               	goto	u951
  1972  011E  2920               	goto	u950
  1973  011F                     u951:
  1974  011F  28D0               	goto	l1261
  1975  0120                     u950:
  1976  0120                     l1281:
  1977  0120  083A               	movf	___fldiv@rem+3,w
  1978  0121  0439               	iorwf	___fldiv@rem+2,w
  1979  0122  0438               	iorwf	___fldiv@rem+1,w
  1980  0123  0437               	iorwf	___fldiv@rem,w
  1981  0124  1903               	skipnz
  1982  0125  2927               	goto	u961
  1983  0126  2928               	goto	u960
  1984  0127                     u961:
  1985  0127  2947               	goto	l1295
  1986  0128                     u960:
  1987  0128                     l1283:
  1988  0128  143E               	bsf	___fldiv@grs,0
  1989  0129  2947               	goto	l1295
  1990  012A                     l1285:
  1991  012A  3001               	movlw	1
  1992  012B  00B2               	movwf	??___fldiv
  1993  012C                     u975:
  1994  012C  1003               	clrc
  1995  012D  0DAE               	rlf	___fldiv@b,f
  1996  012E  0DAF               	rlf	___fldiv@b+1,f
  1997  012F  0DB0               	rlf	___fldiv@b+2,f
  1998  0130  0DB1               	rlf	___fldiv@b+3,f
  1999  0131  0BB2               	decfsz	??___fldiv,f
  2000  0132  292C               	goto	u975
  2001  0133                     l1287:
  2002  0133  1FC1               	btfss	___fldiv@grs+3,7
  2003  0134  2936               	goto	u981
  2004  0135  2937               	goto	u980
  2005  0136                     u981:
  2006  0136  2938               	goto	l1291
  2007  0137                     u980:
  2008  0137                     l1289:
  2009  0137  142E               	bsf	___fldiv@b,0
  2010  0138                     l1291:
  2011  0138  3001               	movlw	1
  2012  0139  00B2               	movwf	??___fldiv
  2013  013A                     u995:
  2014  013A  1003               	clrc
  2015  013B  0DBE               	rlf	___fldiv@grs,f
  2016  013C  0DBF               	rlf	___fldiv@grs+1,f
  2017  013D  0DC0               	rlf	___fldiv@grs+2,f
  2018  013E  0DC1               	rlf	___fldiv@grs+3,f
  2019  013F  0BB2               	decfsz	??___fldiv,f
  2020  0140  293A               	goto	u995
  2021  0141                     l1293:
  2022  0141  30FF               	movlw	255
  2023  0142  07BC               	addwf	___fldiv@new_exp,f
  2024  0143  1803               	skipnc
  2025  0144  0ABD               	incf	___fldiv@new_exp+1,f
  2026  0145  30FF               	movlw	255
  2027  0146  07BD               	addwf	___fldiv@new_exp+1,f
  2028  0147                     l1295:
  2029  0147  1FB0               	btfss	___fldiv@b+2,7
  2030  0148  294A               	goto	u1001
  2031  0149  294B               	goto	u1000
  2032  014A                     u1001:
  2033  014A  292A               	goto	l1285
  2034  014B                     u1000:
  2035  014B                     l1297:
  2036  014B  01C3               	clrf	___fldiv@aexp
  2037  014C                     l1299:
  2038  014C  1FC1               	btfss	___fldiv@grs+3,7
  2039  014D  294F               	goto	u1011
  2040  014E  2950               	goto	u1010
  2041  014F                     u1011:
  2042  014F  296C               	goto	l1307
  2043  0150                     u1010:
  2044  0150                     l1301:
  2045  0150  30FF               	movlw	255
  2046  0151  053E               	andwf	___fldiv@grs,w
  2047  0152  00B2               	movwf	??___fldiv
  2048  0153  30FF               	movlw	255
  2049  0154  053F               	andwf	___fldiv@grs+1,w
  2050  0155  00B3               	movwf	??___fldiv+1
  2051  0156  30FF               	movlw	255
  2052  0157  0540               	andwf	___fldiv@grs+2,w
  2053  0158  00B4               	movwf	??___fldiv+2
  2054  0159  307F               	movlw	127
  2055  015A  0541               	andwf	___fldiv@grs+3,w
  2056  015B  00B5               	movwf	??___fldiv+3
  2057  015C  0835               	movf	??___fldiv+3,w
  2058  015D  0434               	iorwf	??___fldiv+2,w
  2059  015E  0433               	iorwf	??___fldiv+1,w
  2060  015F  0432               	iorwf	??___fldiv,w
  2061  0160  1903               	skipnz
  2062  0161  2963               	goto	u1021
  2063  0162  2964               	goto	u1020
  2064  0163                     u1021:
  2065  0163  2967               	goto	l610
  2066  0164                     u1020:
  2067  0164                     l1303:
  2068  0164  01C3               	clrf	___fldiv@aexp
  2069  0165  0AC3               	incf	___fldiv@aexp,f
  2070  0166  296C               	goto	l1307
  2071  0167                     l610:
  2072  0167  1C2E               	btfss	___fldiv@b,0
  2073  0168  296A               	goto	u1031
  2074  0169  296B               	goto	u1030
  2075  016A                     u1031:
  2076  016A  296C               	goto	l1307
  2077  016B                     u1030:
  2078  016B  2964               	goto	l1303
  2079  016C                     l1307:
  2080  016C  0843               	movf	___fldiv@aexp,w
  2081  016D  1903               	btfsc	3,2
  2082  016E  2970               	goto	u1041
  2083  016F  2971               	goto	u1040
  2084  0170                     u1041:
  2085  0170  29A2               	goto	l1317
  2086  0171                     u1040:
  2087  0171                     l1309:
  2088  0171  3001               	movlw	1
  2089  0172  07AE               	addwf	___fldiv@b,f
  2090  0173  3000               	movlw	0
  2091  0174  1803               	skipnc
  2092  0175  3001               	movlw	1
  2093  0176  07AF               	addwf	___fldiv@b+1,f
  2094  0177  3000               	movlw	0
  2095  0178  1803               	skipnc
  2096  0179  3001               	movlw	1
  2097  017A  07B0               	addwf	___fldiv@b+2,f
  2098  017B  3000               	movlw	0
  2099  017C  1803               	skipnc
  2100  017D  3001               	movlw	1
  2101  017E  07B1               	addwf	___fldiv@b+3,f
  2102  017F                     l1311:
  2103  017F  1C31               	btfss	___fldiv@b+3,0
  2104  0180  2982               	goto	u1051
  2105  0181  2983               	goto	u1050
  2106  0182                     u1051:
  2107  0182  29A2               	goto	l1317
  2108  0183                     u1050:
  2109  0183                     l1313:
  2110  0183  082E               	movf	___fldiv@b,w
  2111  0184  00B2               	movwf	??___fldiv
  2112  0185  082F               	movf	___fldiv@b+1,w
  2113  0186  00B3               	movwf	??___fldiv+1
  2114  0187  0830               	movf	___fldiv@b+2,w
  2115  0188  00B4               	movwf	??___fldiv+2
  2116  0189  0831               	movf	___fldiv@b+3,w
  2117  018A  00B5               	movwf	??___fldiv+3
  2118  018B  3001               	movlw	1
  2119  018C  00B6               	movwf	??___fldiv+4
  2120  018D                     u1065:
  2121  018D  0D35               	rlf	??___fldiv+3,w
  2122  018E  0CB5               	rrf	??___fldiv+3,f
  2123  018F  0CB4               	rrf	??___fldiv+2,f
  2124  0190  0CB3               	rrf	??___fldiv+1,f
  2125  0191  0CB2               	rrf	??___fldiv,f
  2126  0192                     u1060:
  2127  0192  0BB6               	decfsz	??___fldiv+4,f
  2128  0193  298D               	goto	u1065
  2129  0194  0835               	movf	??___fldiv+3,w
  2130  0195  00B1               	movwf	___fldiv@b+3
  2131  0196  0834               	movf	??___fldiv+2,w
  2132  0197  00B0               	movwf	___fldiv@b+2
  2133  0198  0833               	movf	??___fldiv+1,w
  2134  0199  00AF               	movwf	___fldiv@b+1
  2135  019A  0832               	movf	??___fldiv,w
  2136  019B  00AE               	movwf	___fldiv@b
  2137  019C                     l1315:
  2138  019C  3001               	movlw	1
  2139  019D  07BC               	addwf	___fldiv@new_exp,f
  2140  019E  1803               	skipnc
  2141  019F  0ABD               	incf	___fldiv@new_exp+1,f
  2142  01A0  3000               	movlw	0
  2143  01A1  07BD               	addwf	___fldiv@new_exp+1,f
  2144  01A2                     l1317:
  2145  01A2  083D               	movf	___fldiv@new_exp+1,w
  2146  01A3  3A80               	xorlw	128
  2147  01A4  00FF               	movwf	btemp+1
  2148  01A5  3080               	movlw	128
  2149  01A6  027F               	subwf	btemp+1,w
  2150  01A7  1D03               	skipz
  2151  01A8  29AB               	goto	u1075
  2152  01A9  30FF               	movlw	255
  2153  01AA  023C               	subwf	___fldiv@new_exp,w
  2154  01AB                     u1075:
  2155  01AB  1C03               	skipc
  2156  01AC  29AE               	goto	u1071
  2157  01AD  29AF               	goto	u1070
  2158  01AE                     u1071:
  2159  01AE  29BD               	goto	l1321
  2160  01AF                     u1070:
  2161  01AF                     l1319:
  2162  01AF  30FF               	movlw	255
  2163  01B0  1283               	bcf	3,5	;RP0=0, select bank0
  2164  01B1  1303               	bcf	3,6	;RP1=0, select bank0
  2165  01B2  00BC               	movwf	___fldiv@new_exp
  2166  01B3  3000               	movlw	0
  2167  01B4  00BD               	movwf	___fldiv@new_exp+1
  2168  01B5  3000               	movlw	0
  2169  01B6  00B1               	movwf	___fldiv@b+3
  2170  01B7  3000               	movlw	0
  2171  01B8  00B0               	movwf	___fldiv@b+2
  2172  01B9  3000               	movlw	0
  2173  01BA  00AF               	movwf	___fldiv@b+1
  2174  01BB  3000               	movlw	0
  2175  01BC  00AE               	movwf	___fldiv@b
  2176  01BD                     l1321:
  2177  01BD  1283               	bcf	3,5	;RP0=0, select bank0
  2178  01BE  1303               	bcf	3,6	;RP1=0, select bank0
  2179  01BF  083D               	movf	___fldiv@new_exp+1,w
  2180  01C0  3A80               	xorlw	128
  2181  01C1  00FF               	movwf	btemp+1
  2182  01C2  3080               	movlw	128
  2183  01C3  027F               	subwf	btemp+1,w
  2184  01C4  1D03               	skipz
  2185  01C5  29C8               	goto	u1085
  2186  01C6  3001               	movlw	1
  2187  01C7  023C               	subwf	___fldiv@new_exp,w
  2188  01C8                     u1085:
  2189  01C8  1803               	skipnc
  2190  01C9  29CB               	goto	u1081
  2191  01CA  29CC               	goto	u1080
  2192  01CB                     u1081:
  2193  01CB  29D9               	goto	l616
  2194  01CC                     u1080:
  2195  01CC                     l1323:
  2196  01CC  1283               	bcf	3,5	;RP0=0, select bank0
  2197  01CD  1303               	bcf	3,6	;RP1=0, select bank0
  2198  01CE  01BC               	clrf	___fldiv@new_exp
  2199  01CF  01BD               	clrf	___fldiv@new_exp+1
  2200  01D0                     l1325:
  2201  01D0  3000               	movlw	0
  2202  01D1  00B1               	movwf	___fldiv@b+3
  2203  01D2  3000               	movlw	0
  2204  01D3  00B0               	movwf	___fldiv@b+2
  2205  01D4  3000               	movlw	0
  2206  01D5  00AF               	movwf	___fldiv@b+1
  2207  01D6  3000               	movlw	0
  2208  01D7  00AE               	movwf	___fldiv@b
  2209  01D8                     l1327:
  2210  01D8  01BB               	clrf	___fldiv@sign
  2211  01D9                     l616:
  2212  01D9  1283               	bcf	3,5	;RP0=0, select bank0
  2213  01DA  1303               	bcf	3,6	;RP1=0, select bank0
  2214  01DB  083C               	movf	___fldiv@new_exp,w
  2215  01DC  00B2               	movwf	??___fldiv
  2216  01DD  0832               	movf	??___fldiv,w
  2217  01DE  00C2               	movwf	___fldiv@bexp
  2218  01DF                     l1329:
  2219  01DF  1C42               	btfss	___fldiv@bexp,0
  2220  01E0  29E2               	goto	u1091
  2221  01E1  29E3               	goto	u1090
  2222  01E2                     u1091:
  2223  01E2  29E5               	goto	l1333
  2224  01E3                     u1090:
  2225  01E3                     l1331:
  2226  01E3  17B0               	bsf	___fldiv@b+2,7
  2227  01E4  29E9               	goto	l618
  2228  01E5                     l1333:
  2229  01E5  307F               	movlw	127
  2230  01E6  00B2               	movwf	??___fldiv
  2231  01E7  0832               	movf	??___fldiv,w
  2232  01E8  05B0               	andwf	___fldiv@b+2,f
  2233  01E9                     l618:
  2234  01E9  0842               	movf	___fldiv@bexp,w
  2235  01EA  00B2               	movwf	??___fldiv
  2236  01EB  1003               	clrc
  2237  01EC  0C32               	rrf	??___fldiv,w
  2238  01ED  00B3               	movwf	??___fldiv+1
  2239  01EE  0833               	movf	??___fldiv+1,w
  2240  01EF  00B1               	movwf	___fldiv@b+3
  2241  01F0  083B               	movf	___fldiv@sign,w
  2242  01F1  00B2               	movwf	??___fldiv
  2243  01F2  0832               	movf	??___fldiv,w
  2244  01F3  04B1               	iorwf	___fldiv@b+3,f
  2245  01F4  288D               	goto	l1241
  2246  01F5                     l596:
  2247  01F5  0008               	return
  2248  01F6                     __end_of___fldiv:
  2249                           
  2250                           	psect	text7
  2251  032E                     __ptext7:	
  2252 ;; *************** function _isr *****************
  2253 ;; Defined at:
  2254 ;;		line 71 in file "MainSlave.c"
  2255 ;; Parameters:    Size  Location     Type
  2256 ;;		None
  2257 ;; Auto vars:     Size  Location     Type
  2258 ;;		None
  2259 ;; Return value:  Size  Location     Type
  2260 ;;                  1    wreg      void 
  2261 ;; Registers used:
  2262 ;;		wreg
  2263 ;; Tracked objects:
  2264 ;;		On entry : 0/0
  2265 ;;		On exit  : 0/0
  2266 ;;		Unchanged: 0/0
  2267 ;; Data sizes:     COMMON   BANK0   BANK1   BANK3   BANK2
  2268 ;;      Params:         0       0       0       0       0
  2269 ;;      Locals:         0       0       0       0       0
  2270 ;;      Temps:          3       0       0       0       0
  2271 ;;      Totals:         3       0       0       0       0
  2272 ;;Total ram usage:        3 bytes
  2273 ;; Hardware stack levels used:    1
  2274 ;; This function calls:
  2275 ;;		Nothing
  2276 ;; This function is called by:
  2277 ;;		Interrupt level 1
  2278 ;; This function uses a non-reentrant model
  2279 ;;
  2280                           
  2281                           
  2282                           ;psect for function _isr
  2283  032E                     _isr:
  2284  032E                     i1l1447:
  2285                           
  2286                           ;MainSlave.c: 91:      if(PIR1bits.SSPIF == 1){
  2287  032E  1283               	bcf	3,5	;RP0=0, select bank0
  2288  032F  1303               	bcf	3,6	;RP1=0, select bank0
  2289  0330  1D8C               	btfss	12,3	;volatile
  2290  0331  2B33               	goto	u126_21
  2291  0332  2B34               	goto	u126_20
  2292  0333                     u126_21:
  2293  0333  2B8C               	goto	i1l91
  2294  0334                     u126_20:
  2295  0334                     i1l1449:
  2296                           
  2297                           ;MainSlave.c: 92:         SSPCONbits.CKP = 0;
  2298  0334  1214               	bcf	20,4	;volatile
  2299                           
  2300                           ;MainSlave.c: 94:         if ((SSPCONbits.SSPOV) || (SSPCONbits.WCOL)){
  2301  0335  1B14               	btfsc	20,6	;volatile
  2302  0336  2B38               	goto	u127_21
  2303  0337  2B39               	goto	u127_20
  2304  0338                     u127_21:
  2305  0338  2B3D               	goto	i1l1453
  2306  0339                     u127_20:
  2307  0339                     i1l1451:
  2308  0339  1F94               	btfss	20,7	;volatile
  2309  033A  2B3C               	goto	u128_21
  2310  033B  2B3D               	goto	u128_20
  2311  033C                     u128_21:
  2312  033C  2B44               	goto	i1l1461
  2313  033D                     u128_20:
  2314  033D                     i1l1453:
  2315                           
  2316                           ;MainSlave.c: 95:             z = SSPBUF;
  2317  033D  0813               	movf	19,w	;volatile
  2318  033E  00F0               	movwf	??_isr
  2319  033F  0870               	movf	??_isr,w
  2320  0340  00FA               	movwf	_z
  2321  0341                     i1l1455:
  2322                           
  2323                           ;MainSlave.c: 96:             SSPCONbits.SSPOV = 0;
  2324  0341  1314               	bcf	20,6	;volatile
  2325  0342                     i1l1457:
  2326                           
  2327                           ;MainSlave.c: 97:             SSPCONbits.WCOL = 0;
  2328  0342  1394               	bcf	20,7	;volatile
  2329  0343                     i1l1459:
  2330                           
  2331                           ;MainSlave.c: 98:             SSPCONbits.CKP = 1;
  2332  0343  1614               	bsf	20,4	;volatile
  2333  0344                     i1l1461:
  2334                           
  2335                           ;MainSlave.c: 101:         if(!SSPSTATbits.D_nA && !SSPSTATbits.R_nW) {
  2336  0344  1683               	bsf	3,5	;RP0=1, select bank1
  2337  0345  1303               	bcf	3,6	;RP1=0, select bank1
  2338  0346  1A94               	btfsc	20,5	;volatile
  2339  0347  2B49               	goto	u129_21
  2340  0348  2B4A               	goto	u129_20
  2341  0349                     u129_21:
  2342  0349  2B68               	goto	i1l82
  2343  034A                     u129_20:
  2344  034A                     i1l1463:
  2345  034A  1914               	btfsc	20,2	;volatile
  2346  034B  2B4D               	goto	u130_21
  2347  034C  2B4E               	goto	u130_20
  2348  034D                     u130_21:
  2349  034D  2B68               	goto	i1l82
  2350  034E                     u130_20:
  2351  034E                     i1l1465:
  2352                           
  2353                           ;MainSlave.c: 102:             z = SSPBUF;
  2354  034E  1283               	bcf	3,5	;RP0=0, select bank0
  2355  034F  1303               	bcf	3,6	;RP1=0, select bank0
  2356  0350  0813               	movf	19,w	;volatile
  2357  0351  00F0               	movwf	??_isr
  2358  0352  0870               	movf	??_isr,w
  2359  0353  00FA               	movwf	_z
  2360  0354                     i1l1467:
  2361                           
  2362                           ;MainSlave.c: 103:             PIR1bits.SSPIF = 0;
  2363  0354  118C               	bcf	12,3	;volatile
  2364  0355                     i1l1469:
  2365                           
  2366                           ;MainSlave.c: 104:             SSPCONbits.CKP = 1;
  2367  0355  1614               	bsf	20,4	;volatile
  2368  0356                     i1l83:	
  2369                           ;MainSlave.c: 105:             while(!SSPSTATbits.BF);
  2370                           
  2371  0356  1683               	bsf	3,5	;RP0=1, select bank1
  2372  0357  1303               	bcf	3,6	;RP1=0, select bank1
  2373  0358  1C14               	btfss	20,0	;volatile
  2374  0359  2B5B               	goto	u131_21
  2375  035A  2B5C               	goto	u131_20
  2376  035B                     u131_21:
  2377  035B  2B56               	goto	i1l83
  2378  035C                     u131_20:
  2379  035C                     i1l1471:
  2380                           
  2381                           ;MainSlave.c: 106:             dist = SSPBUF;
  2382  035C  1283               	bcf	3,5	;RP0=0, select bank0
  2383  035D  1303               	bcf	3,6	;RP1=0, select bank0
  2384  035E  0813               	movf	19,w	;volatile
  2385  035F  00F0               	movwf	??_isr
  2386  0360  0870               	movf	??_isr,w
  2387  0361  00D4               	movwf	_dist
  2388                           
  2389                           ;MainSlave.c: 107:             _delay((unsigned long)((250)*(8000000/4000000.0)));
  2390  0362  30A6               	movlw	166
  2391  0363  00F0               	movwf	??_isr
  2392  0364                     u159_27:
  2393  0364  0BF0               	decfsz	??_isr,f
  2394  0365  2B64               	goto	u159_27
  2395  0366  0000               	nop
  2396                           
  2397                           ;MainSlave.c: 109:         }
  2398  0367  2B89               	goto	i1l86
  2399  0368                     i1l82:	
  2400                           ;MainSlave.c: 111:         else if(!SSPSTATbits.D_nA && SSPSTATbits.R_nW){
  2401                           
  2402  0368  1A94               	btfsc	20,5	;volatile
  2403  0369  2B6B               	goto	u132_21
  2404  036A  2B6C               	goto	u132_20
  2405  036B                     u132_21:
  2406  036B  2B89               	goto	i1l86
  2407  036C                     u132_20:
  2408  036C                     i1l1473:
  2409  036C  1D14               	btfss	20,2	;volatile
  2410  036D  2B6F               	goto	u133_21
  2411  036E  2B70               	goto	u133_20
  2412  036F                     u133_21:
  2413  036F  2B89               	goto	i1l86
  2414  0370                     u133_20:
  2415  0370                     i1l1475:
  2416                           
  2417                           ;MainSlave.c: 112:             z = SSPBUF;
  2418  0370  1283               	bcf	3,5	;RP0=0, select bank0
  2419  0371  1303               	bcf	3,6	;RP1=0, select bank0
  2420  0372  0813               	movf	19,w	;volatile
  2421  0373  00F0               	movwf	??_isr
  2422  0374  0870               	movf	??_isr,w
  2423  0375  00FA               	movwf	_z
  2424  0376                     i1l1477:
  2425                           
  2426                           ;MainSlave.c: 113:             BF = 0;
  2427  0376  1683               	bsf	3,5	;RP0=1, select bank1
  2428  0377  1303               	bcf	3,6	;RP1=0, select bank1
  2429  0378  1014               	bcf	20,0	;volatile
  2430                           
  2431                           ;MainSlave.c: 114:             SSPBUF = dist;
  2432  0379  1283               	bcf	3,5	;RP0=0, select bank0
  2433  037A  1303               	bcf	3,6	;RP1=0, select bank0
  2434  037B  0854               	movf	_dist,w
  2435  037C  0093               	movwf	19	;volatile
  2436  037D                     i1l1479:
  2437                           
  2438                           ;MainSlave.c: 115:             SSPCONbits.CKP = 1;
  2439  037D  1614               	bsf	20,4	;volatile
  2440                           
  2441                           ;MainSlave.c: 116:             _delay((unsigned long)((250)*(8000000/4000000.0)));
  2442  037E  30A6               	movlw	166
  2443  037F  00F0               	movwf	??_isr
  2444  0380                     u160_27:
  2445  0380  0BF0               	decfsz	??_isr,f
  2446  0381  2B80               	goto	u160_27
  2447  0382  0000               	nop
  2448  0383                     i1l88:	
  2449                           ;MainSlave.c: 117:             while(SSPSTATbits.BF);
  2450                           
  2451  0383  1683               	bsf	3,5	;RP0=1, select bank1
  2452  0384  1303               	bcf	3,6	;RP1=0, select bank1
  2453  0385  1814               	btfsc	20,0	;volatile
  2454  0386  2B88               	goto	u134_21
  2455  0387  2B89               	goto	u134_20
  2456  0388                     u134_21:
  2457  0388  2B83               	goto	i1l88
  2458  0389                     u134_20:
  2459  0389                     i1l86:
  2460                           
  2461                           ;MainSlave.c: 119:         PIR1bits.SSPIF = 0;
  2462  0389  1283               	bcf	3,5	;RP0=0, select bank0
  2463  038A  1303               	bcf	3,6	;RP1=0, select bank0
  2464  038B  118C               	bcf	12,3	;volatile
  2465  038C                     i1l91:
  2466  038C  0872               	movf	??_isr+2,w
  2467  038D  008A               	movwf	10
  2468  038E  0E71               	swapf	??_isr+1,w
  2469  038F  0083               	movwf	3
  2470  0390  0EFE               	swapf	btemp,f
  2471  0391  0E7E               	swapf	btemp,w
  2472  0392  0009               	retfie
  2473  0393                     __end_of_isr:
  2474  007E                     btemp	set	126	;btemp
  2475  007E                     wtemp0	set	126
  2476                           
  2477                           	psect	intentry
  2478  0004                     __pintentry:	
  2479                           ;incstack = 0
  2480                           ; Regs used in _isr: [wreg]
  2481                           
  2482  0004                     interrupt_function:
  2483  007E                     saved_w	set	btemp
  2484  0004  00FE               	movwf	btemp
  2485  0005  0E03               	swapf	3,w
  2486  0006  00F1               	movwf	??_isr+1
  2487  0007  080A               	movf	10,w
  2488  0008  00F2               	movwf	??_isr+2
  2489  0009  120A  118A  2B2E   	ljmp	_isr
  2490                           
  2491                           	psect	config
  2492                           
  2493                           ;Config register CONFIG1 @ 0x2007
  2494                           ;	Oscillator Selection bits
  2495                           ;	FOSC = INTRC_NOCLKOUT, INTOSCIO oscillator: I/O function on RA6/OSC2/CLKOUT pin, I/O f
      +                          unction on RA7/OSC1/CLKIN
  2496                           ;	Watchdog Timer Enable bit
  2497                           ;	WDTE = OFF, WDT disabled and can be enabled by SWDTEN bit of the WDTCON register
  2498                           ;	Power-up Timer Enable bit
  2499                           ;	PWRTE = OFF, PWRT disabled
  2500                           ;	RE3/MCLR pin function select bit
  2501                           ;	MCLRE = OFF, RE3/MCLR pin function is digital input, MCLR internally tied to VDD
  2502                           ;	Code Protection bit
  2503                           ;	CP = OFF, Program memory code protection is disabled
  2504                           ;	Data Code Protection bit
  2505                           ;	CPD = OFF, Data memory code protection is disabled
  2506                           ;	Brown Out Reset Selection bits
  2507                           ;	BOREN = OFF, BOR disabled
  2508                           ;	Internal External Switchover bit
  2509                           ;	IESO = OFF, Internal/External Switchover mode is disabled
  2510                           ;	Fail-Safe Clock Monitor Enabled bit
  2511                           ;	FCMEN = OFF, Fail-Safe Clock Monitor is disabled
  2512                           ;	Low Voltage Programming Enable bit
  2513                           ;	LVP = OFF, RB3 pin has digital I/O, HV on MCLR must be used for programming
  2514                           ;	In-Circuit Debugger Mode bit
  2515                           ;	DEBUG = 0x1, unprogrammed default
  2516  2007                     	org	8199
  2517  2007  20D4               	dw	8404
  2518                           
  2519                           ;Config register CONFIG2 @ 0x2008
  2520                           ;	Brown-out Reset Selection bit
  2521                           ;	BOR4V = BOR40V, Brown-out Reset set to 4.0V
  2522                           ;	Flash Program Memory Self Write Enable bits
  2523                           ;	WRT = OFF, Write protection off
  2524  2008                     	org	8200
  2525  2008  3FFF               	dw	16383

Data Sizes:
    Strings     0
    Constant    0
    Data        0
    BSS         4
    Persistent  0
    Stack       0

Auto Spaces:
    Space          Size  Autos    Used
    COMMON           14      8      11
    BANK0            80     52      53
    BANK1            80      0       0
    BANK3            96      0       0
    BANK2            96      0       0

Pointer List with Targets:

    None.

Critical Paths under _main in COMMON

    _main->_C_distancia
    _setup->_I2C_Slave_Init
    _C_distancia->___xxtofl
    ___fltol->___xxtofl
    ___fldiv->___xxtofl

Critical Paths under _isr in COMMON

    None.

Critical Paths under _main in BANK0

    _main->_C_distancia
    _C_distancia->___fltol
    ___fltol->___fldiv
    ___fldiv->___xxtofl

Critical Paths under _isr in BANK0

    None.

Critical Paths under _main in BANK1

    None.

Critical Paths under _isr in BANK1

    None.

Critical Paths under _main in BANK3

    None.

Critical Paths under _isr in BANK3

    None.

Critical Paths under _main in BANK2

    None.

Critical Paths under _isr in BANK2

    None.

Call Graph Tables:

 ---------------------------------------------------------------------------------
 (Depth) Function   	        Calls       Base Space   Used Autos Params    Refs
 ---------------------------------------------------------------------------------
 (0) _main                                                 3     3      0    2166
                                             49 BANK0      3     3      0
                        _C_distancia
                              _setup
 ---------------------------------------------------------------------------------
 (1) _setup                                                0     0      0      22
                     _I2C_Slave_Init
 ---------------------------------------------------------------------------------
 (2) _I2C_Slave_Init                                       1     1      0      22
                                              3 COMMON     1     1      0
 ---------------------------------------------------------------------------------
 (1) _C_distancia                                          3     1      2    2144
                                              7 COMMON     1     1      0
                                             47 BANK0      2     0      2
                            ___fldiv
                            ___fltol
                           ___xxtofl
 ---------------------------------------------------------------------------------
 (2) ___xxtofl                                            14    10      4     566
                                              3 COMMON     4     0      4
                                              0 BANK0     10    10      0
 ---------------------------------------------------------------------------------
 (2) ___fltol                                             11     7      4     305
                                             36 BANK0     11     7      4
                            ___fldiv (ARG)
                           ___xxtofl (ARG)
 ---------------------------------------------------------------------------------
 (2) ___fldiv                                             26    18      8    1273
                                             10 BANK0     26    18      8
                           ___xxtofl (ARG)
 ---------------------------------------------------------------------------------
 Estimated maximum stack depth 2
 ---------------------------------------------------------------------------------
 (Depth) Function   	        Calls       Base Space   Used Autos Params    Refs
 ---------------------------------------------------------------------------------
 (3) _isr                                                  3     3      0       0
                                              0 COMMON     3     3      0
 ---------------------------------------------------------------------------------
 Estimated maximum stack depth 3
 ---------------------------------------------------------------------------------

 Call Graph Graphs:

 _main (ROOT)
   _C_distancia
     ___fldiv
       ___xxtofl (ARG)
     ___fltol
       ___fldiv (ARG)
         ___xxtofl (ARG)
       ___xxtofl (ARG)
     ___xxtofl
   _setup
     _I2C_Slave_Init

 _isr (ROOT)

 Address spaces:
Name               Size   Autos  Total    Cost      Usage
BITCOMMON            E      0       0       0        0.0%
EEDATA             100      0       0       0        0.0%
NULL                 0      0       0       0        0.0%
CODE                 0      0       0       0        0.0%
COMMON               E      8       B       1       78.6%
BITSFR0              0      0       0       1        0.0%
SFR0                 0      0       0       1        0.0%
BITSFR1              0      0       0       2        0.0%
SFR1                 0      0       0       2        0.0%
STACK                0      0       0       2        0.0%
ABS                  0      0      40       3        0.0%
BITBANK0            50      0       0       4        0.0%
BITSFR3              0      0       0       4        0.0%
SFR3                 0      0       0       4        0.0%
BANK0               50     34      35       5       66.2%
BITSFR2              0      0       0       5        0.0%
SFR2                 0      0       0       5        0.0%
BITBANK1            50      0       0       6        0.0%
BANK1               50      0       0       7        0.0%
BITBANK3            60      0       0       8        0.0%
BANK3               60      0       0       9        0.0%
BITBANK2            60      0       0      10        0.0%
BANK2               60      0       0      11        0.0%
DATA                 0      0      40      12        0.0%


Microchip Technology PIC Macro Assembler V2.31 build 20201012212115 
Symbol Table                                                                                   Sun Sep 05 20:49:09 2021

           ___fldiv@aexp 0043             ___fldiv@bexp 0042                        _z 007A  
           ___fldiv@sign 003B              _SSPSTATbits 0094                       l13 03A1  
                     _BF 04A0                       l15 03A5                       l16 03A6  
                     l18 03AA                       l19 03E3                       l94 0462  
                    l100 041C                      l431 032D                      l159 047C  
                    l441 032D                      l610 0167                      l438 0318  
                    l616 01D9                      l618 01E9                      l680 02B1  
                    l594 0075                      l691 027B                      l596 01F5  
                    l692 0287                      l684 025F                      l678 021A  
                    _GIE 005F                      u710 02BF                      u711 02BE  
                    u800 0322                      u720 02D6                      u801 0321  
                    u810 002A                      u730 02EC                      u811 0029  
                    u731 02EB                      u820 0030                      u740 02F3  
                    u821 002F                      u741 02F2                      u725 02D1  
                    u830 0035                      u831 0034                      u920 00EB  
                    u840 0057                      u760 0305                      u921 00EA  
                    u905 00D7                      u841 0056                      u761 0304  
                    u850 005D                      u770 030C                      u915 00E0  
                    u851 005C                      u771 030B                      u755 02F5  
                    u940 0107                      u860 0062                      u941 0106  
                    u861 0061                      u950 0120                      u870 007D  
                    u790 031D                      u951 011F                      u935 00EE  
                    u871 007C                      u791 031C                      u960 0128  
                    u880 009B                      u961 0127                      u945 0103  
                    u881 009A                      u785 030F                      u890 00D5  
                    u891 00D4                      u980 0137                      u981 0136  
                    u975 012C                      u995 013A                      _isr 032E  
            _C_distancia 0393             ___fltol@exp1 004E                     l1201 0026  
                   l1211 003D                     l1203 002A                     l1301 0150  
                   l1221 0053                     l1213 003E                     l1205 002B  
                   l1311 017F                     l1303 0164                     l1231 006A  
                   l1223 0057                     l1207 0030                     l1215 0040  
                   l1151 0473                     l1321 01BD                     l1313 0183  
                   l1241 008D                     l1233 006B                     l1225 0058  
                   l1217 0048                     l1209 0035                     l1161 02B2  
                   l1153 0474                     l1401 043C                     l1331 01E3  
                   l1323 01CC                     l1315 019C                     l1307 016C  
                   l1251 00A4                     l1227 005D                     l1235 006D  
                   l1219 004D                     l1171 02DE                     l1163 02BF  
                   l1155 0475                     l1147 0464                     l1411 0441  
                   l1403 043D                     l1333 01E5                     l1325 01D0  
                   l1309 0171                     l1317 01A2                     l1261 00D0  
                   l1253 00B6                     l1237 007D                     l1245 0096  
                   l1229 0062                     l1173 02E6                     l1501 01FE  
                   l1157 0476                     l1149 0472                     l1421 0448  
                   l1413 0442                     l1405 043E                     l1327 01D8  
                   l1319 01AF                     l1263 00D5                     l1271 00F5  
                   l1255 00BE                     l1247 009B                     l1239 0089  
                   l1191 030D                     l1183 02F4                     l1175 02E8  
                   l1167 02C8                     l1511 022B                     l1503 0202  
                   l1159 0479                     l1431 044F                     l1423 0449  
                   l1415 0443                     l1407 043F                     l1329 01DF  
                   l1281 0120                     l1273 0107                     l1265 00E7  
                   l1257 00C6                     l1193 031D                     l1177 02EC  
                   l1185 0306                     l1169 02DD                     l1521 0256  
                   l1513 0230                     l1505 0212                     l1441 045A  
                   l1433 0450                     l1425 044A                     l1417 0446  
                   l1409 0440                     l1291 0138                     l1283 0128  
                   l1275 0108                     l1267 00EB                     l1259 00CE  
                   l1195 0322                     l1531 0289                     l1523 0266  
                   l1515 023D                     l1507 0222                     l1443 045B  
                   l1435 0451                     l1427 044D                     l1419 0447  
                   l1293 0141                     l1285 012A                     l1277 0116  
                   l1269 00EC                     l1197 0019                     l1533 029F  
                   l1525 0271                     l1517 0244                     l1445 045C  
                   l1437 0452                     l1429 044E                     l1287 0133  
                   l1295 0147                     l1279 011A                     l1199 0020  
                   l1535 02A4                     l1527 0275                     l1519 0248  
                   l1551 03AB                     l1543 0393                     l1439 0456  
                   l1297 014B                     l1289 0137                     l1537 02A8  
                   l1529 027F                     l1545 0398                     l1561 0406  
                   l1299 014C                     l1539 02A9                     l1547 0399  
                   l1395 0434                     l1571 0426                     l1563 040A  
                   l1555 03E4                     l1549 039E                     l1397 0437  
                   l1565 0410                     l1557 03E9                     l1399 0439  
                   l1567 0412                     l1559 03F8                     l1569 0424  
                   l1499 01F9                     ?_isr 0070                     u1000 014B  
                   u1001 014A                     u1010 0150                     u1011 014F  
                   u1020 0164                     u1021 0163                     u1030 016B  
                   u1031 016A                     u1040 0171                     u1041 0170  
                   u1050 0183                     u1051 0182                     u1060 0192  
                   u1070 01AF                     u1071 01AE                     u1080 01CC  
                   u1081 01CB                     u1065 018D                     u1090 01E3  
                   u1410 0243                     u1091 01E2                     u1075 01AB  
                   u1411 0242                     u1500 02A8                     u1085 01C8  
                   u1501 02A7                     u1405 0235                     u1430 0265  
                   u1510 03A5                     u1431 0264                     u1511 03A4  
                   u1520 03AA                     u1425 0257                     u1521 03A9  
                   u1450 0275                     u1370 01FE                     u1530 0410  
                   u1451 0274                     u1371 01FD                     u1531 040F  
                   u1460 027B                     u1380 0202                     u1540 0424  
                   u1461 027A                     u1445 026A                     u1381 0201  
                   u1541 0423                     u1470 027F                     u1390 0222  
                   u1471 027E                     u1391 0221                     u1480 0294  
                   u1490 02A4                     u1491 02A3                     u1485 028F  
                   u1557 03F1                     u1567 0418                     u1577 042C  
                   u1587 039B                     _PEIE 005E                     i1l82 0368  
                   i1l83 0356                     i1l91 038C                     i1l86 0389  
                   i1l88 0383                     _PWM1 0079                     _PWM2 0078  
                   _TMR1 000E                     _dist 0054                     _main 03E4  
                   btemp 007E                     start 000C          ___fldiv@new_exp 003C  
                  ??_isr 0070            ___fltol@sign1 004D                    ?_main 0070  
        __end_of___fldiv 01F6          __end_of___fltol 032E                    _ANSEL 0188  
                  _PORTA 0005                    _PORTB 0006                    _PORTC 0007  
                  _PORTD 0008                    _PORTE 0009                    _TRISD 0088  
                  _SSPIE 0463                    _SSPIF 0063                    _setup 0434  
                  pclath 000A                    status 0003                    wtemp0 007E  
        __initialization 000F             __end_of_main 0434                   ??_main 0051  
                 ?_setup 0070                   _ANSELH 0189                   i1l1451 0339  
                 i1l1461 0344                   i1l1453 033D                   i1l1471 035C  
                 i1l1463 034A                   i1l1455 0341                   i1l1447 032E  
                 i1l1473 036C                   i1l1465 034E                   i1l1457 0342  
                 i1l1449 0334                   i1l1475 0370                   i1l1467 0354  
                 i1l1459 0343                   i1l1477 0376                   i1l1469 0355  
                 i1l1479 037D                   u130_20 034E                   u130_21 034D  
                 u131_20 035C                   u131_21 035B                   u132_20 036C  
                 u132_21 036B                   u133_20 0370                   u133_21 036F  
                 u134_20 0389                   u126_20 0334                   u134_21 0388  
                 u126_21 0333                   u127_20 0339                   u127_21 0338  
                 u128_20 033D                   u128_21 033C                   u160_27 0380  
                 u129_20 034A                   u129_21 0349                   u159_27 0364  
                 _SSPADD 0093                   _TRISC3 043B                   _TRISC4 043C  
                 _SSPBUF 0013                   _SSPCON 0014         __end_of___xxtofl 02B2  
              ??___fldiv 0032                ??___fltol 0048                   saved_w 007E  
           ___xxtofl@arg 0026             ___xxtofl@exp 0025             ___xxtofl@val 0073  
__end_of__initialization 0015               ___fltol@f1 0044           __pcstackCOMMON 0070  
__size_of_I2C_Slave_Init 001A            __end_of_setup 0463             ?_C_distancia 004F  
                ??_setup 0074    I2C_Slave_Init@address 0073               __pbssBANK0 0054  
             __pmaintext 03E4               __pintentry 0004                ?___xxtofl 0073  
                _SSPCON2 0091                  _SSPSTAT 0094                  ___fldiv 0019  
                ___fltol 02B2                  __ptext1 0434                  __ptext2 0463  
                __ptext3 0393                  __ptext4 01F6                  __ptext5 02B2  
                __ptext6 0019                  __ptext7 032E                _T1CONbits 0010  
           __size_of_isr 0065               ??___xxtofl 0020     end_of_initialization 0015  
         _I2C_Slave_Init 0463                _PORTBbits 0006            ___xxtofl@sign 0024  
              _TRISBbits 0086                _TRISCbits 0087              ___fldiv@grs 003E  
            ___fldiv@rem 0037     __size_of_C_distancia 0051   __end_of_I2C_Slave_Init 047D  
    start_initialization 000F              __end_of_isr 0393          ?_I2C_Slave_Init 0070  
              ___fldiv@a 002A                ___fldiv@b 002E              __pbssCOMMON 0078  
              ___latbits 0002            __pcstackBANK0 0020        __size_of___xxtofl 00BC  
               ?___fldiv 002A                 ?___fltol 0044           __size_of_setup 002F  
      interrupt_function 0004                 _PIR1bits 000C         __size_of___fldiv 01DD  
       __size_of___fltol 007C                 ___xxtofl 01F6            ??_C_distancia 0077  
       ??_I2C_Slave_Init 0073            __size_of_main 0050               _INTCONbits 000B  
               intlevel1 0000      __end_of_C_distancia 03E4               _OSCCONbits 008F  
            _SSPCON2bits 0091               _SSPCONbits 0014  
