

Microchip MPLAB XC8 Assembler V2.31 build 20201012212115 
                                                                                               Mon Sep 06 02:46:14 2021

Microchip MPLAB XC8 C Compiler v2.31 (Free license) build 20201012212115 Og1 
     1                           	processor	16F887
     2                           	pagewidth 120
     3                           	opt	flic
     4                           	psect	cinit,global,class=CODE,merge=1,delta=2
     5                           	psect	bssCOMMON,global,class=COMMON,space=1,delta=1,noexec
     6                           	psect	bssBANK0,global,class=BANK0,space=1,delta=1,noexec
     7                           	psect	cstackCOMMON,global,class=COMMON,space=1,delta=1,noexec
     8                           	psect	cstackBANK0,global,class=BANK0,space=1,delta=1,noexec
     9                           	psect	maintext,global,class=CODE,split=1,delta=2
    10                           	psect	text1,local,class=CODE,merge=1,delta=2
    11                           	psect	text2,local,class=CODE,merge=1,delta=2
    12                           	psect	text3,local,class=CODE,merge=1,delta=2,group=1
    13                           	psect	text4,local,class=CODE,merge=1,delta=2,group=1
    14                           	psect	text5,local,class=CODE,merge=1,delta=2,group=1
    15                           	psect	text6,local,class=CODE,merge=1,delta=2,group=1
    16                           	psect	text7,local,class=CODE,merge=1,delta=2,group=1
    17                           	psect	text8,local,class=CODE,merge=1,delta=2
    18                           	psect	intentry,global,class=CODE,delta=2
    19                           	psect	config,global,abs,ovrld,class=CONFIG,space=4,delta=2,noexec
    20                           	dabs	1,0x7E,2
    21  0000                     
    22                           ; Version 2.20
    23                           ; Generated 12/02/2020 GMT
    24                           ; 
    25                           ; Copyright © 2020, Microchip Technology Inc. and its subsidiaries ("Microchip")
    26                           ; All rights reserved.
    27                           ; 
    28                           ; This software is developed by Microchip Technology Inc. and its subsidiaries ("Microch
      +                          ip").
    29                           ; 
    30                           ; Redistribution and use in source and binary forms, with or without modification, are
    31                           ; permitted provided that the following conditions are met:
    32                           ; 
    33                           ;     1. Redistributions of source code must retain the above copyright notice, this lis
      +                          t of
    34                           ;        conditions and the following disclaimer.
    35                           ; 
    36                           ;     2. Redistributions in binary form must reproduce the above copyright notice, this 
      +                          list
    37                           ;        of conditions and the following disclaimer in the documentation and/or other
    38                           ;        materials provided with the distribution.
    39                           ; 
    40                           ;     3. Microchip's name may not be used to endorse or promote products derived from th
      +                          is
    41                           ;        software without specific prior written permission.
    42                           ; 
    43                           ; THIS SOFTWARE IS PROVIDED BY MICROCHIP "AS IS" AND ANY EXPRESS OR IMPLIED WARRANTIES,
    44                           ; INCLUDING, BUT NOT LIMITED TO, THE IMPLIED WARRANTIES OF MERCHANTABILITY AND FITNESS F
      +                          OR
    45                           ; PURPOSE ARE DISCLAIMED.  IN NO EVENT SHALL MICROCHIP BE LIABLE FOR ANY DIRECT, INDIREC
      +                          T,
    46                           ; INCIDENTAL, SPECIAL, EXEMPLARY, OR CONSEQUENTIAL DAMAGES (INCLUDING BUT NOT LIMITED TO
    47                           ; PROCUREMENT OF SUBSTITUTE GOODS OR SERVICES; LOSS OF USE, DATA OR PROFITS; OR BUSINESS
    48                           ; INTERRUPTION) HOWSOEVER CAUSED AND ON ANY THEORY OF LIABILITY, WHETHER IN CONTRACT, ST
      +                          RICT
    49                           ; LIABILITY, OR TORT (INCLUDING NEGLIGENCE OR OTHERWISE) ARISING IN ANY WAY OUT OF THE U
      +                          SE OF
    50                           ; THIS SOFTWARE, EVEN IF ADVISED OF THE POSSIBILITY OF SUCH DAMAGE.
    51                           ; 
    52                           ; 
    53                           ; Code-generator required, PIC16F887 Definitions
    54                           ; 
    55                           ; SFR Addresses
    56  0000                     	;# 
    57  0001                     	;# 
    58  0002                     	;# 
    59  0003                     	;# 
    60  0004                     	;# 
    61  0005                     	;# 
    62  0006                     	;# 
    63  0007                     	;# 
    64  0008                     	;# 
    65  0009                     	;# 
    66  000A                     	;# 
    67  000B                     	;# 
    68  000C                     	;# 
    69  000D                     	;# 
    70  000E                     	;# 
    71  000E                     	;# 
    72  000F                     	;# 
    73  0010                     	;# 
    74  0011                     	;# 
    75  0012                     	;# 
    76  0013                     	;# 
    77  0014                     	;# 
    78  0015                     	;# 
    79  0015                     	;# 
    80  0016                     	;# 
    81  0017                     	;# 
    82  0018                     	;# 
    83  0019                     	;# 
    84  001A                     	;# 
    85  001B                     	;# 
    86  001B                     	;# 
    87  001C                     	;# 
    88  001D                     	;# 
    89  001E                     	;# 
    90  001F                     	;# 
    91  0081                     	;# 
    92  0085                     	;# 
    93  0086                     	;# 
    94  0087                     	;# 
    95  0088                     	;# 
    96  0089                     	;# 
    97  008C                     	;# 
    98  008D                     	;# 
    99  008E                     	;# 
   100  008F                     	;# 
   101  0090                     	;# 
   102  0091                     	;# 
   103  0092                     	;# 
   104  0093                     	;# 
   105  0093                     	;# 
   106  0093                     	;# 
   107  0094                     	;# 
   108  0095                     	;# 
   109  0096                     	;# 
   110  0097                     	;# 
   111  0098                     	;# 
   112  0099                     	;# 
   113  009A                     	;# 
   114  009B                     	;# 
   115  009C                     	;# 
   116  009D                     	;# 
   117  009E                     	;# 
   118  009F                     	;# 
   119  0105                     	;# 
   120  0107                     	;# 
   121  0108                     	;# 
   122  0109                     	;# 
   123  010C                     	;# 
   124  010C                     	;# 
   125  010D                     	;# 
   126  010E                     	;# 
   127  010F                     	;# 
   128  0185                     	;# 
   129  0187                     	;# 
   130  0188                     	;# 
   131  0189                     	;# 
   132  018C                     	;# 
   133  018D                     	;# 
   134  0000                     	;# 
   135  0001                     	;# 
   136  0002                     	;# 
   137  0003                     	;# 
   138  0004                     	;# 
   139  0005                     	;# 
   140  0006                     	;# 
   141  0007                     	;# 
   142  0008                     	;# 
   143  0009                     	;# 
   144  000A                     	;# 
   145  000B                     	;# 
   146  000C                     	;# 
   147  000D                     	;# 
   148  000E                     	;# 
   149  000E                     	;# 
   150  000F                     	;# 
   151  0010                     	;# 
   152  0011                     	;# 
   153  0012                     	;# 
   154  0013                     	;# 
   155  0014                     	;# 
   156  0015                     	;# 
   157  0015                     	;# 
   158  0016                     	;# 
   159  0017                     	;# 
   160  0018                     	;# 
   161  0019                     	;# 
   162  001A                     	;# 
   163  001B                     	;# 
   164  001B                     	;# 
   165  001C                     	;# 
   166  001D                     	;# 
   167  001E                     	;# 
   168  001F                     	;# 
   169  0081                     	;# 
   170  0085                     	;# 
   171  0086                     	;# 
   172  0087                     	;# 
   173  0088                     	;# 
   174  0089                     	;# 
   175  008C                     	;# 
   176  008D                     	;# 
   177  008E                     	;# 
   178  008F                     	;# 
   179  0090                     	;# 
   180  0091                     	;# 
   181  0092                     	;# 
   182  0093                     	;# 
   183  0093                     	;# 
   184  0093                     	;# 
   185  0094                     	;# 
   186  0095                     	;# 
   187  0096                     	;# 
   188  0097                     	;# 
   189  0098                     	;# 
   190  0099                     	;# 
   191  009A                     	;# 
   192  009B                     	;# 
   193  009C                     	;# 
   194  009D                     	;# 
   195  009E                     	;# 
   196  009F                     	;# 
   197  0105                     	;# 
   198  0107                     	;# 
   199  0108                     	;# 
   200  0109                     	;# 
   201  010C                     	;# 
   202  010C                     	;# 
   203  010D                     	;# 
   204  010E                     	;# 
   205  010F                     	;# 
   206  0185                     	;# 
   207  0187                     	;# 
   208  0188                     	;# 
   209  0189                     	;# 
   210  018C                     	;# 
   211  018D                     	;# 
   212  001B                     _CCPR2L	set	27
   213  0015                     _CCPR1L	set	21
   214  001D                     _CCP2CON	set	29
   215  0017                     _CCP1CON	set	23
   216  0012                     _T2CON	set	18
   217  000B                     _INTCONbits	set	11
   218  0009                     _PORTE	set	9
   219  0008                     _PORTD	set	8
   220  0007                     _PORTC	set	7
   221  0006                     _PORTB	set	6
   222  0005                     _PORTA	set	5
   223  001F                     _ADCON0bits	set	31
   224  001E                     _ADRESH	set	30
   225  000C                     _PIR1bits	set	12
   226  0092                     _PR2	set	146
   227  009F                     _ADCON1bits	set	159
   228  008C                     _PIE1bits	set	140
   229  008F                     _OSCCONbits	set	143
   230  0087                     _TRISCbits	set	135
   231  0085                     _TRISA	set	133
   232  0189                     _ANSELH	set	393
   233  0188                     _ANSEL	set	392
   234                           
   235                           	psect	cinit
   236  0011                     start_initialization:	
   237                           ; #config settings
   238                           
   239  0011                     __initialization:
   240                           
   241                           ; Clear objects allocated to COMMON
   242  0011  01F6               	clrf	__pbssCOMMON& (0+127)
   243  0012  01F7               	clrf	(__pbssCOMMON+1)& (0+127)
   244  0013  01F8               	clrf	(__pbssCOMMON+2)& (0+127)
   245  0014  01F9               	clrf	(__pbssCOMMON+3)& (0+127)
   246                           
   247                           ; Clear objects allocated to BANK0
   248  0015  1283               	bcf	3,5	;RP0=0, select bank0
   249  0016  1303               	bcf	3,6	;RP1=0, select bank0
   250  0017  01EF               	clrf	__pbssBANK0& (0+127)
   251  0018                     end_of_initialization:	
   252                           ;End of C runtime variable initialization code
   253                           
   254  0018                     __end_of__initialization:
   255  0018  0183               	clrf	3
   256  0019  120A  118A  2FDE   	ljmp	_main	;jump to C main() function
   257                           
   258                           	psect	bssCOMMON
   259  0076                     __pbssCOMMON:
   260  0076                     _z:
   261  0076                     	ds	1
   262  0077                     _cont:
   263  0077                     	ds	1
   264  0078                     _dist:
   265  0078                     	ds	1
   266  0079                     _VAL2:
   267  0079                     	ds	1
   268                           
   269                           	psect	bssBANK0
   270  006F                     __pbssBANK0:
   271  006F                     _VAL:
   272  006F                     	ds	1
   273                           
   274                           	psect	cstackCOMMON
   275  0070                     __pcstackCOMMON:
   276  0070                     ?_canales:
   277  0070                     ?_isr:	
   278                           ; 1 bytes @ 0x0
   279                           
   280  0070                     ??_isr:	
   281                           ; 1 bytes @ 0x0
   282                           
   283  0070                     ?_setup:	
   284                           ; 1 bytes @ 0x0
   285                           
   286  0070                     ?_main:	
   287                           ; 1 bytes @ 0x0
   288                           
   289                           
   290                           ; 1 bytes @ 0x0
   291  0070                     	ds	6
   292                           
   293                           	psect	cstackBANK0
   294  0020                     __pcstackBANK0:
   295  0020                     ??_setup:
   296  0020                     ?__Umul8_16:	
   297                           ; 1 bytes @ 0x0
   298                           
   299  0020                     ?___xxtofl:	
   300                           ; 2 bytes @ 0x0
   301                           
   302  0020                     __Umul8_16@multiplicand:	
   303                           ; 4 bytes @ 0x0
   304                           
   305  0020                     ___xxtofl@val:	
   306                           ; 1 bytes @ 0x0
   307                           
   308                           
   309                           ; 4 bytes @ 0x0
   310  0020                     	ds	2
   311  0022                     ??__Umul8_16:
   312                           
   313                           ; 1 bytes @ 0x2
   314  0022                     	ds	2
   315  0024                     ??___xxtofl:
   316  0024                     __Umul8_16@product:	
   317                           ; 1 bytes @ 0x4
   318                           
   319                           
   320                           ; 2 bytes @ 0x4
   321  0024                     	ds	2
   322  0026                     __Umul8_16@word_mpld:
   323                           
   324                           ; 2 bytes @ 0x6
   325  0026                     	ds	2
   326  0028                     __Umul8_16@multiplier:
   327  0028                     ___xxtofl@sign:	
   328                           ; 1 bytes @ 0x8
   329                           
   330                           
   331                           ; 1 bytes @ 0x8
   332  0028                     	ds	1
   333  0029                     ___xxtofl@exp:
   334                           
   335                           ; 1 bytes @ 0x9
   336  0029                     	ds	1
   337  002A                     ___xxtofl@arg:
   338                           
   339                           ; 4 bytes @ 0xA
   340  002A                     	ds	4
   341  002E                     ?___flmul:
   342  002E                     ___flmul@b:	
   343                           ; 4 bytes @ 0xE
   344                           
   345                           
   346                           ; 4 bytes @ 0xE
   347  002E                     	ds	4
   348  0032                     ___flmul@a:
   349                           
   350                           ; 4 bytes @ 0x12
   351  0032                     	ds	4
   352  0036                     ??___flmul:
   353                           
   354                           ; 1 bytes @ 0x16
   355  0036                     	ds	5
   356  003B                     ___flmul@sign:
   357                           
   358                           ; 1 bytes @ 0x1B
   359  003B                     	ds	1
   360  003C                     ___flmul@aexp:
   361                           
   362                           ; 1 bytes @ 0x1C
   363  003C                     	ds	1
   364  003D                     ___flmul@grs:
   365                           
   366                           ; 4 bytes @ 0x1D
   367  003D                     	ds	4
   368  0041                     ___flmul@bexp:
   369                           
   370                           ; 1 bytes @ 0x21
   371  0041                     	ds	1
   372  0042                     ___flmul@prod:
   373                           
   374                           ; 4 bytes @ 0x22
   375  0042                     	ds	4
   376  0046                     ___flmul@temp:
   377                           
   378                           ; 2 bytes @ 0x26
   379  0046                     	ds	2
   380  0048                     ?___fladd:
   381  0048                     ___fladd@b:	
   382                           ; 4 bytes @ 0x28
   383                           
   384                           
   385                           ; 4 bytes @ 0x28
   386  0048                     	ds	4
   387  004C                     ___fladd@a:
   388                           
   389                           ; 4 bytes @ 0x2C
   390  004C                     	ds	4
   391  0050                     ??___fladd:
   392                           
   393                           ; 1 bytes @ 0x30
   394  0050                     	ds	8
   395  0058                     ___fladd@signs:
   396                           
   397                           ; 1 bytes @ 0x38
   398  0058                     	ds	1
   399  0059                     ___fladd@aexp:
   400                           
   401                           ; 1 bytes @ 0x39
   402  0059                     	ds	1
   403  005A                     ___fladd@bexp:
   404                           
   405                           ; 1 bytes @ 0x3A
   406  005A                     	ds	1
   407  005B                     ___fladd@grs:
   408                           
   409                           ; 1 bytes @ 0x3B
   410  005B                     	ds	1
   411  005C                     ?___fltol:
   412  005C                     ___fltol@f1:	
   413                           ; 4 bytes @ 0x3C
   414                           
   415                           
   416                           ; 4 bytes @ 0x3C
   417  005C                     	ds	4
   418  0060                     ??___fltol:
   419                           
   420                           ; 1 bytes @ 0x40
   421  0060                     	ds	5
   422  0065                     ___fltol@sign1:
   423                           
   424                           ; 1 bytes @ 0x45
   425  0065                     	ds	1
   426  0066                     ___fltol@exp1:
   427                           
   428                           ; 1 bytes @ 0x46
   429  0066                     	ds	1
   430  0067                     ??_canales:
   431                           
   432                           ; 1 bytes @ 0x47
   433  0067                     	ds	4
   434  006B                     _canales$882:
   435                           
   436                           ; 4 bytes @ 0x4B
   437  006B                     	ds	4
   438  006F                     ??_main:
   439                           
   440                           	psect	maintext
   441  07DE                     __pmaintext:	
   442                           ; 1 bytes @ 0x4F
   443 ;;
   444 ;;Main: autosize = 0, tempsize = 0, incstack = 0, save=0
   445 ;;
   446 ;; *************** function _main *****************
   447 ;; Defined at:
   448 ;;		line 197 in file "MainSlave2.c"
   449 ;; Parameters:    Size  Location     Type
   450 ;;		None
   451 ;; Auto vars:     Size  Location     Type
   452 ;;		None
   453 ;; Return value:  Size  Location     Type
   454 ;;                  1    wreg      void 
   455 ;; Registers used:
   456 ;;		wreg, fsr0l, fsr0h, status,2, status,0, btemp+1, pclath, cstack
   457 ;; Tracked objects:
   458 ;;		On entry : B00/0
   459 ;;		On exit  : 0/0
   460 ;;		Unchanged: 0/0
   461 ;; Data sizes:     COMMON   BANK0   BANK1   BANK3   BANK2
   462 ;;      Params:         0       0       0       0       0
   463 ;;      Locals:         0       0       0       0       0
   464 ;;      Temps:          0       0       0       0       0
   465 ;;      Totals:         0       0       0       0       0
   466 ;;Total ram usage:        0 bytes
   467 ;; Hardware stack levels required when called:    4
   468 ;; This function calls:
   469 ;;		_canales
   470 ;;		_setup
   471 ;; This function is called by:
   472 ;;		Startup code after reset
   473 ;; This function uses a non-reentrant model
   474 ;;
   475                           
   476                           
   477                           ;psect for function _main
   478  07DE                     _main:
   479  07DE                     l2002:	
   480                           ;incstack = 0
   481                           ; Regs used in _main: [wreg-fsr0h+status,2+status,0+btemp+1+pclath+cstack]
   482                           
   483                           
   484                           ;MainSlave2.c: 198:     setup();
   485  07DE  120A  158A  273E  120A  118A  	fcall	_setup
   486  07E3                     l2004:
   487                           
   488                           ;MainSlave2.c: 200:         canales();
   489  07E3  120A  118A  2605  120A  118A  	fcall	_canales
   490  07E8  2FE3               	goto	l2004
   491  07E9  120A  118A  280E   	ljmp	start
   492  07EC                     __end_of_main:
   493                           
   494                           	psect	text1
   495  0F3E                     __ptext1:	
   496 ;; *************** function _setup *****************
   497 ;; Defined at:
   498 ;;		line 120 in file "MainSlave2.c"
   499 ;; Parameters:    Size  Location     Type
   500 ;;		None
   501 ;; Auto vars:     Size  Location     Type
   502 ;;		None
   503 ;; Return value:  Size  Location     Type
   504 ;;                  1    wreg      void 
   505 ;; Registers used:
   506 ;;		wreg, status,2, status,0
   507 ;; Tracked objects:
   508 ;;		On entry : 0/0
   509 ;;		On exit  : 0/0
   510 ;;		Unchanged: 0/0
   511 ;; Data sizes:     COMMON   BANK0   BANK1   BANK3   BANK2
   512 ;;      Params:         0       0       0       0       0
   513 ;;      Locals:         0       0       0       0       0
   514 ;;      Temps:          0       1       0       0       0
   515 ;;      Totals:         0       1       0       0       0
   516 ;;Total ram usage:        1 bytes
   517 ;; Hardware stack levels used:    1
   518 ;; Hardware stack levels required when called:    1
   519 ;; This function calls:
   520 ;;		Nothing
   521 ;; This function is called by:
   522 ;;		_main
   523 ;; This function uses a non-reentrant model
   524 ;;
   525                           
   526                           
   527                           ;psect for function _setup
   528  0F3E                     _setup:
   529  0F3E                     l1920:	
   530                           ;incstack = 0
   531                           ; Regs used in _setup: [wreg+status,2+status,0]
   532                           
   533                           
   534                           ;MainSlave2.c: 122:     ANSEL = 0B00000011;
   535  0F3E  3003               	movlw	3
   536  0F3F  1683               	bsf	3,5	;RP0=1, select bank3
   537  0F40  1703               	bsf	3,6	;RP1=1, select bank3
   538  0F41  0088               	movwf	8	;volatile
   539  0F42                     l1922:
   540                           
   541                           ;MainSlave2.c: 123:     ANSELH = 0x00;
   542  0F42  0189               	clrf	9	;volatile
   543  0F43                     l1924:
   544                           
   545                           ;MainSlave2.c: 125:     TRISA = 0B00000011;
   546  0F43  3003               	movlw	3
   547  0F44  1683               	bsf	3,5	;RP0=1, select bank1
   548  0F45  1303               	bcf	3,6	;RP1=0, select bank1
   549  0F46  0085               	movwf	5	;volatile
   550  0F47                     l1926:
   551                           
   552                           ;MainSlave2.c: 131:     TRISCbits.TRISC1 = 0;
   553  0F47  1087               	bcf	7,1	;volatile
   554  0F48                     l1928:
   555                           
   556                           ;MainSlave2.c: 132:     TRISCbits.TRISC2 = 0;
   557  0F48  1107               	bcf	7,2	;volatile
   558                           
   559                           ;MainSlave2.c: 137:     PORTA = 0X00;
   560  0F49  1283               	bcf	3,5	;RP0=0, select bank0
   561  0F4A  1303               	bcf	3,6	;RP1=0, select bank0
   562  0F4B  0185               	clrf	5	;volatile
   563                           
   564                           ;MainSlave2.c: 138:     PORTB = 0X00;
   565  0F4C  0186               	clrf	6	;volatile
   566                           
   567                           ;MainSlave2.c: 139:     PORTC = 0X00;
   568  0F4D  0187               	clrf	7	;volatile
   569                           
   570                           ;MainSlave2.c: 140:     PORTD = 0X00;
   571  0F4E  0188               	clrf	8	;volatile
   572                           
   573                           ;MainSlave2.c: 141:     PORTE = 0X00;
   574  0F4F  0189               	clrf	9	;volatile
   575  0F50                     l1930:
   576                           
   577                           ;MainSlave2.c: 144:     INTCONbits.GIE = 1;
   578  0F50  178B               	bsf	11,7	;volatile
   579  0F51                     l1932:
   580                           
   581                           ;MainSlave2.c: 145:     INTCONbits.PEIE = 1;
   582  0F51  170B               	bsf	11,6	;volatile
   583  0F52                     l1934:
   584                           
   585                           ;MainSlave2.c: 155:     OSCCONbits.SCS = 1;
   586  0F52  1683               	bsf	3,5	;RP0=1, select bank1
   587  0F53  1303               	bcf	3,6	;RP1=0, select bank1
   588  0F54  140F               	bsf	15,0	;volatile
   589  0F55                     l1936:
   590                           
   591                           ;MainSlave2.c: 156:     OSCCONbits.IRCF2 = 1;
   592  0F55  170F               	bsf	15,6	;volatile
   593  0F56                     l1938:
   594                           
   595                           ;MainSlave2.c: 157:     OSCCONbits.IRCF1 = 1;
   596  0F56  168F               	bsf	15,5	;volatile
   597  0F57                     l1940:
   598                           
   599                           ;MainSlave2.c: 158:     OSCCONbits.IRCF0 = 1;
   600  0F57  160F               	bsf	15,4	;volatile
   601  0F58                     l1942:
   602                           
   603                           ;MainSlave2.c: 167:     PIE1bits.TMR2IE = 1;
   604  0F58  148C               	bsf	12,1	;volatile
   605  0F59                     l1944:
   606                           
   607                           ;MainSlave2.c: 168:     PIR1bits.TMR2IF = 0;
   608  0F59  1283               	bcf	3,5	;RP0=0, select bank0
   609  0F5A  1303               	bcf	3,6	;RP1=0, select bank0
   610  0F5B  108C               	bcf	12,1	;volatile
   611  0F5C                     l1946:
   612                           
   613                           ;MainSlave2.c: 169:     T2CON = 0X4E;
   614  0F5C  304E               	movlw	78
   615  0F5D  0092               	movwf	18	;volatile
   616  0F5E                     l1948:
   617                           
   618                           ;MainSlave2.c: 173:     ADCON0bits.CHS = 0;
   619  0F5E  30C3               	movlw	-61
   620  0F5F  059F               	andwf	31,f	;volatile
   621  0F60                     l1950:
   622                           
   623                           ;MainSlave2.c: 174:     ADCON0bits.CHS = 1;
   624  0F60  081F               	movf	31,w	;volatile
   625  0F61  39C3               	andlw	-61
   626  0F62  3804               	iorlw	4
   627  0F63  009F               	movwf	31	;volatile
   628  0F64                     l1952:
   629                           
   630                           ;MainSlave2.c: 175:     _delay((unsigned long)((100)*(8000000/4000000.0)));
   631  0F64  3041               	movlw	65
   632  0F65  1283               	bcf	3,5	;RP0=0, select bank0
   633  0F66  1303               	bcf	3,6	;RP1=0, select bank0
   634  0F67  00A0               	movwf	??_setup
   635  0F68                     u2667:
   636  0F68  0BA0               	decfsz	??_setup,f
   637  0F69  2F68               	goto	u2667
   638  0F6A  2F6B               	nop2
   639  0F6B                     l1954:
   640                           
   641                           ;MainSlave2.c: 177:     PIE1bits.ADIE = 1;
   642  0F6B  1683               	bsf	3,5	;RP0=1, select bank1
   643  0F6C  1303               	bcf	3,6	;RP1=0, select bank1
   644  0F6D  170C               	bsf	12,6	;volatile
   645  0F6E                     l1956:
   646                           
   647                           ;MainSlave2.c: 178:     PIR1bits.ADIF = 0;
   648  0F6E  1283               	bcf	3,5	;RP0=0, select bank0
   649  0F6F  1303               	bcf	3,6	;RP1=0, select bank0
   650  0F70  130C               	bcf	12,6	;volatile
   651  0F71                     l1958:
   652                           
   653                           ;MainSlave2.c: 179:     ADCON0bits.ADON = 1;
   654  0F71  141F               	bsf	31,0	;volatile
   655  0F72                     l1960:
   656                           
   657                           ;MainSlave2.c: 180:     ADCON0bits.ADCS = 1;
   658  0F72  081F               	movf	31,w	;volatile
   659  0F73  393F               	andlw	-193
   660  0F74  3840               	iorlw	64
   661  0F75  009F               	movwf	31	;volatile
   662  0F76                     l1962:
   663                           
   664                           ;MainSlave2.c: 181:     ADCON1bits.ADFM = 0;
   665  0F76  1683               	bsf	3,5	;RP0=1, select bank1
   666  0F77  1303               	bcf	3,6	;RP1=0, select bank1
   667  0F78  139F               	bcf	31,7	;volatile
   668  0F79                     l1964:
   669                           
   670                           ;MainSlave2.c: 182:     ADCON1bits.VCFG0 = 0;
   671  0F79  121F               	bcf	31,4	;volatile
   672  0F7A                     l1966:
   673                           
   674                           ;MainSlave2.c: 183:     ADCON1bits.VCFG1 = 0;
   675  0F7A  129F               	bcf	31,5	;volatile
   676  0F7B                     l1968:
   677                           
   678                           ;MainSlave2.c: 186:     PR2 = 250;
   679  0F7B  30FA               	movlw	250
   680  0F7C  0092               	movwf	18	;volatile
   681  0F7D                     l1970:
   682                           
   683                           ;MainSlave2.c: 187:     CCP1CON = 0B00001100;
   684  0F7D  300C               	movlw	12
   685  0F7E  1283               	bcf	3,5	;RP0=0, select bank0
   686  0F7F  1303               	bcf	3,6	;RP1=0, select bank0
   687  0F80  0097               	movwf	23	;volatile
   688  0F81                     l1972:
   689                           
   690                           ;MainSlave2.c: 188:     CCP2CON = 0B00001111;
   691  0F81  300F               	movlw	15
   692  0F82  009D               	movwf	29	;volatile
   693  0F83                     l71:
   694  0F83  0008               	return
   695  0F84                     __end_of_setup:
   696                           
   697                           	psect	text2
   698  0605                     __ptext2:	
   699 ;; *************** function _canales *****************
   700 ;; Defined at:
   701 ;;		line 222 in file "MainSlave2.c"
   702 ;; Parameters:    Size  Location     Type
   703 ;;		None
   704 ;; Auto vars:     Size  Location     Type
   705 ;;		None
   706 ;; Return value:  Size  Location     Type
   707 ;;                  1    wreg      void 
   708 ;; Registers used:
   709 ;;		wreg, fsr0l, fsr0h, status,2, status,0, btemp+1, pclath, cstack
   710 ;; Tracked objects:
   711 ;;		On entry : 0/0
   712 ;;		On exit  : 0/0
   713 ;;		Unchanged: 0/0
   714 ;; Data sizes:     COMMON   BANK0   BANK1   BANK3   BANK2
   715 ;;      Params:         0       0       0       0       0
   716 ;;      Locals:         0       4       0       0       0
   717 ;;      Temps:          0       4       0       0       0
   718 ;;      Totals:         0       8       0       0       0
   719 ;;Total ram usage:        8 bytes
   720 ;; Hardware stack levels used:    1
   721 ;; Hardware stack levels required when called:    3
   722 ;; This function calls:
   723 ;;		___fladd
   724 ;;		___flmul
   725 ;;		___fltol
   726 ;;		___xxtofl
   727 ;; This function is called by:
   728 ;;		_main
   729 ;; This function uses a non-reentrant model
   730 ;;
   731                           
   732                           
   733                           ;psect for function _canales
   734  0605                     _canales:
   735  0605                     l1974:	
   736                           ;incstack = 0
   737                           ; Regs used in _canales: [wreg-fsr0h+status,2+status,0+btemp+1+pclath+cstack]
   738                           
   739                           
   740                           ;MainSlave2.c: 223:     if(ADCON0bits.GO == 0){
   741  0605  1283               	bcf	3,5	;RP0=0, select bank0
   742  0606  1303               	bcf	3,6	;RP1=0, select bank0
   743  0607  189F               	btfsc	31,1	;volatile
   744  0608  2E0A               	goto	u2651
   745  0609  2E0B               	goto	u2650
   746  060A                     u2651:
   747  060A  2F21               	goto	l88
   748  060B                     u2650:
   749  060B  2F0E               	goto	l1996
   750  060C                     l1978:
   751                           
   752                           ;MainSlave2.c: 226:                 CCPR1L = 2*((0.247*VAL)+62);
   753  060C  086F               	movf	_VAL,w
   754  060D  00E7               	movwf	??_canales
   755  060E  01E8               	clrf	??_canales+1
   756  060F  01E9               	clrf	??_canales+2
   757  0610  01EA               	clrf	??_canales+3
   758  0611  086A               	movf	??_canales+3,w
   759  0612  00A3               	movwf	___xxtofl@val+3
   760  0613  0869               	movf	??_canales+2,w
   761  0614  00A2               	movwf	___xxtofl@val+2
   762  0615  0868               	movf	??_canales+1,w
   763  0616  00A1               	movwf	___xxtofl@val+1
   764  0617  0867               	movf	??_canales,w
   765  0618  00A0               	movwf	___xxtofl@val
   766  0619  3001               	movlw	1
   767  061A  120A  118A  2722  120A  118A  	fcall	___xxtofl
   768  061F  1283               	bcf	3,5	;RP0=0, select bank0
   769  0620  1303               	bcf	3,6	;RP1=0, select bank0
   770  0621  0823               	movf	?___xxtofl+3,w
   771  0622  00B5               	movwf	___flmul@a+3
   772  0623  0822               	movf	?___xxtofl+2,w
   773  0624  00B4               	movwf	___flmul@a+2
   774  0625  0821               	movf	?___xxtofl+1,w
   775  0626  00B3               	movwf	___flmul@a+1
   776  0627  0820               	movf	?___xxtofl,w
   777  0628  00B2               	movwf	___flmul@a
   778  0629  303E               	movlw	62
   779  062A  00B1               	movwf	___flmul@b+3
   780  062B  307C               	movlw	124
   781  062C  00B0               	movwf	___flmul@b+2
   782  062D  30ED               	movlw	237
   783  062E  00AF               	movwf	___flmul@b+1
   784  062F  3091               	movlw	145
   785  0630  00AE               	movwf	___flmul@b
   786  0631  120A  118A  201C  120A  118A  	fcall	___flmul
   787  0636  1283               	bcf	3,5	;RP0=0, select bank0
   788  0637  1303               	bcf	3,6	;RP1=0, select bank0
   789  0638  0831               	movf	?___flmul+3,w
   790  0639  00CF               	movwf	___fladd@a+3
   791  063A  0830               	movf	?___flmul+2,w
   792  063B  00CE               	movwf	___fladd@a+2
   793  063C  082F               	movf	?___flmul+1,w
   794  063D  00CD               	movwf	___fladd@a+1
   795  063E  082E               	movf	?___flmul,w
   796  063F  00CC               	movwf	___fladd@a
   797  0640  3042               	movlw	66
   798  0641  00CB               	movwf	___fladd@b+3
   799  0642  3078               	movlw	120
   800  0643  00CA               	movwf	___fladd@b+2
   801  0644  3000               	movlw	0
   802  0645  00C9               	movwf	___fladd@b+1
   803  0646  3000               	movlw	0
   804  0647  00C8               	movwf	___fladd@b
   805  0648  120A  118A  237D  120A  118A  	fcall	___fladd
   806  064D  1283               	bcf	3,5	;RP0=0, select bank0
   807  064E  1303               	bcf	3,6	;RP1=0, select bank0
   808  064F  084B               	movf	?___fladd+3,w
   809  0650  00EE               	movwf	_canales$882+3
   810  0651  084A               	movf	?___fladd+2,w
   811  0652  00ED               	movwf	_canales$882+2
   812  0653  0849               	movf	?___fladd+1,w
   813  0654  00EC               	movwf	_canales$882+1
   814  0655  0848               	movf	?___fladd,w
   815  0656  00EB               	movwf	_canales$882
   816                           
   817                           ;MainSlave2.c: 226:                 CCPR1L = 2*((0.247*VAL)+62);
   818  0657  086E               	movf	_canales$882+3,w
   819  0658  00B5               	movwf	___flmul@a+3
   820  0659  086D               	movf	_canales$882+2,w
   821  065A  00B4               	movwf	___flmul@a+2
   822  065B  086C               	movf	_canales$882+1,w
   823  065C  00B3               	movwf	___flmul@a+1
   824  065D  086B               	movf	_canales$882,w
   825  065E  00B2               	movwf	___flmul@a
   826  065F  3040               	movlw	64
   827  0660  00B1               	movwf	___flmul@b+3
   828  0661  3000               	movlw	0
   829  0662  00B0               	movwf	___flmul@b+2
   830  0663  3000               	movlw	0
   831  0664  00AF               	movwf	___flmul@b+1
   832  0665  3000               	movlw	0
   833  0666  00AE               	movwf	___flmul@b
   834  0667  120A  118A  201C  120A  118A  	fcall	___flmul
   835  066C  1283               	bcf	3,5	;RP0=0, select bank0
   836  066D  1303               	bcf	3,6	;RP1=0, select bank0
   837  066E  0831               	movf	?___flmul+3,w
   838  066F  00DF               	movwf	___fltol@f1+3
   839  0670  0830               	movf	?___flmul+2,w
   840  0671  00DE               	movwf	___fltol@f1+2
   841  0672  082F               	movf	?___flmul+1,w
   842  0673  00DD               	movwf	___fltol@f1+1
   843  0674  082E               	movf	?___flmul,w
   844  0675  00DC               	movwf	___fltol@f1
   845  0676  120A  158A  2784  120A  118A  	fcall	___fltol
   846  067B  1283               	bcf	3,5	;RP0=0, select bank0
   847  067C  1303               	bcf	3,6	;RP1=0, select bank0
   848  067D  085C               	movf	?___fltol,w
   849  067E  0095               	movwf	21	;volatile
   850  067F                     l1980:
   851                           
   852                           ;MainSlave2.c: 227:                 ADCON0bits.CHS = 1;
   853  067F  081F               	movf	31,w	;volatile
   854  0680  39C3               	andlw	-61
   855  0681  3804               	iorlw	4
   856  0682  009F               	movwf	31	;volatile
   857  0683                     l1982:
   858                           
   859                           ;MainSlave2.c: 228:                 _delay((unsigned long)((100)*(8000000/4000000.0)));
   860  0683  3041               	movlw	65
   861  0684  1283               	bcf	3,5	;RP0=0, select bank0
   862  0685  1303               	bcf	3,6	;RP1=0, select bank0
   863  0686  00E7               	movwf	??_canales
   864  0687                     u2677:
   865  0687  0BE7               	decfsz	??_canales,f
   866  0688  2E87               	goto	u2677
   867  0689  2E8A               	nop2
   868  068A                     l1984:
   869                           
   870                           ;MainSlave2.c: 229:                 ADCON0bits.GO = 1;
   871  068A  1283               	bcf	3,5	;RP0=0, select bank0
   872  068B  1303               	bcf	3,6	;RP1=0, select bank0
   873  068C  149F               	bsf	31,1	;volatile
   874                           
   875                           ;MainSlave2.c: 230:                 break;
   876  068D  2F21               	goto	l88
   877  068E                     l1986:
   878                           
   879                           ;MainSlave2.c: 233:                 CCPR2L = 2*((0.247*VAL2)+62);
   880  068E  0879               	movf	_VAL2,w
   881  068F  00E7               	movwf	??_canales
   882  0690  01E8               	clrf	??_canales+1
   883  0691  01E9               	clrf	??_canales+2
   884  0692  01EA               	clrf	??_canales+3
   885  0693  086A               	movf	??_canales+3,w
   886  0694  00A3               	movwf	___xxtofl@val+3
   887  0695  0869               	movf	??_canales+2,w
   888  0696  00A2               	movwf	___xxtofl@val+2
   889  0697  0868               	movf	??_canales+1,w
   890  0698  00A1               	movwf	___xxtofl@val+1
   891  0699  0867               	movf	??_canales,w
   892  069A  00A0               	movwf	___xxtofl@val
   893  069B  3001               	movlw	1
   894  069C  120A  118A  2722  120A  118A  	fcall	___xxtofl
   895  06A1  1283               	bcf	3,5	;RP0=0, select bank0
   896  06A2  1303               	bcf	3,6	;RP1=0, select bank0
   897  06A3  0823               	movf	?___xxtofl+3,w
   898  06A4  00B5               	movwf	___flmul@a+3
   899  06A5  0822               	movf	?___xxtofl+2,w
   900  06A6  00B4               	movwf	___flmul@a+2
   901  06A7  0821               	movf	?___xxtofl+1,w
   902  06A8  00B3               	movwf	___flmul@a+1
   903  06A9  0820               	movf	?___xxtofl,w
   904  06AA  00B2               	movwf	___flmul@a
   905  06AB  303E               	movlw	62
   906  06AC  00B1               	movwf	___flmul@b+3
   907  06AD  307C               	movlw	124
   908  06AE  00B0               	movwf	___flmul@b+2
   909  06AF  30ED               	movlw	237
   910  06B0  00AF               	movwf	___flmul@b+1
   911  06B1  3091               	movlw	145
   912  06B2  00AE               	movwf	___flmul@b
   913  06B3  120A  118A  201C  120A  118A  	fcall	___flmul
   914  06B8  1283               	bcf	3,5	;RP0=0, select bank0
   915  06B9  1303               	bcf	3,6	;RP1=0, select bank0
   916  06BA  0831               	movf	?___flmul+3,w
   917  06BB  00CF               	movwf	___fladd@a+3
   918  06BC  0830               	movf	?___flmul+2,w
   919  06BD  00CE               	movwf	___fladd@a+2
   920  06BE  082F               	movf	?___flmul+1,w
   921  06BF  00CD               	movwf	___fladd@a+1
   922  06C0  082E               	movf	?___flmul,w
   923  06C1  00CC               	movwf	___fladd@a
   924  06C2  3042               	movlw	66
   925  06C3  00CB               	movwf	___fladd@b+3
   926  06C4  3078               	movlw	120
   927  06C5  00CA               	movwf	___fladd@b+2
   928  06C6  3000               	movlw	0
   929  06C7  00C9               	movwf	___fladd@b+1
   930  06C8  3000               	movlw	0
   931  06C9  00C8               	movwf	___fladd@b
   932  06CA  120A  118A  237D  120A  118A  	fcall	___fladd
   933  06CF  1283               	bcf	3,5	;RP0=0, select bank0
   934  06D0  1303               	bcf	3,6	;RP1=0, select bank0
   935  06D1  084B               	movf	?___fladd+3,w
   936  06D2  00EE               	movwf	_canales$882+3
   937  06D3  084A               	movf	?___fladd+2,w
   938  06D4  00ED               	movwf	_canales$882+2
   939  06D5  0849               	movf	?___fladd+1,w
   940  06D6  00EC               	movwf	_canales$882+1
   941  06D7  0848               	movf	?___fladd,w
   942  06D8  00EB               	movwf	_canales$882
   943                           
   944                           ;MainSlave2.c: 233:                 CCPR2L = 2*((0.247*VAL2)+62);
   945  06D9  086E               	movf	_canales$882+3,w
   946  06DA  00B5               	movwf	___flmul@a+3
   947  06DB  086D               	movf	_canales$882+2,w
   948  06DC  00B4               	movwf	___flmul@a+2
   949  06DD  086C               	movf	_canales$882+1,w
   950  06DE  00B3               	movwf	___flmul@a+1
   951  06DF  086B               	movf	_canales$882,w
   952  06E0  00B2               	movwf	___flmul@a
   953  06E1  3040               	movlw	64
   954  06E2  00B1               	movwf	___flmul@b+3
   955  06E3  3000               	movlw	0
   956  06E4  00B0               	movwf	___flmul@b+2
   957  06E5  3000               	movlw	0
   958  06E6  00AF               	movwf	___flmul@b+1
   959  06E7  3000               	movlw	0
   960  06E8  00AE               	movwf	___flmul@b
   961  06E9  120A  118A  201C  120A  118A  	fcall	___flmul
   962  06EE  1283               	bcf	3,5	;RP0=0, select bank0
   963  06EF  1303               	bcf	3,6	;RP1=0, select bank0
   964  06F0  0831               	movf	?___flmul+3,w
   965  06F1  00DF               	movwf	___fltol@f1+3
   966  06F2  0830               	movf	?___flmul+2,w
   967  06F3  00DE               	movwf	___fltol@f1+2
   968  06F4  082F               	movf	?___flmul+1,w
   969  06F5  00DD               	movwf	___fltol@f1+1
   970  06F6  082E               	movf	?___flmul,w
   971  06F7  00DC               	movwf	___fltol@f1
   972  06F8  120A  158A  2784  120A  118A  	fcall	___fltol
   973  06FD  1283               	bcf	3,5	;RP0=0, select bank0
   974  06FE  1303               	bcf	3,6	;RP1=0, select bank0
   975  06FF  085C               	movf	?___fltol,w
   976  0700  009B               	movwf	27	;volatile
   977  0701                     l1988:
   978                           
   979                           ;MainSlave2.c: 234:                 ADCON0bits.CHS = 0;
   980  0701  30C3               	movlw	-61
   981  0702  059F               	andwf	31,f	;volatile
   982  0703                     l1990:
   983                           
   984                           ;MainSlave2.c: 235:                 _delay((unsigned long)((100)*(8000000/4000000.0)));
   985  0703  3041               	movlw	65
   986  0704  1283               	bcf	3,5	;RP0=0, select bank0
   987  0705  1303               	bcf	3,6	;RP1=0, select bank0
   988  0706  00E7               	movwf	??_canales
   989  0707                     u2687:
   990  0707  0BE7               	decfsz	??_canales,f
   991  0708  2F07               	goto	u2687
   992  0709  2F0A               	nop2
   993  070A                     l1992:
   994                           
   995                           ;MainSlave2.c: 236:                 ADCON0bits.GO = 1;
   996  070A  1283               	bcf	3,5	;RP0=0, select bank0
   997  070B  1303               	bcf	3,6	;RP1=0, select bank0
   998  070C  149F               	bsf	31,1	;volatile
   999                           
  1000                           ;MainSlave2.c: 237:                 break;
  1001  070D  2F21               	goto	l88
  1002  070E                     l1996:
  1003  070E  0C1F               	rrf	31,w	;volatile
  1004  070F  00E7               	movwf	??_canales
  1005  0710  0C67               	rrf	??_canales,w
  1006  0711  390F               	andlw	15
  1007  0712  00E8               	movwf	??_canales+1
  1008  0713  01E9               	clrf	??_canales+2
  1009                           
  1010                           ; Switch on 2 bytes has been partitioned into a top level switch of size 1, and 1 sub-sw
      +                          itches
  1011                           ; Switch size 1, requested type "simple"
  1012                           ; Number of cases is 1, Range of values is 0 to 0
  1013                           ; switch strategies available:
  1014                           ; Name         Instructions Cycles
  1015                           ; simple_byte            4     3 (average)
  1016                           ; direct_byte           11     8 (fixed)
  1017                           ; jumptable            260     6 (fixed)
  1018                           ;	Chosen strategy is simple_byte
  1019  0714  0869               	movf	??_canales+2,w
  1020  0715  3A00               	xorlw	0	; case 0
  1021  0716  1903               	skipnz
  1022  0717  2F19               	goto	l2046
  1023  0718  2F21               	goto	l88
  1024  0719                     l2046:
  1025                           
  1026                           ; Switch size 1, requested type "simple"
  1027                           ; Number of cases is 2, Range of values is 0 to 1
  1028                           ; switch strategies available:
  1029                           ; Name         Instructions Cycles
  1030                           ; simple_byte            7     4 (average)
  1031                           ; direct_byte           14     8 (fixed)
  1032                           ; jumptable            260     6 (fixed)
  1033                           ;	Chosen strategy is simple_byte
  1034  0719  0868               	movf	??_canales+1,w
  1035  071A  3A00               	xorlw	0	; case 0
  1036  071B  1903               	skipnz
  1037  071C  2E0C               	goto	l1978
  1038  071D  3A01               	xorlw	1	; case 1
  1039  071E  1903               	skipnz
  1040  071F  2E8E               	goto	l1986
  1041  0720  2F21               	goto	l88
  1042  0721                     l88:
  1043  0721  0008               	return
  1044  0722                     __end_of_canales:
  1045                           
  1046                           	psect	text3
  1047  0722                     __ptext3:	
  1048 ;; *************** function ___xxtofl *****************
  1049 ;; Defined at:
  1050 ;;		line 10 in file "C:\Program Files\Microchip\xc8\v2.31\pic\sources\c90\common\xxtofl.c"
  1051 ;; Parameters:    Size  Location     Type
  1052 ;;  sign            1    wreg     unsigned char 
  1053 ;;  val             4    0[BANK0 ] long 
  1054 ;; Auto vars:     Size  Location     Type
  1055 ;;  sign            1    8[BANK0 ] unsigned char 
  1056 ;;  arg             4   10[BANK0 ] unsigned long 
  1057 ;;  exp             1    9[BANK0 ] unsigned char 
  1058 ;; Return value:  Size  Location     Type
  1059 ;;                  4    0[BANK0 ] unsigned char 
  1060 ;; Registers used:
  1061 ;;		wreg, status,2, status,0
  1062 ;; Tracked objects:
  1063 ;;		On entry : 0/0
  1064 ;;		On exit  : 0/0
  1065 ;;		Unchanged: 0/0
  1066 ;; Data sizes:     COMMON   BANK0   BANK1   BANK3   BANK2
  1067 ;;      Params:         0       4       0       0       0
  1068 ;;      Locals:         0       6       0       0       0
  1069 ;;      Temps:          0       4       0       0       0
  1070 ;;      Totals:         0      14       0       0       0
  1071 ;;Total ram usage:       14 bytes
  1072 ;; Hardware stack levels used:    1
  1073 ;; Hardware stack levels required when called:    1
  1074 ;; This function calls:
  1075 ;;		Nothing
  1076 ;; This function is called by:
  1077 ;;		_canales
  1078 ;; This function uses a non-reentrant model
  1079 ;;
  1080                           
  1081                           
  1082                           ;psect for function ___xxtofl
  1083  0722                     ___xxtofl:
  1084                           
  1085                           ;incstack = 0
  1086                           ; Regs used in ___xxtofl: [wreg+status,2+status,0]
  1087                           ;___xxtofl@sign stored from wreg
  1088  0722  1283               	bcf	3,5	;RP0=0, select bank0
  1089  0723  1303               	bcf	3,6	;RP1=0, select bank0
  1090  0724  00A8               	movwf	___xxtofl@sign
  1091  0725                     l1634:
  1092  0725  0828               	movf	___xxtofl@sign,w
  1093  0726  1903               	btfsc	3,2
  1094  0727  2F29               	goto	u2091
  1095  0728  2F2A               	goto	u2090
  1096  0729                     u2091:
  1097  0729  2F3E               	goto	l1640
  1098  072A                     u2090:
  1099  072A                     l1636:
  1100  072A  1FA3               	btfss	___xxtofl@val+3,7
  1101  072B  2F2D               	goto	u2101
  1102  072C  2F2E               	goto	u2100
  1103  072D                     u2101:
  1104  072D  2F3E               	goto	l1640
  1105  072E                     u2100:
  1106  072E                     l1638:
  1107  072E  0920               	comf	___xxtofl@val,w
  1108  072F  00AA               	movwf	___xxtofl@arg
  1109  0730  0921               	comf	___xxtofl@val+1,w
  1110  0731  00AB               	movwf	___xxtofl@arg+1
  1111  0732  0922               	comf	___xxtofl@val+2,w
  1112  0733  00AC               	movwf	___xxtofl@arg+2
  1113  0734  0923               	comf	___xxtofl@val+3,w
  1114  0735  00AD               	movwf	___xxtofl@arg+3
  1115  0736  0AAA               	incf	___xxtofl@arg,f
  1116  0737  1903               	skipnz
  1117  0738  0AAB               	incf	___xxtofl@arg+1,f
  1118  0739  1903               	skipnz
  1119  073A  0AAC               	incf	___xxtofl@arg+2,f
  1120  073B  1903               	skipnz
  1121  073C  0AAD               	incf	___xxtofl@arg+3,f
  1122  073D  2F46               	goto	l607
  1123  073E                     l1640:
  1124  073E  0823               	movf	___xxtofl@val+3,w
  1125  073F  00AD               	movwf	___xxtofl@arg+3
  1126  0740  0822               	movf	___xxtofl@val+2,w
  1127  0741  00AC               	movwf	___xxtofl@arg+2
  1128  0742  0821               	movf	___xxtofl@val+1,w
  1129  0743  00AB               	movwf	___xxtofl@arg+1
  1130  0744  0820               	movf	___xxtofl@val,w
  1131  0745  00AA               	movwf	___xxtofl@arg
  1132  0746                     l607:
  1133  0746  0823               	movf	___xxtofl@val+3,w
  1134  0747  0422               	iorwf	___xxtofl@val+2,w
  1135  0748  0421               	iorwf	___xxtofl@val+1,w
  1136  0749  0420               	iorwf	___xxtofl@val,w
  1137  074A  1D03               	skipz
  1138  074B  2F4D               	goto	u2111
  1139  074C  2F4E               	goto	u2110
  1140  074D                     u2111:
  1141  074D  2F57               	goto	l1646
  1142  074E                     u2110:
  1143  074E                     l1642:
  1144  074E  3000               	movlw	0
  1145  074F  00A3               	movwf	?___xxtofl+3
  1146  0750  3000               	movlw	0
  1147  0751  00A2               	movwf	?___xxtofl+2
  1148  0752  3000               	movlw	0
  1149  0753  00A1               	movwf	?___xxtofl+1
  1150  0754  3000               	movlw	0
  1151  0755  00A0               	movwf	?___xxtofl
  1152  0756  2FDD               	goto	l609
  1153  0757                     l1646:
  1154  0757  3096               	movlw	150
  1155  0758  00A4               	movwf	??___xxtofl
  1156  0759  0824               	movf	??___xxtofl,w
  1157  075A  00A9               	movwf	___xxtofl@exp
  1158  075B  2F69               	goto	l1650
  1159  075C                     l1648:
  1160  075C  3001               	movlw	1
  1161  075D  00A4               	movwf	??___xxtofl
  1162  075E  0824               	movf	??___xxtofl,w
  1163  075F  07A9               	addwf	___xxtofl@exp,f
  1164  0760  3001               	movlw	1
  1165  0761                     u2125:
  1166  0761  1003               	clrc
  1167  0762  0CAD               	rrf	___xxtofl@arg+3,f
  1168  0763  0CAC               	rrf	___xxtofl@arg+2,f
  1169  0764  0CAB               	rrf	___xxtofl@arg+1,f
  1170  0765  0CAA               	rrf	___xxtofl@arg,f
  1171  0766  3EFF               	addlw	-1
  1172  0767  1D03               	skipz
  1173  0768  2F61               	goto	u2125
  1174  0769                     l1650:
  1175  0769  30FE               	movlw	254
  1176  076A  052D               	andwf	___xxtofl@arg+3,w
  1177  076B  1D03               	btfss	3,2
  1178  076C  2F6E               	goto	u2131
  1179  076D  2F6F               	goto	u2130
  1180  076E                     u2131:
  1181  076E  2F5C               	goto	l1648
  1182  076F                     u2130:
  1183  076F  2F8B               	goto	l613
  1184  0770                     l1652:
  1185  0770  3001               	movlw	1
  1186  0771  00A4               	movwf	??___xxtofl
  1187  0772  0824               	movf	??___xxtofl,w
  1188  0773  07A9               	addwf	___xxtofl@exp,f
  1189  0774                     l1654:
  1190  0774  3001               	movlw	1
  1191  0775  07AA               	addwf	___xxtofl@arg,f
  1192  0776  3000               	movlw	0
  1193  0777  1803               	skipnc
  1194  0778  3001               	movlw	1
  1195  0779  07AB               	addwf	___xxtofl@arg+1,f
  1196  077A  3000               	movlw	0
  1197  077B  1803               	skipnc
  1198  077C  3001               	movlw	1
  1199  077D  07AC               	addwf	___xxtofl@arg+2,f
  1200  077E  3000               	movlw	0
  1201  077F  1803               	skipnc
  1202  0780  3001               	movlw	1
  1203  0781  07AD               	addwf	___xxtofl@arg+3,f
  1204  0782                     l1656:
  1205  0782  3001               	movlw	1
  1206  0783                     u2145:
  1207  0783  1003               	clrc
  1208  0784  0CAD               	rrf	___xxtofl@arg+3,f
  1209  0785  0CAC               	rrf	___xxtofl@arg+2,f
  1210  0786  0CAB               	rrf	___xxtofl@arg+1,f
  1211  0787  0CAA               	rrf	___xxtofl@arg,f
  1212  0788  3EFF               	addlw	-1
  1213  0789  1D03               	skipz
  1214  078A  2F83               	goto	u2145
  1215  078B                     l613:
  1216  078B  30FF               	movlw	255
  1217  078C  052D               	andwf	___xxtofl@arg+3,w
  1218  078D  1D03               	btfss	3,2
  1219  078E  2F90               	goto	u2151
  1220  078F  2F91               	goto	u2150
  1221  0790                     u2151:
  1222  0790  2F70               	goto	l1652
  1223  0791                     u2150:
  1224  0791  2F9D               	goto	l1660
  1225  0792                     l1658:
  1226  0792  3001               	movlw	1
  1227  0793  02A9               	subwf	___xxtofl@exp,f
  1228  0794  3001               	movlw	1
  1229  0795  00A4               	movwf	??___xxtofl
  1230  0796                     u2165:
  1231  0796  1003               	clrc
  1232  0797  0DAA               	rlf	___xxtofl@arg,f
  1233  0798  0DAB               	rlf	___xxtofl@arg+1,f
  1234  0799  0DAC               	rlf	___xxtofl@arg+2,f
  1235  079A  0DAD               	rlf	___xxtofl@arg+3,f
  1236  079B  0BA4               	decfsz	??___xxtofl,f
  1237  079C  2F96               	goto	u2165
  1238  079D                     l1660:
  1239  079D  1BAC               	btfsc	___xxtofl@arg+2,7
  1240  079E  2FA0               	goto	u2171
  1241  079F  2FA1               	goto	u2170
  1242  07A0                     u2171:
  1243  07A0  2FA7               	goto	l620
  1244  07A1                     u2170:
  1245  07A1                     l1662:
  1246  07A1  3002               	movlw	2
  1247  07A2  0229               	subwf	___xxtofl@exp,w
  1248  07A3  1803               	skipnc
  1249  07A4  2FA6               	goto	u2181
  1250  07A5  2FA7               	goto	u2180
  1251  07A6                     u2181:
  1252  07A6  2F92               	goto	l1658
  1253  07A7                     u2180:
  1254  07A7                     l620:
  1255  07A7  1829               	btfsc	___xxtofl@exp,0
  1256  07A8  2FAA               	goto	u2191
  1257  07A9  2FAB               	goto	u2190
  1258  07AA                     u2191:
  1259  07AA  2FB3               	goto	l621
  1260  07AB                     u2190:
  1261  07AB                     l1664:
  1262  07AB  30FF               	movlw	255
  1263  07AC  05AA               	andwf	___xxtofl@arg,f
  1264  07AD  30FF               	movlw	255
  1265  07AE  05AB               	andwf	___xxtofl@arg+1,f
  1266  07AF  307F               	movlw	127
  1267  07B0  05AC               	andwf	___xxtofl@arg+2,f
  1268  07B1  30FF               	movlw	255
  1269  07B2  05AD               	andwf	___xxtofl@arg+3,f
  1270  07B3                     l621:
  1271  07B3  1003               	clrc
  1272  07B4  0CA9               	rrf	___xxtofl@exp,f
  1273  07B5                     l1666:
  1274  07B5  0829               	movf	___xxtofl@exp,w
  1275  07B6  00A4               	movwf	??___xxtofl
  1276  07B7  01A5               	clrf	??___xxtofl+1
  1277  07B8  01A6               	clrf	??___xxtofl+2
  1278  07B9  01A7               	clrf	??___xxtofl+3
  1279  07BA  3018               	movlw	24
  1280  07BB                     u2205:
  1281  07BB  1003               	clrc
  1282  07BC  0DA4               	rlf	??___xxtofl,f
  1283  07BD  0DA5               	rlf	??___xxtofl+1,f
  1284  07BE  0DA6               	rlf	??___xxtofl+2,f
  1285  07BF  0DA7               	rlf	??___xxtofl+3,f
  1286  07C0                     u2200:
  1287  07C0  3EFF               	addlw	-1
  1288  07C1  1D03               	skipz
  1289  07C2  2FBB               	goto	u2205
  1290  07C3  0824               	movf	??___xxtofl,w
  1291  07C4  04AA               	iorwf	___xxtofl@arg,f
  1292  07C5  0825               	movf	??___xxtofl+1,w
  1293  07C6  04AB               	iorwf	___xxtofl@arg+1,f
  1294  07C7  0826               	movf	??___xxtofl+2,w
  1295  07C8  04AC               	iorwf	___xxtofl@arg+2,f
  1296  07C9  0827               	movf	??___xxtofl+3,w
  1297  07CA  04AD               	iorwf	___xxtofl@arg+3,f
  1298  07CB                     l1668:
  1299  07CB  0828               	movf	___xxtofl@sign,w
  1300  07CC  1903               	btfsc	3,2
  1301  07CD  2FCF               	goto	u2211
  1302  07CE  2FD0               	goto	u2210
  1303  07CF                     u2211:
  1304  07CF  2FD5               	goto	l1674
  1305  07D0                     u2210:
  1306  07D0                     l1670:
  1307  07D0  1FA3               	btfss	___xxtofl@val+3,7
  1308  07D1  2FD3               	goto	u2221
  1309  07D2  2FD4               	goto	u2220
  1310  07D3                     u2221:
  1311  07D3  2FD5               	goto	l1674
  1312  07D4                     u2220:
  1313  07D4                     l1672:
  1314  07D4  17AD               	bsf	___xxtofl@arg+3,7
  1315  07D5                     l1674:
  1316  07D5  082D               	movf	___xxtofl@arg+3,w
  1317  07D6  00A3               	movwf	?___xxtofl+3
  1318  07D7  082C               	movf	___xxtofl@arg+2,w
  1319  07D8  00A2               	movwf	?___xxtofl+2
  1320  07D9  082B               	movf	___xxtofl@arg+1,w
  1321  07DA  00A1               	movwf	?___xxtofl+1
  1322  07DB  082A               	movf	___xxtofl@arg,w
  1323  07DC  00A0               	movwf	?___xxtofl
  1324  07DD                     l609:
  1325  07DD  0008               	return
  1326  07DE                     __end_of___xxtofl:
  1327                           
  1328                           	psect	text4
  1329  0F84                     __ptext4:	
  1330 ;; *************** function ___fltol *****************
  1331 ;; Defined at:
  1332 ;;		line 43 in file "C:\Program Files\Microchip\xc8\v2.31\pic\sources\c90\common\fltol.c"
  1333 ;; Parameters:    Size  Location     Type
  1334 ;;  f1              4   60[BANK0 ] unsigned char 
  1335 ;; Auto vars:     Size  Location     Type
  1336 ;;  exp1            1   70[BANK0 ] unsigned char 
  1337 ;;  sign1           1   69[BANK0 ] unsigned char 
  1338 ;; Return value:  Size  Location     Type
  1339 ;;                  4   60[BANK0 ] long 
  1340 ;; Registers used:
  1341 ;;		wreg, status,2, status,0
  1342 ;; Tracked objects:
  1343 ;;		On entry : 0/0
  1344 ;;		On exit  : 0/0
  1345 ;;		Unchanged: 0/0
  1346 ;; Data sizes:     COMMON   BANK0   BANK1   BANK3   BANK2
  1347 ;;      Params:         0       4       0       0       0
  1348 ;;      Locals:         0       2       0       0       0
  1349 ;;      Temps:          0       5       0       0       0
  1350 ;;      Totals:         0      11       0       0       0
  1351 ;;Total ram usage:       11 bytes
  1352 ;; Hardware stack levels used:    1
  1353 ;; Hardware stack levels required when called:    1
  1354 ;; This function calls:
  1355 ;;		Nothing
  1356 ;; This function is called by:
  1357 ;;		_canales
  1358 ;; This function uses a non-reentrant model
  1359 ;;
  1360                           
  1361                           
  1362                           ;psect for function ___fltol
  1363  0F84                     ___fltol:
  1364  0F84                     l1264:	
  1365                           ;incstack = 0
  1366                           ; Regs used in ___fltol: [wreg+status,2+status,0]
  1367                           
  1368  0F84  1003               	clrc
  1369  0F85  1283               	bcf	3,5	;RP0=0, select bank0
  1370  0F86  1303               	bcf	3,6	;RP1=0, select bank0
  1371  0F87  0D5E               	rlf	___fltol@f1+2,w
  1372  0F88  0D5F               	rlf	___fltol@f1+3,w
  1373  0F89  00E0               	movwf	??___fltol
  1374  0F8A  0860               	movf	??___fltol,w
  1375  0F8B  00E6               	movwf	___fltol@exp1
  1376  0F8C  0866               	movf	___fltol@exp1,w
  1377  0F8D  1D03               	btfss	3,2
  1378  0F8E  2F90               	goto	u1161
  1379  0F8F  2F91               	goto	u1160
  1380  0F90                     u1161:
  1381  0F90  2F9A               	goto	l1270
  1382  0F91                     u1160:
  1383  0F91                     l1266:
  1384  0F91  3000               	movlw	0
  1385  0F92  00DF               	movwf	?___fltol+3
  1386  0F93  3000               	movlw	0
  1387  0F94  00DE               	movwf	?___fltol+2
  1388  0F95  3000               	movlw	0
  1389  0F96  00DD               	movwf	?___fltol+1
  1390  0F97  3000               	movlw	0
  1391  0F98  00DC               	movwf	?___fltol
  1392  0F99  2FFF               	goto	l360
  1393  0F9A                     l1270:
  1394  0F9A  085C               	movf	___fltol@f1,w
  1395  0F9B  00E0               	movwf	??___fltol
  1396  0F9C  085D               	movf	___fltol@f1+1,w
  1397  0F9D  00E1               	movwf	??___fltol+1
  1398  0F9E  085E               	movf	___fltol@f1+2,w
  1399  0F9F  00E2               	movwf	??___fltol+2
  1400  0FA0  085F               	movf	___fltol@f1+3,w
  1401  0FA1  00E3               	movwf	??___fltol+3
  1402  0FA2  301F               	movlw	31
  1403  0FA3                     u1175:
  1404  0FA3  1003               	clrc
  1405  0FA4  0CE3               	rrf	??___fltol+3,f
  1406  0FA5  0CE2               	rrf	??___fltol+2,f
  1407  0FA6  0CE1               	rrf	??___fltol+1,f
  1408  0FA7  0CE0               	rrf	??___fltol,f
  1409  0FA8                     u1170:
  1410  0FA8  3EFF               	addlw	-1
  1411  0FA9  1D03               	skipz
  1412  0FAA  2FA3               	goto	u1175
  1413  0FAB  0860               	movf	??___fltol,w
  1414  0FAC  00E4               	movwf	??___fltol+4
  1415  0FAD  0864               	movf	??___fltol+4,w
  1416  0FAE  00E5               	movwf	___fltol@sign1
  1417  0FAF                     l1272:
  1418  0FAF  17DE               	bsf	___fltol@f1+2,7
  1419  0FB0                     l1274:
  1420  0FB0  30FF               	movlw	255
  1421  0FB1  05DC               	andwf	___fltol@f1,f
  1422  0FB2  30FF               	movlw	255
  1423  0FB3  05DD               	andwf	___fltol@f1+1,f
  1424  0FB4  30FF               	movlw	255
  1425  0FB5  05DE               	andwf	___fltol@f1+2,f
  1426  0FB6  3000               	movlw	0
  1427  0FB7  05DF               	andwf	___fltol@f1+3,f
  1428  0FB8                     l1276:
  1429  0FB8  3096               	movlw	150
  1430  0FB9  02E6               	subwf	___fltol@exp1,f
  1431  0FBA                     l1278:
  1432  0FBA  1FE6               	btfss	___fltol@exp1,7
  1433  0FBB  2FBD               	goto	u1181
  1434  0FBC  2FBE               	goto	u1180
  1435  0FBD                     u1181:
  1436  0FBD  2FD8               	goto	l1288
  1437  0FBE                     u1180:
  1438  0FBE                     l1280:
  1439  0FBE  0866               	movf	___fltol@exp1,w
  1440  0FBF  3A80               	xorlw	128
  1441  0FC0  3E97               	addlw	151
  1442  0FC1  1803               	skipnc
  1443  0FC2  2FC4               	goto	u1191
  1444  0FC3  2FC5               	goto	u1190
  1445  0FC4                     u1191:
  1446  0FC4  2FC6               	goto	l1286
  1447  0FC5                     u1190:
  1448  0FC5  2F91               	goto	l1266
  1449  0FC6                     l1286:
  1450  0FC6  3001               	movlw	1
  1451  0FC7                     u1205:
  1452  0FC7  1003               	clrc
  1453  0FC8  0CDF               	rrf	___fltol@f1+3,f
  1454  0FC9  0CDE               	rrf	___fltol@f1+2,f
  1455  0FCA  0CDD               	rrf	___fltol@f1+1,f
  1456  0FCB  0CDC               	rrf	___fltol@f1,f
  1457  0FCC  3EFF               	addlw	-1
  1458  0FCD  1D03               	skipz
  1459  0FCE  2FC7               	goto	u1205
  1460  0FCF  3001               	movlw	1
  1461  0FD0  00E0               	movwf	??___fltol
  1462  0FD1  0860               	movf	??___fltol,w
  1463  0FD2  07E6               	addwf	___fltol@exp1,f
  1464  0FD3  1D03               	btfss	3,2
  1465  0FD4  2FD6               	goto	u1211
  1466  0FD5  2FD7               	goto	u1210
  1467  0FD6                     u1211:
  1468  0FD6  2FC6               	goto	l1286
  1469  0FD7                     u1210:
  1470  0FD7  2FEF               	goto	l1296
  1471  0FD8                     l1288:
  1472  0FD8  3020               	movlw	32
  1473  0FD9  0266               	subwf	___fltol@exp1,w
  1474  0FDA  1C03               	skipc
  1475  0FDB  2FDD               	goto	u1221
  1476  0FDC  2FDE               	goto	u1220
  1477  0FDD                     u1221:
  1478  0FDD  2FEA               	goto	l367
  1479  0FDE                     u1220:
  1480  0FDE  2F91               	goto	l1266
  1481  0FDF                     l1294:
  1482  0FDF  3001               	movlw	1
  1483  0FE0  00E0               	movwf	??___fltol
  1484  0FE1                     u1235:
  1485  0FE1  1003               	clrc
  1486  0FE2  0DDC               	rlf	___fltol@f1,f
  1487  0FE3  0DDD               	rlf	___fltol@f1+1,f
  1488  0FE4  0DDE               	rlf	___fltol@f1+2,f
  1489  0FE5  0DDF               	rlf	___fltol@f1+3,f
  1490  0FE6  0BE0               	decfsz	??___fltol,f
  1491  0FE7  2FE1               	goto	u1235
  1492  0FE8  3001               	movlw	1
  1493  0FE9  02E6               	subwf	___fltol@exp1,f
  1494  0FEA                     l367:
  1495  0FEA  0866               	movf	___fltol@exp1,w
  1496  0FEB  1D03               	btfss	3,2
  1497  0FEC  2FEE               	goto	u1241
  1498  0FED  2FEF               	goto	u1240
  1499  0FEE                     u1241:
  1500  0FEE  2FDF               	goto	l1294
  1501  0FEF                     u1240:
  1502  0FEF                     l1296:
  1503  0FEF  0865               	movf	___fltol@sign1,w
  1504  0FF0  1903               	btfsc	3,2
  1505  0FF1  2FF3               	goto	u1251
  1506  0FF2  2FF4               	goto	u1250
  1507  0FF3                     u1251:
  1508  0FF3  2FFF               	goto	l370
  1509  0FF4                     u1250:
  1510  0FF4                     l1298:
  1511  0FF4  09DC               	comf	___fltol@f1,f
  1512  0FF5  09DD               	comf	___fltol@f1+1,f
  1513  0FF6  09DE               	comf	___fltol@f1+2,f
  1514  0FF7  09DF               	comf	___fltol@f1+3,f
  1515  0FF8  0ADC               	incf	___fltol@f1,f
  1516  0FF9  1903               	skipnz
  1517  0FFA  0ADD               	incf	___fltol@f1+1,f
  1518  0FFB  1903               	skipnz
  1519  0FFC  0ADE               	incf	___fltol@f1+2,f
  1520  0FFD  1903               	skipnz
  1521  0FFE  0ADF               	incf	___fltol@f1+3,f
  1522  0FFF                     l370:
  1523  0FFF                     l360:
  1524  0FFF  0008               	return
  1525  1000                     __end_of___fltol:
  1526                           
  1527                           	psect	text5
  1528  001C                     __ptext5:	
  1529 ;; *************** function ___flmul *****************
  1530 ;; Defined at:
  1531 ;;		line 8 in file "C:\Program Files\Microchip\xc8\v2.31\pic\sources\c90\common\sprcmul.c"
  1532 ;; Parameters:    Size  Location     Type
  1533 ;;  b               4   14[BANK0 ] long 
  1534 ;;  a               4   18[BANK0 ] long 
  1535 ;; Auto vars:     Size  Location     Type
  1536 ;;  prod            4   34[BANK0 ] struct .
  1537 ;;  grs             4   29[BANK0 ] unsigned long 
  1538 ;;  temp            2   38[BANK0 ] struct .
  1539 ;;  bexp            1   33[BANK0 ] unsigned char 
  1540 ;;  aexp            1   28[BANK0 ] unsigned char 
  1541 ;;  sign            1   27[BANK0 ] unsigned char 
  1542 ;; Return value:  Size  Location     Type
  1543 ;;                  4   14[BANK0 ] unsigned char 
  1544 ;; Registers used:
  1545 ;;		wreg, status,2, status,0, btemp+1, pclath, cstack
  1546 ;; Tracked objects:
  1547 ;;		On entry : 0/0
  1548 ;;		On exit  : 0/0
  1549 ;;		Unchanged: 0/0
  1550 ;; Data sizes:     COMMON   BANK0   BANK1   BANK3   BANK2
  1551 ;;      Params:         0       8       0       0       0
  1552 ;;      Locals:         0      13       0       0       0
  1553 ;;      Temps:          0       5       0       0       0
  1554 ;;      Totals:         0      26       0       0       0
  1555 ;;Total ram usage:       26 bytes
  1556 ;; Hardware stack levels used:    1
  1557 ;; Hardware stack levels required when called:    2
  1558 ;; This function calls:
  1559 ;;		__Umul8_16
  1560 ;; This function is called by:
  1561 ;;		_canales
  1562 ;; This function uses a non-reentrant model
  1563 ;;
  1564                           
  1565                           
  1566                           ;psect for function ___flmul
  1567  001C                     ___flmul:
  1568  001C                     l1780:	
  1569                           ;incstack = 0
  1570                           ; Regs used in ___flmul: [wreg+status,2+status,0+btemp+1+pclath+cstack]
  1571                           
  1572  001C  1283               	bcf	3,5	;RP0=0, select bank0
  1573  001D  1303               	bcf	3,6	;RP1=0, select bank0
  1574  001E  0831               	movf	___flmul@b+3,w
  1575  001F  3980               	andlw	128
  1576  0020  00B6               	movwf	??___flmul
  1577  0021  0836               	movf	??___flmul,w
  1578  0022  00BB               	movwf	___flmul@sign
  1579  0023                     l1782:
  1580  0023  0831               	movf	___flmul@b+3,w
  1581  0024  00B6               	movwf	??___flmul
  1582  0025  0736               	addwf	??___flmul,w
  1583  0026  00B7               	movwf	??___flmul+1
  1584  0027  0837               	movf	??___flmul+1,w
  1585  0028  00C1               	movwf	___flmul@bexp
  1586  0029                     l1784:
  1587  0029  1FB0               	btfss	___flmul@b+2,7
  1588  002A  282C               	goto	u2281
  1589  002B  282D               	goto	u2280
  1590  002C                     u2281:
  1591  002C  282E               	goto	l1788
  1592  002D                     u2280:
  1593  002D                     l1786:
  1594  002D  1441               	bsf	___flmul@bexp,0
  1595  002E                     l1788:
  1596  002E  0841               	movf	___flmul@bexp,w
  1597  002F  1903               	btfsc	3,2
  1598  0030  2832               	goto	u2291
  1599  0031  2833               	goto	u2290
  1600  0032                     u2291:
  1601  0032  2842               	goto	l1796
  1602  0033                     u2290:
  1603  0033                     l1790:
  1604  0033  0A41               	incf	___flmul@bexp,w
  1605  0034  1D03               	btfss	3,2
  1606  0035  2837               	goto	u2301
  1607  0036  2838               	goto	u2300
  1608  0037                     u2301:
  1609  0037  2840               	goto	l1794
  1610  0038                     u2300:
  1611  0038                     l1792:
  1612  0038  3000               	movlw	0
  1613  0039  00B1               	movwf	___flmul@b+3
  1614  003A  3000               	movlw	0
  1615  003B  00B0               	movwf	___flmul@b+2
  1616  003C  3000               	movlw	0
  1617  003D  00AF               	movwf	___flmul@b+1
  1618  003E  3000               	movlw	0
  1619  003F  00AE               	movwf	___flmul@b
  1620  0040                     l1794:
  1621  0040  17B0               	bsf	___flmul@b+2,7
  1622  0041  284A               	goto	l1798
  1623  0042                     l1796:
  1624  0042  3000               	movlw	0
  1625  0043  00B1               	movwf	___flmul@b+3
  1626  0044  3000               	movlw	0
  1627  0045  00B0               	movwf	___flmul@b+2
  1628  0046  3000               	movlw	0
  1629  0047  00AF               	movwf	___flmul@b+1
  1630  0048  3000               	movlw	0
  1631  0049  00AE               	movwf	___flmul@b
  1632  004A                     l1798:
  1633  004A  0835               	movf	___flmul@a+3,w
  1634  004B  3980               	andlw	128
  1635  004C  00B6               	movwf	??___flmul
  1636  004D  0836               	movf	??___flmul,w
  1637  004E  06BB               	xorwf	___flmul@sign,f
  1638  004F                     l1800:
  1639  004F  0835               	movf	___flmul@a+3,w
  1640  0050  00B6               	movwf	??___flmul
  1641  0051  0736               	addwf	??___flmul,w
  1642  0052  00B7               	movwf	??___flmul+1
  1643  0053  0837               	movf	??___flmul+1,w
  1644  0054  00BC               	movwf	___flmul@aexp
  1645  0055                     l1802:
  1646  0055  1FB4               	btfss	___flmul@a+2,7
  1647  0056  2858               	goto	u2311
  1648  0057  2859               	goto	u2310
  1649  0058                     u2311:
  1650  0058  285A               	goto	l1806
  1651  0059                     u2310:
  1652  0059                     l1804:
  1653  0059  143C               	bsf	___flmul@aexp,0
  1654  005A                     l1806:
  1655  005A  083C               	movf	___flmul@aexp,w
  1656  005B  1903               	btfsc	3,2
  1657  005C  285E               	goto	u2321
  1658  005D  285F               	goto	u2320
  1659  005E                     u2321:
  1660  005E  286E               	goto	l1814
  1661  005F                     u2320:
  1662  005F                     l1808:
  1663  005F  0A3C               	incf	___flmul@aexp,w
  1664  0060  1D03               	btfss	3,2
  1665  0061  2863               	goto	u2331
  1666  0062  2864               	goto	u2330
  1667  0063                     u2331:
  1668  0063  286C               	goto	l1812
  1669  0064                     u2330:
  1670  0064                     l1810:
  1671  0064  3000               	movlw	0
  1672  0065  00B5               	movwf	___flmul@a+3
  1673  0066  3000               	movlw	0
  1674  0067  00B4               	movwf	___flmul@a+2
  1675  0068  3000               	movlw	0
  1676  0069  00B3               	movwf	___flmul@a+1
  1677  006A  3000               	movlw	0
  1678  006B  00B2               	movwf	___flmul@a
  1679  006C                     l1812:
  1680  006C  17B4               	bsf	___flmul@a+2,7
  1681  006D  2876               	goto	l1816
  1682  006E                     l1814:
  1683  006E  3000               	movlw	0
  1684  006F  00B5               	movwf	___flmul@a+3
  1685  0070  3000               	movlw	0
  1686  0071  00B4               	movwf	___flmul@a+2
  1687  0072  3000               	movlw	0
  1688  0073  00B3               	movwf	___flmul@a+1
  1689  0074  3000               	movlw	0
  1690  0075  00B2               	movwf	___flmul@a
  1691  0076                     l1816:
  1692  0076  083C               	movf	___flmul@aexp,w
  1693  0077  1903               	btfsc	3,2
  1694  0078  287A               	goto	u2341
  1695  0079  287B               	goto	u2340
  1696  007A                     u2341:
  1697  007A  2880               	goto	l1820
  1698  007B                     u2340:
  1699  007B                     l1818:
  1700  007B  0841               	movf	___flmul@bexp,w
  1701  007C  1D03               	btfss	3,2
  1702  007D  287F               	goto	u2351
  1703  007E  2880               	goto	u2350
  1704  007F                     u2351:
  1705  007F  2889               	goto	l1824
  1706  0080                     u2350:
  1707  0080                     l1820:
  1708  0080  3000               	movlw	0
  1709  0081  00B1               	movwf	?___flmul+3
  1710  0082  3000               	movlw	0
  1711  0083  00B0               	movwf	?___flmul+2
  1712  0084  3000               	movlw	0
  1713  0085  00AF               	movwf	?___flmul+1
  1714  0086  3000               	movlw	0
  1715  0087  00AE               	movwf	?___flmul
  1716  0088  2B7C               	goto	l563
  1717  0089                     l1824:
  1718  0089  082E               	movf	___flmul@b,w
  1719  008A  00B6               	movwf	??___flmul
  1720  008B  0836               	movf	??___flmul,w
  1721  008C  00A0               	movwf	__Umul8_16@multiplicand
  1722  008D  0834               	movf	___flmul@a+2,w
  1723  008E  120A  158A  26E6  120A  118A  	fcall	__Umul8_16
  1724  0093  1283               	bcf	3,5	;RP0=0, select bank0
  1725  0094  1303               	bcf	3,6	;RP1=0, select bank0
  1726  0095  0821               	movf	?__Umul8_16+1,w
  1727  0096  00C7               	movwf	___flmul@temp+1
  1728  0097  0820               	movf	?__Umul8_16,w
  1729  0098  00C6               	movwf	___flmul@temp
  1730  0099                     l1826:
  1731  0099  0846               	movf	___flmul@temp,w
  1732  009A  00B6               	movwf	??___flmul
  1733  009B  01B7               	clrf	??___flmul+1
  1734  009C  01B8               	clrf	??___flmul+2
  1735  009D  01B9               	clrf	??___flmul+3
  1736  009E  0839               	movf	??___flmul+3,w
  1737  009F  00C0               	movwf	___flmul@grs+3
  1738  00A0  0838               	movf	??___flmul+2,w
  1739  00A1  00BF               	movwf	___flmul@grs+2
  1740  00A2  0837               	movf	??___flmul+1,w
  1741  00A3  00BE               	movwf	___flmul@grs+1
  1742  00A4  0836               	movf	??___flmul,w
  1743  00A5  00BD               	movwf	___flmul@grs
  1744  00A6                     l1828:
  1745  00A6  0847               	movf	___flmul@temp+1,w
  1746  00A7  00B6               	movwf	??___flmul
  1747  00A8  01B7               	clrf	??___flmul+1
  1748  00A9  01B8               	clrf	??___flmul+2
  1749  00AA  01B9               	clrf	??___flmul+3
  1750  00AB  0839               	movf	??___flmul+3,w
  1751  00AC  00C5               	movwf	___flmul@prod+3
  1752  00AD  0838               	movf	??___flmul+2,w
  1753  00AE  00C4               	movwf	___flmul@prod+2
  1754  00AF  0837               	movf	??___flmul+1,w
  1755  00B0  00C3               	movwf	___flmul@prod+1
  1756  00B1  0836               	movf	??___flmul,w
  1757  00B2  00C2               	movwf	___flmul@prod
  1758  00B3  082F               	movf	___flmul@b+1,w
  1759  00B4  00B6               	movwf	??___flmul
  1760  00B5  0836               	movf	??___flmul,w
  1761  00B6  00A0               	movwf	__Umul8_16@multiplicand
  1762  00B7  0833               	movf	___flmul@a+1,w
  1763  00B8  120A  158A  26E6  120A  118A  	fcall	__Umul8_16
  1764  00BD  1283               	bcf	3,5	;RP0=0, select bank0
  1765  00BE  1303               	bcf	3,6	;RP1=0, select bank0
  1766  00BF  0821               	movf	?__Umul8_16+1,w
  1767  00C0  00C7               	movwf	___flmul@temp+1
  1768  00C1  0820               	movf	?__Umul8_16,w
  1769  00C2  00C6               	movwf	___flmul@temp
  1770  00C3                     l1830:
  1771  00C3  0846               	movf	___flmul@temp,w
  1772  00C4  00B6               	movwf	??___flmul
  1773  00C5  01B7               	clrf	??___flmul+1
  1774  00C6  01B8               	clrf	??___flmul+2
  1775  00C7  01B9               	clrf	??___flmul+3
  1776  00C8  0836               	movf	??___flmul,w
  1777  00C9  07BD               	addwf	___flmul@grs,f
  1778  00CA  0837               	movf	??___flmul+1,w
  1779  00CB  1103               	clrz
  1780  00CC  1803               	skipnc
  1781  00CD  3E01               	addlw	1
  1782  00CE  1903               	skipnz
  1783  00CF  28D1               	goto	u2361
  1784  00D0  07BE               	addwf	___flmul@grs+1,f
  1785  00D1                     u2361:
  1786  00D1  0838               	movf	??___flmul+2,w
  1787  00D2  1103               	clrz
  1788  00D3  1803               	skipnc
  1789  00D4  3E01               	addlw	1
  1790  00D5  1903               	skipnz
  1791  00D6  28D8               	goto	u2362
  1792  00D7  07BF               	addwf	___flmul@grs+2,f
  1793  00D8                     u2362:
  1794  00D8  0839               	movf	??___flmul+3,w
  1795  00D9  1103               	clrz
  1796  00DA  1803               	skipnc
  1797  00DB  3E01               	addlw	1
  1798  00DC  1903               	skipnz
  1799  00DD  28DF               	goto	u2363
  1800  00DE  07C0               	addwf	___flmul@grs+3,f
  1801  00DF                     u2363:
  1802  00DF                     l1832:
  1803  00DF  0847               	movf	___flmul@temp+1,w
  1804  00E0  00B6               	movwf	??___flmul
  1805  00E1  01B7               	clrf	??___flmul+1
  1806  00E2  01B8               	clrf	??___flmul+2
  1807  00E3  01B9               	clrf	??___flmul+3
  1808  00E4  0836               	movf	??___flmul,w
  1809  00E5  07C2               	addwf	___flmul@prod,f
  1810  00E6  0837               	movf	??___flmul+1,w
  1811  00E7  1103               	clrz
  1812  00E8  1803               	skipnc
  1813  00E9  3E01               	addlw	1
  1814  00EA  1903               	skipnz
  1815  00EB  28ED               	goto	u2371
  1816  00EC  07C3               	addwf	___flmul@prod+1,f
  1817  00ED                     u2371:
  1818  00ED  0838               	movf	??___flmul+2,w
  1819  00EE  1103               	clrz
  1820  00EF  1803               	skipnc
  1821  00F0  3E01               	addlw	1
  1822  00F1  1903               	skipnz
  1823  00F2  28F4               	goto	u2372
  1824  00F3  07C4               	addwf	___flmul@prod+2,f
  1825  00F4                     u2372:
  1826  00F4  0839               	movf	??___flmul+3,w
  1827  00F5  1103               	clrz
  1828  00F6  1803               	skipnc
  1829  00F7  3E01               	addlw	1
  1830  00F8  1903               	skipnz
  1831  00F9  28FB               	goto	u2373
  1832  00FA  07C5               	addwf	___flmul@prod+3,f
  1833  00FB                     u2373:
  1834  00FB  0830               	movf	___flmul@b+2,w
  1835  00FC  00B6               	movwf	??___flmul
  1836  00FD  0836               	movf	??___flmul,w
  1837  00FE  00A0               	movwf	__Umul8_16@multiplicand
  1838  00FF  0832               	movf	___flmul@a,w
  1839  0100  120A  158A  26E6  120A  118A  	fcall	__Umul8_16
  1840  0105  1283               	bcf	3,5	;RP0=0, select bank0
  1841  0106  1303               	bcf	3,6	;RP1=0, select bank0
  1842  0107  0821               	movf	?__Umul8_16+1,w
  1843  0108  00C7               	movwf	___flmul@temp+1
  1844  0109  0820               	movf	?__Umul8_16,w
  1845  010A  00C6               	movwf	___flmul@temp
  1846  010B                     l1834:
  1847  010B  0846               	movf	___flmul@temp,w
  1848  010C  00B6               	movwf	??___flmul
  1849  010D  01B7               	clrf	??___flmul+1
  1850  010E  01B8               	clrf	??___flmul+2
  1851  010F  01B9               	clrf	??___flmul+3
  1852  0110  0836               	movf	??___flmul,w
  1853  0111  07BD               	addwf	___flmul@grs,f
  1854  0112  0837               	movf	??___flmul+1,w
  1855  0113  1103               	clrz
  1856  0114  1803               	skipnc
  1857  0115  3E01               	addlw	1
  1858  0116  1903               	skipnz
  1859  0117  2919               	goto	u2381
  1860  0118  07BE               	addwf	___flmul@grs+1,f
  1861  0119                     u2381:
  1862  0119  0838               	movf	??___flmul+2,w
  1863  011A  1103               	clrz
  1864  011B  1803               	skipnc
  1865  011C  3E01               	addlw	1
  1866  011D  1903               	skipnz
  1867  011E  2920               	goto	u2382
  1868  011F  07BF               	addwf	___flmul@grs+2,f
  1869  0120                     u2382:
  1870  0120  0839               	movf	??___flmul+3,w
  1871  0121  1103               	clrz
  1872  0122  1803               	skipnc
  1873  0123  3E01               	addlw	1
  1874  0124  1903               	skipnz
  1875  0125  2927               	goto	u2383
  1876  0126  07C0               	addwf	___flmul@grs+3,f
  1877  0127                     u2383:
  1878  0127                     l1836:
  1879  0127  0847               	movf	___flmul@temp+1,w
  1880  0128  00B6               	movwf	??___flmul
  1881  0129  01B7               	clrf	??___flmul+1
  1882  012A  01B8               	clrf	??___flmul+2
  1883  012B  01B9               	clrf	??___flmul+3
  1884  012C  0836               	movf	??___flmul,w
  1885  012D  07C2               	addwf	___flmul@prod,f
  1886  012E  0837               	movf	??___flmul+1,w
  1887  012F  1103               	clrz
  1888  0130  1803               	skipnc
  1889  0131  3E01               	addlw	1
  1890  0132  1903               	skipnz
  1891  0133  2935               	goto	u2391
  1892  0134  07C3               	addwf	___flmul@prod+1,f
  1893  0135                     u2391:
  1894  0135  0838               	movf	??___flmul+2,w
  1895  0136  1103               	clrz
  1896  0137  1803               	skipnc
  1897  0138  3E01               	addlw	1
  1898  0139  1903               	skipnz
  1899  013A  293C               	goto	u2392
  1900  013B  07C4               	addwf	___flmul@prod+2,f
  1901  013C                     u2392:
  1902  013C  0839               	movf	??___flmul+3,w
  1903  013D  1103               	clrz
  1904  013E  1803               	skipnc
  1905  013F  3E01               	addlw	1
  1906  0140  1903               	skipnz
  1907  0141  2943               	goto	u2393
  1908  0142  07C5               	addwf	___flmul@prod+3,f
  1909  0143                     u2393:
  1910  0143                     l1838:
  1911  0143  3008               	movlw	8
  1912  0144  00B6               	movwf	??___flmul
  1913  0145                     u2405:
  1914  0145  1003               	clrc
  1915  0146  0DBD               	rlf	___flmul@grs,f
  1916  0147  0DBE               	rlf	___flmul@grs+1,f
  1917  0148  0DBF               	rlf	___flmul@grs+2,f
  1918  0149  0DC0               	rlf	___flmul@grs+3,f
  1919  014A  0BB6               	decfsz	??___flmul,f
  1920  014B  2945               	goto	u2405
  1921  014C                     l1840:
  1922  014C  082F               	movf	___flmul@b+1,w
  1923  014D  00B6               	movwf	??___flmul
  1924  014E  0836               	movf	??___flmul,w
  1925  014F  00A0               	movwf	__Umul8_16@multiplicand
  1926  0150  0832               	movf	___flmul@a,w
  1927  0151  120A  158A  26E6  120A  118A  	fcall	__Umul8_16
  1928  0156  1283               	bcf	3,5	;RP0=0, select bank0
  1929  0157  1303               	bcf	3,6	;RP1=0, select bank0
  1930  0158  0821               	movf	?__Umul8_16+1,w
  1931  0159  00C7               	movwf	___flmul@temp+1
  1932  015A  0820               	movf	?__Umul8_16,w
  1933  015B  00C6               	movwf	___flmul@temp
  1934  015C                     l1842:
  1935  015C  0846               	movf	___flmul@temp,w
  1936  015D  00B6               	movwf	??___flmul
  1937  015E  0847               	movf	___flmul@temp+1,w
  1938  015F  00B7               	movwf	??___flmul+1
  1939  0160  01B8               	clrf	??___flmul+2
  1940  0161  01B9               	clrf	??___flmul+3
  1941  0162  0836               	movf	??___flmul,w
  1942  0163  07BD               	addwf	___flmul@grs,f
  1943  0164  0837               	movf	??___flmul+1,w
  1944  0165  1103               	clrz
  1945  0166  1803               	skipnc
  1946  0167  3E01               	addlw	1
  1947  0168  1903               	skipnz
  1948  0169  296B               	goto	u2411
  1949  016A  07BE               	addwf	___flmul@grs+1,f
  1950  016B                     u2411:
  1951  016B  0838               	movf	??___flmul+2,w
  1952  016C  1103               	clrz
  1953  016D  1803               	skipnc
  1954  016E  3E01               	addlw	1
  1955  016F  1903               	skipnz
  1956  0170  2972               	goto	u2412
  1957  0171  07BF               	addwf	___flmul@grs+2,f
  1958  0172                     u2412:
  1959  0172  0839               	movf	??___flmul+3,w
  1960  0173  1103               	clrz
  1961  0174  1803               	skipnc
  1962  0175  3E01               	addlw	1
  1963  0176  1903               	skipnz
  1964  0177  2979               	goto	u2413
  1965  0178  07C0               	addwf	___flmul@grs+3,f
  1966  0179                     u2413:
  1967  0179                     l1844:
  1968  0179  082E               	movf	___flmul@b,w
  1969  017A  00B6               	movwf	??___flmul
  1970  017B  0836               	movf	??___flmul,w
  1971  017C  00A0               	movwf	__Umul8_16@multiplicand
  1972  017D  0833               	movf	___flmul@a+1,w
  1973  017E  120A  158A  26E6  120A  118A  	fcall	__Umul8_16
  1974  0183  1283               	bcf	3,5	;RP0=0, select bank0
  1975  0184  1303               	bcf	3,6	;RP1=0, select bank0
  1976  0185  0821               	movf	?__Umul8_16+1,w
  1977  0186  00C7               	movwf	___flmul@temp+1
  1978  0187  0820               	movf	?__Umul8_16,w
  1979  0188  00C6               	movwf	___flmul@temp
  1980  0189                     l1846:
  1981  0189  0846               	movf	___flmul@temp,w
  1982  018A  00B6               	movwf	??___flmul
  1983  018B  0847               	movf	___flmul@temp+1,w
  1984  018C  00B7               	movwf	??___flmul+1
  1985  018D  01B8               	clrf	??___flmul+2
  1986  018E  01B9               	clrf	??___flmul+3
  1987  018F  0836               	movf	??___flmul,w
  1988  0190  07BD               	addwf	___flmul@grs,f
  1989  0191  0837               	movf	??___flmul+1,w
  1990  0192  1103               	clrz
  1991  0193  1803               	skipnc
  1992  0194  3E01               	addlw	1
  1993  0195  1903               	skipnz
  1994  0196  2998               	goto	u2421
  1995  0197  07BE               	addwf	___flmul@grs+1,f
  1996  0198                     u2421:
  1997  0198  0838               	movf	??___flmul+2,w
  1998  0199  1103               	clrz
  1999  019A  1803               	skipnc
  2000  019B  3E01               	addlw	1
  2001  019C  1903               	skipnz
  2002  019D  299F               	goto	u2422
  2003  019E  07BF               	addwf	___flmul@grs+2,f
  2004  019F                     u2422:
  2005  019F  0839               	movf	??___flmul+3,w
  2006  01A0  1103               	clrz
  2007  01A1  1803               	skipnc
  2008  01A2  3E01               	addlw	1
  2009  01A3  1903               	skipnz
  2010  01A4  29A6               	goto	u2423
  2011  01A5  07C0               	addwf	___flmul@grs+3,f
  2012  01A6                     u2423:
  2013  01A6                     l1848:
  2014  01A6  3008               	movlw	8
  2015  01A7  00B6               	movwf	??___flmul
  2016  01A8                     u2435:
  2017  01A8  1003               	clrc
  2018  01A9  0DBD               	rlf	___flmul@grs,f
  2019  01AA  0DBE               	rlf	___flmul@grs+1,f
  2020  01AB  0DBF               	rlf	___flmul@grs+2,f
  2021  01AC  0DC0               	rlf	___flmul@grs+3,f
  2022  01AD  0BB6               	decfsz	??___flmul,f
  2023  01AE  29A8               	goto	u2435
  2024  01AF  082E               	movf	___flmul@b,w
  2025  01B0  00B6               	movwf	??___flmul
  2026  01B1  0836               	movf	??___flmul,w
  2027  01B2  00A0               	movwf	__Umul8_16@multiplicand
  2028  01B3  0832               	movf	___flmul@a,w
  2029  01B4  120A  158A  26E6  120A  118A  	fcall	__Umul8_16
  2030  01B9  1283               	bcf	3,5	;RP0=0, select bank0
  2031  01BA  1303               	bcf	3,6	;RP1=0, select bank0
  2032  01BB  0821               	movf	?__Umul8_16+1,w
  2033  01BC  00C7               	movwf	___flmul@temp+1
  2034  01BD  0820               	movf	?__Umul8_16,w
  2035  01BE  00C6               	movwf	___flmul@temp
  2036  01BF                     l1850:
  2037  01BF  0846               	movf	___flmul@temp,w
  2038  01C0  00B6               	movwf	??___flmul
  2039  01C1  0847               	movf	___flmul@temp+1,w
  2040  01C2  00B7               	movwf	??___flmul+1
  2041  01C3  01B8               	clrf	??___flmul+2
  2042  01C4  01B9               	clrf	??___flmul+3
  2043  01C5  0836               	movf	??___flmul,w
  2044  01C6  07BD               	addwf	___flmul@grs,f
  2045  01C7  0837               	movf	??___flmul+1,w
  2046  01C8  1103               	clrz
  2047  01C9  1803               	skipnc
  2048  01CA  3E01               	addlw	1
  2049  01CB  1903               	skipnz
  2050  01CC  29CE               	goto	u2441
  2051  01CD  07BE               	addwf	___flmul@grs+1,f
  2052  01CE                     u2441:
  2053  01CE  0838               	movf	??___flmul+2,w
  2054  01CF  1103               	clrz
  2055  01D0  1803               	skipnc
  2056  01D1  3E01               	addlw	1
  2057  01D2  1903               	skipnz
  2058  01D3  29D5               	goto	u2442
  2059  01D4  07BF               	addwf	___flmul@grs+2,f
  2060  01D5                     u2442:
  2061  01D5  0839               	movf	??___flmul+3,w
  2062  01D6  1103               	clrz
  2063  01D7  1803               	skipnc
  2064  01D8  3E01               	addlw	1
  2065  01D9  1903               	skipnz
  2066  01DA  29DC               	goto	u2443
  2067  01DB  07C0               	addwf	___flmul@grs+3,f
  2068  01DC                     u2443:
  2069  01DC                     l1852:
  2070  01DC  082F               	movf	___flmul@b+1,w
  2071  01DD  00B6               	movwf	??___flmul
  2072  01DE  0836               	movf	??___flmul,w
  2073  01DF  00A0               	movwf	__Umul8_16@multiplicand
  2074  01E0  0834               	movf	___flmul@a+2,w
  2075  01E1  120A  158A  26E6  120A  118A  	fcall	__Umul8_16
  2076  01E6  1283               	bcf	3,5	;RP0=0, select bank0
  2077  01E7  1303               	bcf	3,6	;RP1=0, select bank0
  2078  01E8  0821               	movf	?__Umul8_16+1,w
  2079  01E9  00C7               	movwf	___flmul@temp+1
  2080  01EA  0820               	movf	?__Umul8_16,w
  2081  01EB  00C6               	movwf	___flmul@temp
  2082  01EC  0846               	movf	___flmul@temp,w
  2083  01ED  00B6               	movwf	??___flmul
  2084  01EE  0847               	movf	___flmul@temp+1,w
  2085  01EF  00B7               	movwf	??___flmul+1
  2086  01F0  01B8               	clrf	??___flmul+2
  2087  01F1  01B9               	clrf	??___flmul+3
  2088  01F2  0836               	movf	??___flmul,w
  2089  01F3  07C2               	addwf	___flmul@prod,f
  2090  01F4  0837               	movf	??___flmul+1,w
  2091  01F5  1103               	clrz
  2092  01F6  1803               	skipnc
  2093  01F7  3E01               	addlw	1
  2094  01F8  1903               	skipnz
  2095  01F9  29FB               	goto	u2451
  2096  01FA  07C3               	addwf	___flmul@prod+1,f
  2097  01FB                     u2451:
  2098  01FB  0838               	movf	??___flmul+2,w
  2099  01FC  1103               	clrz
  2100  01FD  1803               	skipnc
  2101  01FE  3E01               	addlw	1
  2102  01FF  1903               	skipnz
  2103  0200  2A02               	goto	u2452
  2104  0201  07C4               	addwf	___flmul@prod+2,f
  2105  0202                     u2452:
  2106  0202  0839               	movf	??___flmul+3,w
  2107  0203  1103               	clrz
  2108  0204  1803               	skipnc
  2109  0205  3E01               	addlw	1
  2110  0206  1903               	skipnz
  2111  0207  2A09               	goto	u2453
  2112  0208  07C5               	addwf	___flmul@prod+3,f
  2113  0209                     u2453:
  2114  0209                     l1854:
  2115  0209  0830               	movf	___flmul@b+2,w
  2116  020A  00B6               	movwf	??___flmul
  2117  020B  0836               	movf	??___flmul,w
  2118  020C  00A0               	movwf	__Umul8_16@multiplicand
  2119  020D  0833               	movf	___flmul@a+1,w
  2120  020E  120A  158A  26E6  120A  118A  	fcall	__Umul8_16
  2121  0213  1283               	bcf	3,5	;RP0=0, select bank0
  2122  0214  1303               	bcf	3,6	;RP1=0, select bank0
  2123  0215  0821               	movf	?__Umul8_16+1,w
  2124  0216  00C7               	movwf	___flmul@temp+1
  2125  0217  0820               	movf	?__Umul8_16,w
  2126  0218  00C6               	movwf	___flmul@temp
  2127  0219                     l1856:
  2128  0219  0846               	movf	___flmul@temp,w
  2129  021A  00B6               	movwf	??___flmul
  2130  021B  0847               	movf	___flmul@temp+1,w
  2131  021C  00B7               	movwf	??___flmul+1
  2132  021D  01B8               	clrf	??___flmul+2
  2133  021E  01B9               	clrf	??___flmul+3
  2134  021F  0836               	movf	??___flmul,w
  2135  0220  07C2               	addwf	___flmul@prod,f
  2136  0221  0837               	movf	??___flmul+1,w
  2137  0222  1103               	clrz
  2138  0223  1803               	skipnc
  2139  0224  3E01               	addlw	1
  2140  0225  1903               	skipnz
  2141  0226  2A28               	goto	u2461
  2142  0227  07C3               	addwf	___flmul@prod+1,f
  2143  0228                     u2461:
  2144  0228  0838               	movf	??___flmul+2,w
  2145  0229  1103               	clrz
  2146  022A  1803               	skipnc
  2147  022B  3E01               	addlw	1
  2148  022C  1903               	skipnz
  2149  022D  2A2F               	goto	u2462
  2150  022E  07C4               	addwf	___flmul@prod+2,f
  2151  022F                     u2462:
  2152  022F  0839               	movf	??___flmul+3,w
  2153  0230  1103               	clrz
  2154  0231  1803               	skipnc
  2155  0232  3E01               	addlw	1
  2156  0233  1903               	skipnz
  2157  0234  2A36               	goto	u2463
  2158  0235  07C5               	addwf	___flmul@prod+3,f
  2159  0236                     u2463:
  2160  0236  0830               	movf	___flmul@b+2,w
  2161  0237  00B6               	movwf	??___flmul
  2162  0238  0836               	movf	??___flmul,w
  2163  0239  00A0               	movwf	__Umul8_16@multiplicand
  2164  023A  0834               	movf	___flmul@a+2,w
  2165  023B  120A  158A  26E6  120A  118A  	fcall	__Umul8_16
  2166  0240  1283               	bcf	3,5	;RP0=0, select bank0
  2167  0241  1303               	bcf	3,6	;RP1=0, select bank0
  2168  0242  0821               	movf	?__Umul8_16+1,w
  2169  0243  00C7               	movwf	___flmul@temp+1
  2170  0244  0820               	movf	?__Umul8_16,w
  2171  0245  00C6               	movwf	___flmul@temp
  2172  0246                     l1858:
  2173  0246  0846               	movf	___flmul@temp,w
  2174  0247  00B6               	movwf	??___flmul
  2175  0248  0847               	movf	___flmul@temp+1,w
  2176  0249  00B7               	movwf	??___flmul+1
  2177  024A  01B8               	clrf	??___flmul+2
  2178  024B  01B9               	clrf	??___flmul+3
  2179  024C  3008               	movlw	8
  2180  024D                     u2475:
  2181  024D  1003               	clrc
  2182  024E  0DB6               	rlf	??___flmul,f
  2183  024F  0DB7               	rlf	??___flmul+1,f
  2184  0250  0DB8               	rlf	??___flmul+2,f
  2185  0251  0DB9               	rlf	??___flmul+3,f
  2186  0252                     u2470:
  2187  0252  3EFF               	addlw	-1
  2188  0253  1D03               	skipz
  2189  0254  2A4D               	goto	u2475
  2190  0255  0836               	movf	??___flmul,w
  2191  0256  07C2               	addwf	___flmul@prod,f
  2192  0257  0837               	movf	??___flmul+1,w
  2193  0258  1103               	clrz
  2194  0259  1803               	skipnc
  2195  025A  3E01               	addlw	1
  2196  025B  1903               	skipnz
  2197  025C  2A5E               	goto	u2481
  2198  025D  07C3               	addwf	___flmul@prod+1,f
  2199  025E                     u2481:
  2200  025E  0838               	movf	??___flmul+2,w
  2201  025F  1103               	clrz
  2202  0260  1803               	skipnc
  2203  0261  3E01               	addlw	1
  2204  0262  1903               	skipnz
  2205  0263  2A65               	goto	u2482
  2206  0264  07C4               	addwf	___flmul@prod+2,f
  2207  0265                     u2482:
  2208  0265  0839               	movf	??___flmul+3,w
  2209  0266  1103               	clrz
  2210  0267  1803               	skipnc
  2211  0268  3E01               	addlw	1
  2212  0269  1903               	skipnz
  2213  026A  2A6C               	goto	u2483
  2214  026B  07C5               	addwf	___flmul@prod+3,f
  2215  026C                     u2483:
  2216  026C                     l1860:
  2217  026C  083D               	movf	___flmul@grs,w
  2218  026D  00B6               	movwf	??___flmul
  2219  026E  083E               	movf	___flmul@grs+1,w
  2220  026F  00B7               	movwf	??___flmul+1
  2221  0270  083F               	movf	___flmul@grs+2,w
  2222  0271  00B8               	movwf	??___flmul+2
  2223  0272  0840               	movf	___flmul@grs+3,w
  2224  0273  00B9               	movwf	??___flmul+3
  2225  0274  3018               	movlw	24
  2226  0275                     u2495:
  2227  0275  1003               	clrc
  2228  0276  0CB9               	rrf	??___flmul+3,f
  2229  0277  0CB8               	rrf	??___flmul+2,f
  2230  0278  0CB7               	rrf	??___flmul+1,f
  2231  0279  0CB6               	rrf	??___flmul,f
  2232  027A                     u2490:
  2233  027A  3EFF               	addlw	-1
  2234  027B  1D03               	skipz
  2235  027C  2A75               	goto	u2495
  2236  027D  0836               	movf	??___flmul,w
  2237  027E  07C2               	addwf	___flmul@prod,f
  2238  027F  0837               	movf	??___flmul+1,w
  2239  0280  1103               	clrz
  2240  0281  1803               	skipnc
  2241  0282  3E01               	addlw	1
  2242  0283  1903               	skipnz
  2243  0284  2A86               	goto	u2501
  2244  0285  07C3               	addwf	___flmul@prod+1,f
  2245  0286                     u2501:
  2246  0286  0838               	movf	??___flmul+2,w
  2247  0287  1103               	clrz
  2248  0288  1803               	skipnc
  2249  0289  3E01               	addlw	1
  2250  028A  1903               	skipnz
  2251  028B  2A8D               	goto	u2502
  2252  028C  07C4               	addwf	___flmul@prod+2,f
  2253  028D                     u2502:
  2254  028D  0839               	movf	??___flmul+3,w
  2255  028E  1103               	clrz
  2256  028F  1803               	skipnc
  2257  0290  3E01               	addlw	1
  2258  0291  1903               	skipnz
  2259  0292  2A94               	goto	u2503
  2260  0293  07C5               	addwf	___flmul@prod+3,f
  2261  0294                     u2503:
  2262  0294                     l1862:
  2263  0294  3008               	movlw	8
  2264  0295  00B6               	movwf	??___flmul
  2265  0296                     u2515:
  2266  0296  1003               	clrc
  2267  0297  0DBD               	rlf	___flmul@grs,f
  2268  0298  0DBE               	rlf	___flmul@grs+1,f
  2269  0299  0DBF               	rlf	___flmul@grs+2,f
  2270  029A  0DC0               	rlf	___flmul@grs+3,f
  2271  029B  0BB6               	decfsz	??___flmul,f
  2272  029C  2A96               	goto	u2515
  2273  029D                     l1864:
  2274  029D  0841               	movf	___flmul@bexp,w
  2275  029E  073C               	addwf	___flmul@aexp,w
  2276  029F  00B6               	movwf	??___flmul
  2277  02A0  01B7               	clrf	??___flmul+1
  2278  02A1  0DB7               	rlf	??___flmul+1,f
  2279  02A2  0836               	movf	??___flmul,w
  2280  02A3  3E82               	addlw	130
  2281  02A4  00C6               	movwf	___flmul@temp
  2282  02A5  0837               	movf	??___flmul+1,w
  2283  02A6  1803               	skipnc
  2284  02A7  3E01               	addlw	1
  2285  02A8  3EFF               	addlw	255
  2286  02A9  00C7               	movwf	___flmul@temp+1
  2287  02AA  2AC8               	goto	l1876
  2288  02AB                     l1866:
  2289  02AB  3001               	movlw	1
  2290  02AC  00B6               	movwf	??___flmul
  2291  02AD                     u2525:
  2292  02AD  1003               	clrc
  2293  02AE  0DC2               	rlf	___flmul@prod,f
  2294  02AF  0DC3               	rlf	___flmul@prod+1,f
  2295  02B0  0DC4               	rlf	___flmul@prod+2,f
  2296  02B1  0DC5               	rlf	___flmul@prod+3,f
  2297  02B2  0BB6               	decfsz	??___flmul,f
  2298  02B3  2AAD               	goto	u2525
  2299  02B4                     l1868:
  2300  02B4  1FC0               	btfss	___flmul@grs+3,7
  2301  02B5  2AB7               	goto	u2531
  2302  02B6  2AB8               	goto	u2530
  2303  02B7                     u2531:
  2304  02B7  2AB9               	goto	l1872
  2305  02B8                     u2530:
  2306  02B8                     l1870:
  2307  02B8  1442               	bsf	___flmul@prod,0
  2308  02B9                     l1872:
  2309  02B9  3001               	movlw	1
  2310  02BA  00B6               	movwf	??___flmul
  2311  02BB                     u2545:
  2312  02BB  1003               	clrc
  2313  02BC  0DBD               	rlf	___flmul@grs,f
  2314  02BD  0DBE               	rlf	___flmul@grs+1,f
  2315  02BE  0DBF               	rlf	___flmul@grs+2,f
  2316  02BF  0DC0               	rlf	___flmul@grs+3,f
  2317  02C0  0BB6               	decfsz	??___flmul,f
  2318  02C1  2ABB               	goto	u2545
  2319  02C2                     l1874:
  2320  02C2  30FF               	movlw	255
  2321  02C3  07C6               	addwf	___flmul@temp,f
  2322  02C4  1803               	skipnc
  2323  02C5  0AC7               	incf	___flmul@temp+1,f
  2324  02C6  30FF               	movlw	255
  2325  02C7  07C7               	addwf	___flmul@temp+1,f
  2326  02C8                     l1876:
  2327  02C8  1FC4               	btfss	___flmul@prod+2,7
  2328  02C9  2ACB               	goto	u2551
  2329  02CA  2ACC               	goto	u2550
  2330  02CB                     u2551:
  2331  02CB  2AAB               	goto	l1866
  2332  02CC                     u2550:
  2333  02CC                     l1878:
  2334  02CC  01BC               	clrf	___flmul@aexp
  2335  02CD                     l1880:
  2336  02CD  1FC0               	btfss	___flmul@grs+3,7
  2337  02CE  2AD0               	goto	u2561
  2338  02CF  2AD1               	goto	u2560
  2339  02D0                     u2561:
  2340  02D0  2AED               	goto	l1888
  2341  02D1                     u2560:
  2342  02D1                     l1882:
  2343  02D1  30FF               	movlw	255
  2344  02D2  053D               	andwf	___flmul@grs,w
  2345  02D3  00B6               	movwf	??___flmul
  2346  02D4  30FF               	movlw	255
  2347  02D5  053E               	andwf	___flmul@grs+1,w
  2348  02D6  00B7               	movwf	??___flmul+1
  2349  02D7  30FF               	movlw	255
  2350  02D8  053F               	andwf	___flmul@grs+2,w
  2351  02D9  00B8               	movwf	??___flmul+2
  2352  02DA  307F               	movlw	127
  2353  02DB  0540               	andwf	___flmul@grs+3,w
  2354  02DC  00B9               	movwf	??___flmul+3
  2355  02DD  0839               	movf	??___flmul+3,w
  2356  02DE  0438               	iorwf	??___flmul+2,w
  2357  02DF  0437               	iorwf	??___flmul+1,w
  2358  02E0  0436               	iorwf	??___flmul,w
  2359  02E1  1903               	skipnz
  2360  02E2  2AE4               	goto	u2571
  2361  02E3  2AE5               	goto	u2570
  2362  02E4                     u2571:
  2363  02E4  2AE8               	goto	l569
  2364  02E5                     u2570:
  2365  02E5                     l1884:
  2366  02E5  01BC               	clrf	___flmul@aexp
  2367  02E6  0ABC               	incf	___flmul@aexp,f
  2368  02E7  2AED               	goto	l1888
  2369  02E8                     l569:
  2370  02E8  1C42               	btfss	___flmul@prod,0
  2371  02E9  2AEB               	goto	u2581
  2372  02EA  2AEC               	goto	u2580
  2373  02EB                     u2581:
  2374  02EB  2AED               	goto	l1888
  2375  02EC                     u2580:
  2376  02EC  2AE5               	goto	l1884
  2377  02ED                     l1888:
  2378  02ED  083C               	movf	___flmul@aexp,w
  2379  02EE  1903               	btfsc	3,2
  2380  02EF  2AF1               	goto	u2591
  2381  02F0  2AF2               	goto	u2590
  2382  02F1                     u2591:
  2383  02F1  2B23               	goto	l1898
  2384  02F2                     u2590:
  2385  02F2                     l1890:
  2386  02F2  3001               	movlw	1
  2387  02F3  07C2               	addwf	___flmul@prod,f
  2388  02F4  3000               	movlw	0
  2389  02F5  1803               	skipnc
  2390  02F6  3001               	movlw	1
  2391  02F7  07C3               	addwf	___flmul@prod+1,f
  2392  02F8  3000               	movlw	0
  2393  02F9  1803               	skipnc
  2394  02FA  3001               	movlw	1
  2395  02FB  07C4               	addwf	___flmul@prod+2,f
  2396  02FC  3000               	movlw	0
  2397  02FD  1803               	skipnc
  2398  02FE  3001               	movlw	1
  2399  02FF  07C5               	addwf	___flmul@prod+3,f
  2400  0300                     l1892:
  2401  0300  1C45               	btfss	___flmul@prod+3,0
  2402  0301  2B03               	goto	u2601
  2403  0302  2B04               	goto	u2600
  2404  0303                     u2601:
  2405  0303  2B23               	goto	l1898
  2406  0304                     u2600:
  2407  0304                     l1894:
  2408  0304  0842               	movf	___flmul@prod,w
  2409  0305  00B6               	movwf	??___flmul
  2410  0306  0843               	movf	___flmul@prod+1,w
  2411  0307  00B7               	movwf	??___flmul+1
  2412  0308  0844               	movf	___flmul@prod+2,w
  2413  0309  00B8               	movwf	??___flmul+2
  2414  030A  0845               	movf	___flmul@prod+3,w
  2415  030B  00B9               	movwf	??___flmul+3
  2416  030C  3001               	movlw	1
  2417  030D  00BA               	movwf	??___flmul+4
  2418  030E                     u2615:
  2419  030E  0D39               	rlf	??___flmul+3,w
  2420  030F  0CB9               	rrf	??___flmul+3,f
  2421  0310  0CB8               	rrf	??___flmul+2,f
  2422  0311  0CB7               	rrf	??___flmul+1,f
  2423  0312  0CB6               	rrf	??___flmul,f
  2424  0313                     u2610:
  2425  0313  0BBA               	decfsz	??___flmul+4,f
  2426  0314  2B0E               	goto	u2615
  2427  0315  0839               	movf	??___flmul+3,w
  2428  0316  00C5               	movwf	___flmul@prod+3
  2429  0317  0838               	movf	??___flmul+2,w
  2430  0318  00C4               	movwf	___flmul@prod+2
  2431  0319  0837               	movf	??___flmul+1,w
  2432  031A  00C3               	movwf	___flmul@prod+1
  2433  031B  0836               	movf	??___flmul,w
  2434  031C  00C2               	movwf	___flmul@prod
  2435  031D                     l1896:
  2436  031D  3001               	movlw	1
  2437  031E  07C6               	addwf	___flmul@temp,f
  2438  031F  1803               	skipnc
  2439  0320  0AC7               	incf	___flmul@temp+1,f
  2440  0321  3000               	movlw	0
  2441  0322  07C7               	addwf	___flmul@temp+1,f
  2442  0323                     l1898:
  2443  0323  0847               	movf	___flmul@temp+1,w
  2444  0324  3A80               	xorlw	128
  2445  0325  00FF               	movwf	btemp+1
  2446  0326  3080               	movlw	128
  2447  0327  027F               	subwf	btemp+1,w
  2448  0328  1D03               	skipz
  2449  0329  2B2C               	goto	u2625
  2450  032A  30FF               	movlw	255
  2451  032B  0246               	subwf	___flmul@temp,w
  2452  032C                     u2625:
  2453  032C  1C03               	skipc
  2454  032D  2B2F               	goto	u2621
  2455  032E  2B30               	goto	u2620
  2456  032F                     u2621:
  2457  032F  2B3B               	goto	l1902
  2458  0330                     u2620:
  2459  0330                     l1900:
  2460  0330  307F               	movlw	127
  2461  0331  1283               	bcf	3,5	;RP0=0, select bank0
  2462  0332  1303               	bcf	3,6	;RP1=0, select bank0
  2463  0333  00C5               	movwf	___flmul@prod+3
  2464  0334  3080               	movlw	128
  2465  0335  00C4               	movwf	___flmul@prod+2
  2466  0336  3000               	movlw	0
  2467  0337  00C3               	movwf	___flmul@prod+1
  2468  0338  3000               	movlw	0
  2469  0339  00C2               	movwf	___flmul@prod
  2470  033A  2B70               	goto	l575
  2471  033B                     l1902:
  2472  033B  1283               	bcf	3,5	;RP0=0, select bank0
  2473  033C  1303               	bcf	3,6	;RP1=0, select bank0
  2474  033D  0847               	movf	___flmul@temp+1,w
  2475  033E  3A80               	xorlw	128
  2476  033F  00FF               	movwf	btemp+1
  2477  0340  3080               	movlw	128
  2478  0341  027F               	subwf	btemp+1,w
  2479  0342  1D03               	skipz
  2480  0343  2B46               	goto	u2635
  2481  0344  3001               	movlw	1
  2482  0345  0246               	subwf	___flmul@temp,w
  2483  0346                     u2635:
  2484  0346  1803               	skipnc
  2485  0347  2B49               	goto	u2631
  2486  0348  2B4A               	goto	u2630
  2487  0349                     u2631:
  2488  0349  2B56               	goto	l1908
  2489  034A                     u2630:
  2490  034A                     l1904:
  2491  034A  3000               	movlw	0
  2492  034B  1283               	bcf	3,5	;RP0=0, select bank0
  2493  034C  1303               	bcf	3,6	;RP1=0, select bank0
  2494  034D  00C5               	movwf	___flmul@prod+3
  2495  034E  3000               	movlw	0
  2496  034F  00C4               	movwf	___flmul@prod+2
  2497  0350  3000               	movlw	0
  2498  0351  00C3               	movwf	___flmul@prod+1
  2499  0352  3000               	movlw	0
  2500  0353  00C2               	movwf	___flmul@prod
  2501  0354                     l1906:
  2502  0354  01BB               	clrf	___flmul@sign
  2503  0355  2B70               	goto	l575
  2504  0356                     l1908:
  2505  0356  1283               	bcf	3,5	;RP0=0, select bank0
  2506  0357  1303               	bcf	3,6	;RP1=0, select bank0
  2507  0358  0846               	movf	___flmul@temp,w
  2508  0359  00B6               	movwf	??___flmul
  2509  035A  0836               	movf	??___flmul,w
  2510  035B  00C1               	movwf	___flmul@bexp
  2511  035C  30FF               	movlw	255
  2512  035D  05C2               	andwf	___flmul@prod,f
  2513  035E  30FF               	movlw	255
  2514  035F  05C3               	andwf	___flmul@prod+1,f
  2515  0360  307F               	movlw	127
  2516  0361  05C4               	andwf	___flmul@prod+2,f
  2517  0362  3000               	movlw	0
  2518  0363  05C5               	andwf	___flmul@prod+3,f
  2519  0364                     l1910:
  2520  0364  1C41               	btfss	___flmul@bexp,0
  2521  0365  2B67               	goto	u2641
  2522  0366  2B68               	goto	u2640
  2523  0367                     u2641:
  2524  0367  2B69               	goto	l1914
  2525  0368                     u2640:
  2526  0368                     l1912:
  2527  0368  17C4               	bsf	___flmul@prod+2,7
  2528  0369                     l1914:
  2529  0369  0841               	movf	___flmul@bexp,w
  2530  036A  00B6               	movwf	??___flmul
  2531  036B  1003               	clrc
  2532  036C  0C36               	rrf	??___flmul,w
  2533  036D  00B7               	movwf	??___flmul+1
  2534  036E  0837               	movf	??___flmul+1,w
  2535  036F  00C5               	movwf	___flmul@prod+3
  2536  0370                     l575:
  2537  0370  083B               	movf	___flmul@sign,w
  2538  0371  00B6               	movwf	??___flmul
  2539  0372  0836               	movf	??___flmul,w
  2540  0373  04C5               	iorwf	___flmul@prod+3,f
  2541  0374                     l1916:
  2542  0374  0845               	movf	___flmul@prod+3,w
  2543  0375  00B1               	movwf	?___flmul+3
  2544  0376  0844               	movf	___flmul@prod+2,w
  2545  0377  00B0               	movwf	?___flmul+2
  2546  0378  0843               	movf	___flmul@prod+1,w
  2547  0379  00AF               	movwf	?___flmul+1
  2548  037A  0842               	movf	___flmul@prod,w
  2549  037B  00AE               	movwf	?___flmul
  2550  037C                     l563:
  2551  037C  0008               	return
  2552  037D                     __end_of___flmul:
  2553                           
  2554                           	psect	text6
  2555  0EE6                     __ptext6:	
  2556 ;; *************** function __Umul8_16 *****************
  2557 ;; Defined at:
  2558 ;;		line 4 in file "C:\Program Files\Microchip\xc8\v2.31\pic\sources\c90\common\Umul8_16.c"
  2559 ;; Parameters:    Size  Location     Type
  2560 ;;  multiplier      1    wreg     unsigned char 
  2561 ;;  multiplicand    1    0[BANK0 ] unsigned char 
  2562 ;; Auto vars:     Size  Location     Type
  2563 ;;  multiplier      1    8[BANK0 ] unsigned char 
  2564 ;;  word_mpld       2    6[BANK0 ] unsigned int 
  2565 ;;  product         2    4[BANK0 ] unsigned int 
  2566 ;; Return value:  Size  Location     Type
  2567 ;;                  2    0[BANK0 ] unsigned int 
  2568 ;; Registers used:
  2569 ;;		wreg, status,2, status,0
  2570 ;; Tracked objects:
  2571 ;;		On entry : 0/0
  2572 ;;		On exit  : 0/0
  2573 ;;		Unchanged: 0/0
  2574 ;; Data sizes:     COMMON   BANK0   BANK1   BANK3   BANK2
  2575 ;;      Params:         0       2       0       0       0
  2576 ;;      Locals:         0       5       0       0       0
  2577 ;;      Temps:          0       2       0       0       0
  2578 ;;      Totals:         0       9       0       0       0
  2579 ;;Total ram usage:        9 bytes
  2580 ;; Hardware stack levels used:    1
  2581 ;; Hardware stack levels required when called:    1
  2582 ;; This function calls:
  2583 ;;		Nothing
  2584 ;; This function is called by:
  2585 ;;		___flmul
  2586 ;; This function uses a non-reentrant model
  2587 ;;
  2588                           
  2589                           
  2590                           ;psect for function __Umul8_16
  2591  0EE6                     __Umul8_16:
  2592                           
  2593                           ;incstack = 0
  2594                           ; Regs used in __Umul8_16: [wreg+status,2+status,0]
  2595                           ;__Umul8_16@multiplier stored from wreg
  2596  0EE6  1283               	bcf	3,5	;RP0=0, select bank0
  2597  0EE7  1303               	bcf	3,6	;RP1=0, select bank0
  2598  0EE8  00A8               	movwf	__Umul8_16@multiplier
  2599  0EE9                     l1766:
  2600  0EE9  01A4               	clrf	__Umul8_16@product
  2601  0EEA  01A5               	clrf	__Umul8_16@product+1
  2602  0EEB                     l1768:
  2603  0EEB  0820               	movf	__Umul8_16@multiplicand,w
  2604  0EEC  00A2               	movwf	??__Umul8_16
  2605  0EED  01A3               	clrf	??__Umul8_16+1
  2606  0EEE  0822               	movf	??__Umul8_16,w
  2607  0EEF  00A6               	movwf	__Umul8_16@word_mpld
  2608  0EF0  0823               	movf	??__Umul8_16+1,w
  2609  0EF1  00A7               	movwf	__Umul8_16@word_mpld+1
  2610  0EF2                     l1770:
  2611  0EF2  1C28               	btfss	__Umul8_16@multiplier,0
  2612  0EF3  2EF5               	goto	u2251
  2613  0EF4  2EF6               	goto	u2250
  2614  0EF5                     u2251:
  2615  0EF5  2EFC               	goto	l582
  2616  0EF6                     u2250:
  2617  0EF6                     l1772:
  2618  0EF6  0826               	movf	__Umul8_16@word_mpld,w
  2619  0EF7  07A4               	addwf	__Umul8_16@product,f
  2620  0EF8  1803               	skipnc
  2621  0EF9  0AA5               	incf	__Umul8_16@product+1,f
  2622  0EFA  0827               	movf	__Umul8_16@word_mpld+1,w
  2623  0EFB  07A5               	addwf	__Umul8_16@product+1,f
  2624  0EFC                     l582:
  2625  0EFC  3001               	movlw	1
  2626  0EFD                     u2265:
  2627  0EFD  1003               	clrc
  2628  0EFE  0DA6               	rlf	__Umul8_16@word_mpld,f
  2629  0EFF  0DA7               	rlf	__Umul8_16@word_mpld+1,f
  2630  0F00  3EFF               	addlw	-1
  2631  0F01  1D03               	skipz
  2632  0F02  2EFD               	goto	u2265
  2633  0F03  1003               	clrc
  2634  0F04  0CA8               	rrf	__Umul8_16@multiplier,f
  2635  0F05                     l1774:
  2636  0F05  0828               	movf	__Umul8_16@multiplier,w
  2637  0F06  1D03               	btfss	3,2
  2638  0F07  2F09               	goto	u2271
  2639  0F08  2F0A               	goto	u2270
  2640  0F09                     u2271:
  2641  0F09  2EF2               	goto	l1770
  2642  0F0A                     u2270:
  2643  0F0A                     l1776:
  2644  0F0A  0825               	movf	__Umul8_16@product+1,w
  2645  0F0B  00A1               	movwf	?__Umul8_16+1
  2646  0F0C  0824               	movf	__Umul8_16@product,w
  2647  0F0D  00A0               	movwf	?__Umul8_16
  2648  0F0E                     l584:
  2649  0F0E  0008               	return
  2650  0F0F                     __end_of__Umul8_16:
  2651                           
  2652                           	psect	text7
  2653  037D                     __ptext7:	
  2654 ;; *************** function ___fladd *****************
  2655 ;; Defined at:
  2656 ;;		line 10 in file "C:\Program Files\Microchip\xc8\v2.31\pic\sources\c90\common\sprcadd.c"
  2657 ;; Parameters:    Size  Location     Type
  2658 ;;  b               4   40[BANK0 ] unsigned int 
  2659 ;;  a               4   44[BANK0 ] unsigned int 
  2660 ;; Auto vars:     Size  Location     Type
  2661 ;;  grs             1   59[BANK0 ] unsigned char 
  2662 ;;  bexp            1   58[BANK0 ] unsigned char 
  2663 ;;  aexp            1   57[BANK0 ] unsigned char 
  2664 ;;  signs           1   56[BANK0 ] unsigned char 
  2665 ;; Return value:  Size  Location     Type
  2666 ;;                  4   40[BANK0 ] unsigned char 
  2667 ;; Registers used:
  2668 ;;		wreg, status,2, status,0, btemp+1
  2669 ;; Tracked objects:
  2670 ;;		On entry : 0/0
  2671 ;;		On exit  : 0/0
  2672 ;;		Unchanged: 0/0
  2673 ;; Data sizes:     COMMON   BANK0   BANK1   BANK3   BANK2
  2674 ;;      Params:         0       8       0       0       0
  2675 ;;      Locals:         0       4       0       0       0
  2676 ;;      Temps:          0       8       0       0       0
  2677 ;;      Totals:         0      20       0       0       0
  2678 ;;Total ram usage:       20 bytes
  2679 ;; Hardware stack levels used:    1
  2680 ;; Hardware stack levels required when called:    1
  2681 ;; This function calls:
  2682 ;;		Nothing
  2683 ;; This function is called by:
  2684 ;;		_canales
  2685 ;; This function uses a non-reentrant model
  2686 ;;
  2687                           
  2688                           
  2689                           ;psect for function ___fladd
  2690  037D                     ___fladd:
  2691  037D                     l1300:	
  2692                           ;incstack = 0
  2693                           ; Regs used in ___fladd: [wreg+status,2+status,0+btemp+1]
  2694                           
  2695  037D  1283               	bcf	3,5	;RP0=0, select bank0
  2696  037E  1303               	bcf	3,6	;RP1=0, select bank0
  2697  037F  084B               	movf	___fladd@b+3,w
  2698  0380  3980               	andlw	128
  2699  0381  00D0               	movwf	??___fladd
  2700  0382  0850               	movf	??___fladd,w
  2701  0383  00D8               	movwf	___fladd@signs
  2702  0384                     l1302:
  2703  0384  084B               	movf	___fladd@b+3,w
  2704  0385  00D0               	movwf	??___fladd
  2705  0386  0750               	addwf	??___fladd,w
  2706  0387  00D1               	movwf	??___fladd+1
  2707  0388  0851               	movf	??___fladd+1,w
  2708  0389  00DA               	movwf	___fladd@bexp
  2709  038A                     l1304:
  2710  038A  1FCA               	btfss	___fladd@b+2,7
  2711  038B  2B8D               	goto	u1261
  2712  038C  2B8E               	goto	u1260
  2713  038D                     u1261:
  2714  038D  2B8F               	goto	l1308
  2715  038E                     u1260:
  2716  038E                     l1306:
  2717  038E  145A               	bsf	___fladd@bexp,0
  2718  038F                     l1308:
  2719  038F  085A               	movf	___fladd@bexp,w
  2720  0390  1903               	btfsc	3,2
  2721  0391  2B93               	goto	u1271
  2722  0392  2B94               	goto	u1270
  2723  0393                     u1271:
  2724  0393  2BA4               	goto	l1318
  2725  0394                     u1270:
  2726  0394                     l1310:
  2727  0394  0A5A               	incf	___fladd@bexp,w
  2728  0395  1D03               	btfss	3,2
  2729  0396  2B98               	goto	u1281
  2730  0397  2B99               	goto	u1280
  2731  0398                     u1281:
  2732  0398  2BA1               	goto	l1314
  2733  0399                     u1280:
  2734  0399                     l1312:
  2735  0399  3000               	movlw	0
  2736  039A  00CB               	movwf	___fladd@b+3
  2737  039B  3000               	movlw	0
  2738  039C  00CA               	movwf	___fladd@b+2
  2739  039D  3000               	movlw	0
  2740  039E  00C9               	movwf	___fladd@b+1
  2741  039F  3000               	movlw	0
  2742  03A0  00C8               	movwf	___fladd@b
  2743  03A1                     l1314:
  2744  03A1  17CA               	bsf	___fladd@b+2,7
  2745  03A2                     l1316:
  2746  03A2  01CB               	clrf	___fladd@b+3
  2747  03A3  2BAC               	goto	l1320
  2748  03A4                     l1318:
  2749  03A4  3000               	movlw	0
  2750  03A5  00CB               	movwf	___fladd@b+3
  2751  03A6  3000               	movlw	0
  2752  03A7  00CA               	movwf	___fladd@b+2
  2753  03A8  3000               	movlw	0
  2754  03A9  00C9               	movwf	___fladd@b+1
  2755  03AA  3000               	movlw	0
  2756  03AB  00C8               	movwf	___fladd@b
  2757  03AC                     l1320:
  2758  03AC  084F               	movf	___fladd@a+3,w
  2759  03AD  3980               	andlw	128
  2760  03AE  00D0               	movwf	??___fladd
  2761  03AF  0850               	movf	??___fladd,w
  2762  03B0  00D9               	movwf	___fladd@aexp
  2763  03B1                     l1322:
  2764  03B1  0859               	movf	___fladd@aexp,w
  2765  03B2  0658               	xorwf	___fladd@signs,w
  2766  03B3  1903               	skipnz
  2767  03B4  2BB6               	goto	u1291
  2768  03B5  2BB7               	goto	u1290
  2769  03B6                     u1291:
  2770  03B6  2BB8               	goto	l1326
  2771  03B7                     u1290:
  2772  03B7                     l1324:
  2773  03B7  1758               	bsf	___fladd@signs,6
  2774  03B8                     l1326:
  2775  03B8  084F               	movf	___fladd@a+3,w
  2776  03B9  00D0               	movwf	??___fladd
  2777  03BA  0750               	addwf	??___fladd,w
  2778  03BB  00D1               	movwf	??___fladd+1
  2779  03BC  0851               	movf	??___fladd+1,w
  2780  03BD  00D9               	movwf	___fladd@aexp
  2781  03BE                     l1328:
  2782  03BE  1FCE               	btfss	___fladd@a+2,7
  2783  03BF  2BC1               	goto	u1301
  2784  03C0  2BC2               	goto	u1300
  2785  03C1                     u1301:
  2786  03C1  2BC3               	goto	l1332
  2787  03C2                     u1300:
  2788  03C2                     l1330:
  2789  03C2  1459               	bsf	___fladd@aexp,0
  2790  03C3                     l1332:
  2791  03C3  0859               	movf	___fladd@aexp,w
  2792  03C4  1903               	btfsc	3,2
  2793  03C5  2BC7               	goto	u1311
  2794  03C6  2BC8               	goto	u1310
  2795  03C7                     u1311:
  2796  03C7  2BD8               	goto	l1342
  2797  03C8                     u1310:
  2798  03C8                     l1334:
  2799  03C8  0A59               	incf	___fladd@aexp,w
  2800  03C9  1D03               	btfss	3,2
  2801  03CA  2BCC               	goto	u1321
  2802  03CB  2BCD               	goto	u1320
  2803  03CC                     u1321:
  2804  03CC  2BD5               	goto	l1338
  2805  03CD                     u1320:
  2806  03CD                     l1336:
  2807  03CD  3000               	movlw	0
  2808  03CE  00CF               	movwf	___fladd@a+3
  2809  03CF  3000               	movlw	0
  2810  03D0  00CE               	movwf	___fladd@a+2
  2811  03D1  3000               	movlw	0
  2812  03D2  00CD               	movwf	___fladd@a+1
  2813  03D3  3000               	movlw	0
  2814  03D4  00CC               	movwf	___fladd@a
  2815  03D5                     l1338:
  2816  03D5  17CE               	bsf	___fladd@a+2,7
  2817  03D6                     l1340:
  2818  03D6  01CF               	clrf	___fladd@a+3
  2819  03D7  2BE0               	goto	l467
  2820  03D8                     l1342:
  2821  03D8  3000               	movlw	0
  2822  03D9  00CF               	movwf	___fladd@a+3
  2823  03DA  3000               	movlw	0
  2824  03DB  00CE               	movwf	___fladd@a+2
  2825  03DC  3000               	movlw	0
  2826  03DD  00CD               	movwf	___fladd@a+1
  2827  03DE  3000               	movlw	0
  2828  03DF  00CC               	movwf	___fladd@a
  2829  03E0                     l467:
  2830  03E0  085A               	movf	___fladd@bexp,w
  2831  03E1  0259               	subwf	___fladd@aexp,w
  2832  03E2  1803               	skipnc
  2833  03E3  2BE5               	goto	u1331
  2834  03E4  2BE6               	goto	u1330
  2835  03E5                     u1331:
  2836  03E5  2C2A               	goto	l1378
  2837  03E6                     u1330:
  2838  03E6                     l1344:
  2839  03E6  1F58               	btfss	___fladd@signs,6
  2840  03E7  2BE9               	goto	u1341
  2841  03E8  2BEA               	goto	u1340
  2842  03E9                     u1341:
  2843  03E9  2BEE               	goto	l1348
  2844  03EA                     u1340:
  2845  03EA                     l1346:
  2846  03EA  3080               	movlw	128
  2847  03EB  00D0               	movwf	??___fladd
  2848  03EC  0850               	movf	??___fladd,w
  2849  03ED  06D8               	xorwf	___fladd@signs,f
  2850  03EE                     l1348:
  2851  03EE  085A               	movf	___fladd@bexp,w
  2852  03EF  00D0               	movwf	??___fladd
  2853  03F0  0850               	movf	??___fladd,w
  2854  03F1  00DB               	movwf	___fladd@grs
  2855  03F2                     l1350:
  2856  03F2  0859               	movf	___fladd@aexp,w
  2857  03F3  00D0               	movwf	??___fladd
  2858  03F4  0850               	movf	??___fladd,w
  2859  03F5  00DA               	movwf	___fladd@bexp
  2860  03F6                     l1352:
  2861  03F6  085B               	movf	___fladd@grs,w
  2862  03F7  00D0               	movwf	??___fladd
  2863  03F8  0850               	movf	??___fladd,w
  2864  03F9  00D9               	movwf	___fladd@aexp
  2865  03FA                     l1354:
  2866  03FA  0848               	movf	___fladd@b,w
  2867  03FB  00D0               	movwf	??___fladd
  2868  03FC  0850               	movf	??___fladd,w
  2869  03FD  00DB               	movwf	___fladd@grs
  2870  03FE                     l1356:
  2871  03FE  084C               	movf	___fladd@a,w
  2872  03FF  00D0               	movwf	??___fladd
  2873  0400  0850               	movf	??___fladd,w
  2874  0401  00C8               	movwf	___fladd@b
  2875  0402                     l1358:
  2876  0402  085B               	movf	___fladd@grs,w
  2877  0403  00D0               	movwf	??___fladd
  2878  0404  0850               	movf	??___fladd,w
  2879  0405  00CC               	movwf	___fladd@a
  2880  0406                     l1360:
  2881  0406  0849               	movf	___fladd@b+1,w
  2882  0407  00D0               	movwf	??___fladd
  2883  0408  0850               	movf	??___fladd,w
  2884  0409  00DB               	movwf	___fladd@grs
  2885  040A                     l1362:
  2886  040A  084D               	movf	___fladd@a+1,w
  2887  040B  00D0               	movwf	??___fladd
  2888  040C  0850               	movf	??___fladd,w
  2889  040D  00C9               	movwf	___fladd@b+1
  2890  040E                     l1364:
  2891  040E  085B               	movf	___fladd@grs,w
  2892  040F  00D0               	movwf	??___fladd
  2893  0410  0850               	movf	??___fladd,w
  2894  0411  00CD               	movwf	___fladd@a+1
  2895  0412                     l1366:
  2896  0412  084A               	movf	___fladd@b+2,w
  2897  0413  00D0               	movwf	??___fladd
  2898  0414  0850               	movf	??___fladd,w
  2899  0415  00DB               	movwf	___fladd@grs
  2900  0416                     l1368:
  2901  0416  084E               	movf	___fladd@a+2,w
  2902  0417  00D0               	movwf	??___fladd
  2903  0418  0850               	movf	??___fladd,w
  2904  0419  00CA               	movwf	___fladd@b+2
  2905  041A                     l1370:
  2906  041A  085B               	movf	___fladd@grs,w
  2907  041B  00D0               	movwf	??___fladd
  2908  041C  0850               	movf	??___fladd,w
  2909  041D  00CE               	movwf	___fladd@a+2
  2910  041E                     l1372:
  2911  041E  084B               	movf	___fladd@b+3,w
  2912  041F  00D0               	movwf	??___fladd
  2913  0420  0850               	movf	??___fladd,w
  2914  0421  00DB               	movwf	___fladd@grs
  2915  0422                     l1374:
  2916  0422  084F               	movf	___fladd@a+3,w
  2917  0423  00D0               	movwf	??___fladd
  2918  0424  0850               	movf	??___fladd,w
  2919  0425  00CB               	movwf	___fladd@b+3
  2920  0426                     l1376:
  2921  0426  085B               	movf	___fladd@grs,w
  2922  0427  00D0               	movwf	??___fladd
  2923  0428  0850               	movf	??___fladd,w
  2924  0429  00CF               	movwf	___fladd@a+3
  2925  042A                     l1378:
  2926  042A  01DB               	clrf	___fladd@grs
  2927  042B                     l1380:
  2928  042B  0859               	movf	___fladd@aexp,w
  2929  042C  00D0               	movwf	??___fladd
  2930  042D  01D1               	clrf	??___fladd+1
  2931  042E  0851               	movf	??___fladd+1,w
  2932  042F  00D3               	movwf	??___fladd+3
  2933  0430  085A               	movf	___fladd@bexp,w
  2934  0431  0250               	subwf	??___fladd,w
  2935  0432  00D2               	movwf	??___fladd+2
  2936  0433  1C03               	skipc
  2937  0434  03D3               	decf	??___fladd+3,f
  2938  0435  0853               	movf	??___fladd+3,w
  2939  0436  3A80               	xorlw	128
  2940  0437  00FF               	movwf	btemp+1
  2941  0438  3080               	movlw	128
  2942  0439  027F               	subwf	btemp+1,w
  2943  043A  1D03               	skipz
  2944  043B  2C3E               	goto	u1355
  2945  043C  301A               	movlw	26
  2946  043D  0252               	subwf	??___fladd+2,w
  2947  043E                     u1355:
  2948  043E  1C03               	skipc
  2949  043F  2C41               	goto	u1351
  2950  0440  2C42               	goto	u1350
  2951  0441                     u1351:
  2952  0441  2C7F               	goto	l1396
  2953  0442                     u1350:
  2954  0442                     l1382:
  2955  0442  1283               	bcf	3,5	;RP0=0, select bank0
  2956  0443  1303               	bcf	3,6	;RP1=0, select bank0
  2957  0444  084B               	movf	___fladd@b+3,w
  2958  0445  044A               	iorwf	___fladd@b+2,w
  2959  0446  0449               	iorwf	___fladd@b+1,w
  2960  0447  0448               	iorwf	___fladd@b,w
  2961  0448  1D03               	skipz
  2962  0449  2C4B               	goto	u1361
  2963  044A  2C4D               	goto	u1360
  2964  044B                     u1361:
  2965  044B  3001               	movlw	1
  2966  044C  2C4E               	goto	u1370
  2967  044D                     u1360:
  2968  044D  3000               	movlw	0
  2969  044E                     u1370:
  2970  044E  00D0               	movwf	??___fladd
  2971  044F  0850               	movf	??___fladd,w
  2972  0450  00DB               	movwf	___fladd@grs
  2973  0451  3000               	movlw	0
  2974  0452  00CB               	movwf	___fladd@b+3
  2975  0453  3000               	movlw	0
  2976  0454  00CA               	movwf	___fladd@b+2
  2977  0455  3000               	movlw	0
  2978  0456  00C9               	movwf	___fladd@b+1
  2979  0457  3000               	movlw	0
  2980  0458  00C8               	movwf	___fladd@b
  2981  0459  0859               	movf	___fladd@aexp,w
  2982  045A  00D0               	movwf	??___fladd
  2983  045B  0850               	movf	??___fladd,w
  2984  045C  00DA               	movwf	___fladd@bexp
  2985  045D  2C87               	goto	l471
  2986  045E                     l473:
  2987  045E  1C5B               	btfss	___fladd@grs,0
  2988  045F  2C61               	goto	u1381
  2989  0460  2C62               	goto	u1380
  2990  0461                     u1381:
  2991  0461  2C6B               	goto	l1386
  2992  0462                     u1380:
  2993  0462                     l1384:
  2994  0462  085B               	movf	___fladd@grs,w
  2995  0463  00D0               	movwf	??___fladd
  2996  0464  1003               	clrc
  2997  0465  0C50               	rrf	??___fladd,w
  2998  0466  3801               	iorlw	1
  2999  0467  00D1               	movwf	??___fladd+1
  3000  0468  0851               	movf	??___fladd+1,w
  3001  0469  00DB               	movwf	___fladd@grs
  3002  046A  2C6D               	goto	l1388
  3003  046B                     l1386:
  3004  046B  1003               	clrc
  3005  046C  0CDB               	rrf	___fladd@grs,f
  3006  046D                     l1388:
  3007  046D  1C48               	btfss	___fladd@b,0
  3008  046E  2C70               	goto	u1391
  3009  046F  2C71               	goto	u1390
  3010  0470                     u1391:
  3011  0470  2C72               	goto	l1392
  3012  0471                     u1390:
  3013  0471                     l1390:
  3014  0471  17DB               	bsf	___fladd@grs,7
  3015  0472                     l1392:
  3016  0472  3001               	movlw	1
  3017  0473  00D0               	movwf	??___fladd
  3018  0474                     u1405:
  3019  0474  0D4B               	rlf	___fladd@b+3,w
  3020  0475  0CCB               	rrf	___fladd@b+3,f
  3021  0476  0CCA               	rrf	___fladd@b+2,f
  3022  0477  0CC9               	rrf	___fladd@b+1,f
  3023  0478  0CC8               	rrf	___fladd@b,f
  3024  0479  0BD0               	decfsz	??___fladd& (0+127),f
  3025  047A  2C74               	goto	u1405
  3026  047B                     l1394:
  3027  047B  3001               	movlw	1
  3028  047C  00D0               	movwf	??___fladd
  3029  047D  0850               	movf	??___fladd,w
  3030  047E  07DA               	addwf	___fladd@bexp,f
  3031  047F                     l1396:
  3032  047F  1283               	bcf	3,5	;RP0=0, select bank0
  3033  0480  1303               	bcf	3,6	;RP1=0, select bank0
  3034  0481  0859               	movf	___fladd@aexp,w
  3035  0482  025A               	subwf	___fladd@bexp,w
  3036  0483  1C03               	skipc
  3037  0484  2C86               	goto	u1411
  3038  0485  2C87               	goto	u1410
  3039  0486                     u1411:
  3040  0486  2C5E               	goto	l473
  3041  0487                     u1410:
  3042  0487                     l471:
  3043  0487  1B58               	btfsc	___fladd@signs,6
  3044  0488  2C8A               	goto	u1421
  3045  0489  2C8B               	goto	u1420
  3046  048A                     u1421:
  3047  048A  2CD6               	goto	l1422
  3048  048B                     u1420:
  3049  048B                     l1398:
  3050  048B  085A               	movf	___fladd@bexp,w
  3051  048C  1D03               	btfss	3,2
  3052  048D  2C8F               	goto	u1431
  3053  048E  2C90               	goto	u1430
  3054  048F                     u1431:
  3055  048F  2C99               	goto	l1404
  3056  0490                     u1430:
  3057  0490                     l1400:
  3058  0490  3000               	movlw	0
  3059  0491  00CB               	movwf	?___fladd+3
  3060  0492  3000               	movlw	0
  3061  0493  00CA               	movwf	?___fladd+2
  3062  0494  3000               	movlw	0
  3063  0495  00C9               	movwf	?___fladd+1
  3064  0496  3000               	movlw	0
  3065  0497  00C8               	movwf	?___fladd
  3066  0498  2E04               	goto	l480
  3067  0499                     l1404:
  3068  0499  084C               	movf	___fladd@a,w
  3069  049A  07C8               	addwf	___fladd@b,f
  3070  049B  084D               	movf	___fladd@a+1,w
  3071  049C  1103               	clrz
  3072  049D  1803               	skipnc
  3073  049E  3E01               	addlw	1
  3074  049F  1903               	skipnz
  3075  04A0  2CA2               	goto	u1441
  3076  04A1  07C9               	addwf	___fladd@b+1,f
  3077  04A2                     u1441:
  3078  04A2  084E               	movf	___fladd@a+2,w
  3079  04A3  1103               	clrz
  3080  04A4  1803               	skipnc
  3081  04A5  3E01               	addlw	1
  3082  04A6  1903               	skipnz
  3083  04A7  2CA9               	goto	u1442
  3084  04A8  07CA               	addwf	___fladd@b+2,f
  3085  04A9                     u1442:
  3086  04A9  084F               	movf	___fladd@a+3,w
  3087  04AA  1103               	clrz
  3088  04AB  1803               	skipnc
  3089  04AC  3E01               	addlw	1
  3090  04AD  1903               	skipnz
  3091  04AE  2CB0               	goto	u1443
  3092  04AF  07CB               	addwf	___fladd@b+3,f
  3093  04B0                     u1443:
  3094  04B0                     l1406:
  3095  04B0  1C4B               	btfss	___fladd@b+3,0
  3096  04B1  2CB3               	goto	u1451
  3097  04B2  2CB4               	goto	u1450
  3098  04B3                     u1451:
  3099  04B3  2D8A               	goto	l1456
  3100  04B4                     u1450:
  3101  04B4                     l1408:
  3102  04B4  1C5B               	btfss	___fladd@grs,0
  3103  04B5  2CB7               	goto	u1461
  3104  04B6  2CB8               	goto	u1460
  3105  04B7                     u1461:
  3106  04B7  2CC1               	goto	l1412
  3107  04B8                     u1460:
  3108  04B8                     l1410:
  3109  04B8  085B               	movf	___fladd@grs,w
  3110  04B9  00D0               	movwf	??___fladd
  3111  04BA  1003               	clrc
  3112  04BB  0C50               	rrf	??___fladd,w
  3113  04BC  3801               	iorlw	1
  3114  04BD  00D1               	movwf	??___fladd+1
  3115  04BE  0851               	movf	??___fladd+1,w
  3116  04BF  00DB               	movwf	___fladd@grs
  3117  04C0  2CC3               	goto	l1414
  3118  04C1                     l1412:
  3119  04C1  1003               	clrc
  3120  04C2  0CDB               	rrf	___fladd@grs,f
  3121  04C3                     l1414:
  3122  04C3  1C48               	btfss	___fladd@b,0
  3123  04C4  2CC6               	goto	u1471
  3124  04C5  2CC7               	goto	u1470
  3125  04C6                     u1471:
  3126  04C6  2CC8               	goto	l1418
  3127  04C7                     u1470:
  3128  04C7                     l1416:
  3129  04C7  17DB               	bsf	___fladd@grs,7
  3130  04C8                     l1418:
  3131  04C8  3001               	movlw	1
  3132  04C9  00D0               	movwf	??___fladd
  3133  04CA                     u1485:
  3134  04CA  0D4B               	rlf	___fladd@b+3,w
  3135  04CB  0CCB               	rrf	___fladd@b+3,f
  3136  04CC  0CCA               	rrf	___fladd@b+2,f
  3137  04CD  0CC9               	rrf	___fladd@b+1,f
  3138  04CE  0CC8               	rrf	___fladd@b,f
  3139  04CF  0BD0               	decfsz	??___fladd& (0+127),f
  3140  04D0  2CCA               	goto	u1485
  3141  04D1                     l1420:
  3142  04D1  3001               	movlw	1
  3143  04D2  00D0               	movwf	??___fladd
  3144  04D3  0850               	movf	??___fladd,w
  3145  04D4  07DA               	addwf	___fladd@bexp,f
  3146  04D5  2D8A               	goto	l1456
  3147  04D6                     l1422:
  3148  04D6  084B               	movf	___fladd@b+3,w
  3149  04D7  3A80               	xorlw	128
  3150  04D8  00FF               	movwf	btemp+1
  3151  04D9  084F               	movf	___fladd@a+3,w
  3152  04DA  3A80               	xorlw	128
  3153  04DB  027F               	subwf	btemp+1,w
  3154  04DC  1D03               	skipz
  3155  04DD  2CE8               	goto	u1493
  3156  04DE  084E               	movf	___fladd@a+2,w
  3157  04DF  024A               	subwf	___fladd@b+2,w
  3158  04E0  1D03               	skipz
  3159  04E1  2CE8               	goto	u1493
  3160  04E2  084D               	movf	___fladd@a+1,w
  3161  04E3  0249               	subwf	___fladd@b+1,w
  3162  04E4  1D03               	skipz
  3163  04E5  2CE8               	goto	u1493
  3164  04E6  084C               	movf	___fladd@a,w
  3165  04E7  0248               	subwf	___fladd@b,w
  3166  04E8                     u1493:
  3167  04E8  1803               	skipnc
  3168  04E9  2CEB               	goto	u1491
  3169  04EA  2CEC               	goto	u1490
  3170  04EB                     u1491:
  3171  04EB  2D44               	goto	l1432
  3172  04EC                     u1490:
  3173  04EC                     l1424:
  3174  04EC  30FF               	movlw	255
  3175  04ED  00D0               	movwf	??___fladd
  3176  04EE  30FF               	movlw	255
  3177  04EF  00D1               	movwf	??___fladd+1
  3178  04F0  30FF               	movlw	255
  3179  04F1  00D2               	movwf	??___fladd+2
  3180  04F2  30FF               	movlw	255
  3181  04F3  00D3               	movwf	??___fladd+3
  3182  04F4  084C               	movf	___fladd@a,w
  3183  04F5  00D4               	movwf	??___fladd+4
  3184  04F6  084D               	movf	___fladd@a+1,w
  3185  04F7  00D5               	movwf	??___fladd+5
  3186  04F8  084E               	movf	___fladd@a+2,w
  3187  04F9  00D6               	movwf	??___fladd+6
  3188  04FA  084F               	movf	___fladd@a+3,w
  3189  04FB  00D7               	movwf	??___fladd+7
  3190  04FC  0848               	movf	___fladd@b,w
  3191  04FD  02D4               	subwf	??___fladd+4,f
  3192  04FE  0849               	movf	___fladd@b+1,w
  3193  04FF  1C03               	skipc
  3194  0500  0F49               	incfsz	___fladd@b+1,w
  3195  0501  2D03               	goto	u1501
  3196  0502  2D04               	goto	u1502
  3197  0503                     u1501:
  3198  0503  02D5               	subwf	??___fladd+5,f
  3199  0504                     u1502:
  3200  0504  084A               	movf	___fladd@b+2,w
  3201  0505  1C03               	skipc
  3202  0506  0F4A               	incfsz	___fladd@b+2,w
  3203  0507  2D09               	goto	u1503
  3204  0508  2D0A               	goto	u1504
  3205  0509                     u1503:
  3206  0509  02D6               	subwf	??___fladd+6,f
  3207  050A                     u1504:
  3208  050A  084B               	movf	___fladd@b+3,w
  3209  050B  1C03               	skipc
  3210  050C  0F4B               	incfsz	___fladd@b+3,w
  3211  050D  2D0F               	goto	u1505
  3212  050E  2D10               	goto	u1506
  3213  050F                     u1505:
  3214  050F  02D7               	subwf	??___fladd+7,f
  3215  0510                     u1506:
  3216  0510  0854               	movf	??___fladd+4,w
  3217  0511  07D0               	addwf	??___fladd,f
  3218  0512  0855               	movf	??___fladd+5,w
  3219  0513  1803               	skipnc
  3220  0514  0F55               	incfsz	??___fladd+5,w
  3221  0515  2D17               	goto	u1510
  3222  0516  2D18               	goto	u1511
  3223  0517                     u1510:
  3224  0517  07D1               	addwf	??___fladd+1,f
  3225  0518                     u1511:
  3226  0518  0856               	movf	??___fladd+6,w
  3227  0519  1803               	skipnc
  3228  051A  0F56               	incfsz	??___fladd+6,w
  3229  051B  2D1D               	goto	u1512
  3230  051C  2D1E               	goto	u1513
  3231  051D                     u1512:
  3232  051D  07D2               	addwf	??___fladd+2,f
  3233  051E                     u1513:
  3234  051E  0857               	movf	??___fladd+7,w
  3235  051F  1803               	skipnc
  3236  0520  0A57               	incf	??___fladd+7,w
  3237  0521  07D3               	addwf	??___fladd+3,f
  3238  0522  0853               	movf	??___fladd+3,w
  3239  0523  00CB               	movwf	___fladd@b+3
  3240  0524  0852               	movf	??___fladd+2,w
  3241  0525  00CA               	movwf	___fladd@b+2
  3242  0526  0851               	movf	??___fladd+1,w
  3243  0527  00C9               	movwf	___fladd@b+1
  3244  0528  0850               	movf	??___fladd,w
  3245  0529  00C8               	movwf	___fladd@b
  3246  052A                     l1426:
  3247  052A  3080               	movlw	128
  3248  052B  00D0               	movwf	??___fladd
  3249  052C  0850               	movf	??___fladd,w
  3250  052D  06D8               	xorwf	___fladd@signs,f
  3251  052E  09DB               	comf	___fladd@grs,f
  3252  052F  0ADB               	incf	___fladd@grs,f
  3253  0530                     l1428:
  3254  0530  085B               	movf	___fladd@grs,w
  3255  0531  1D03               	btfss	3,2
  3256  0532  2D34               	goto	u1521
  3257  0533  2D35               	goto	u1520
  3258  0534                     u1521:
  3259  0534  2D52               	goto	l488
  3260  0535                     u1520:
  3261  0535                     l1430:
  3262  0535  3001               	movlw	1
  3263  0536  07C8               	addwf	___fladd@b,f
  3264  0537  3000               	movlw	0
  3265  0538  1803               	skipnc
  3266  0539  3001               	movlw	1
  3267  053A  07C9               	addwf	___fladd@b+1,f
  3268  053B  3000               	movlw	0
  3269  053C  1803               	skipnc
  3270  053D  3001               	movlw	1
  3271  053E  07CA               	addwf	___fladd@b+2,f
  3272  053F  3000               	movlw	0
  3273  0540  1803               	skipnc
  3274  0541  3001               	movlw	1
  3275  0542  07CB               	addwf	___fladd@b+3,f
  3276  0543  2D52               	goto	l488
  3277  0544                     l1432:
  3278  0544  084C               	movf	___fladd@a,w
  3279  0545  02C8               	subwf	___fladd@b,f
  3280  0546  084D               	movf	___fladd@a+1,w
  3281  0547  1C03               	skipc
  3282  0548  0F4D               	incfsz	___fladd@a+1,w
  3283  0549  02C9               	subwf	___fladd@b+1,f
  3284  054A  084E               	movf	___fladd@a+2,w
  3285  054B  1C03               	skipc
  3286  054C  0F4E               	incfsz	___fladd@a+2,w
  3287  054D  02CA               	subwf	___fladd@b+2,f
  3288  054E  084F               	movf	___fladd@a+3,w
  3289  054F  1C03               	skipc
  3290  0550  0F4F               	incfsz	___fladd@a+3,w
  3291  0551  02CB               	subwf	___fladd@b+3,f
  3292  0552                     l488:
  3293  0552  084B               	movf	___fladd@b+3,w
  3294  0553  044A               	iorwf	___fladd@b+2,w
  3295  0554  0449               	iorwf	___fladd@b+1,w
  3296  0555  0448               	iorwf	___fladd@b,w
  3297  0556  1D03               	skipz
  3298  0557  2D59               	goto	u1531
  3299  0558  2D5A               	goto	u1530
  3300  0559                     u1531:
  3301  0559  2D86               	goto	l1454
  3302  055A                     u1530:
  3303  055A                     l1434:
  3304  055A  085B               	movf	___fladd@grs,w
  3305  055B  1D03               	btfss	3,2
  3306  055C  2D5E               	goto	u1541
  3307  055D  2D5F               	goto	u1540
  3308  055E                     u1541:
  3309  055E  2D86               	goto	l1454
  3310  055F                     u1540:
  3311  055F                     l1436:
  3312  055F  3000               	movlw	0
  3313  0560  00CB               	movwf	?___fladd+3
  3314  0561  3000               	movlw	0
  3315  0562  00CA               	movwf	?___fladd+2
  3316  0563  3000               	movlw	0
  3317  0564  00C9               	movwf	?___fladd+1
  3318  0565  3000               	movlw	0
  3319  0566  00C8               	movwf	?___fladd
  3320  0567  2E04               	goto	l480
  3321  0568                     l1440:
  3322  0568  3001               	movlw	1
  3323  0569  00D0               	movwf	??___fladd
  3324  056A                     u1555:
  3325  056A  1003               	clrc
  3326  056B  0DC8               	rlf	___fladd@b,f
  3327  056C  0DC9               	rlf	___fladd@b+1,f
  3328  056D  0DCA               	rlf	___fladd@b+2,f
  3329  056E  0DCB               	rlf	___fladd@b+3,f
  3330  056F  0BD0               	decfsz	??___fladd,f
  3331  0570  2D6A               	goto	u1555
  3332  0571                     l1442:
  3333  0571  1FDB               	btfss	___fladd@grs,7
  3334  0572  2D74               	goto	u1561
  3335  0573  2D75               	goto	u1560
  3336  0574                     u1561:
  3337  0574  2D76               	goto	l492
  3338  0575                     u1560:
  3339  0575                     l1444:
  3340  0575  1448               	bsf	___fladd@b,0
  3341  0576                     l492:
  3342  0576  1C5B               	btfss	___fladd@grs,0
  3343  0577  2D79               	goto	u1571
  3344  0578  2D7A               	goto	u1570
  3345  0579                     u1571:
  3346  0579  2D7D               	goto	l1448
  3347  057A                     u1570:
  3348  057A                     l1446:
  3349  057A  1403               	setc
  3350  057B  0DDB               	rlf	___fladd@grs,f
  3351  057C  2D7F               	goto	l1450
  3352  057D                     l1448:
  3353  057D  1003               	clrc
  3354  057E  0DDB               	rlf	___fladd@grs,f
  3355  057F                     l1450:
  3356  057F  085A               	movf	___fladd@bexp,w
  3357  0580  1903               	btfsc	3,2
  3358  0581  2D83               	goto	u1581
  3359  0582  2D84               	goto	u1580
  3360  0583                     u1581:
  3361  0583  2D86               	goto	l1454
  3362  0584                     u1580:
  3363  0584                     l1452:
  3364  0584  3001               	movlw	1
  3365  0585  02DA               	subwf	___fladd@bexp,f
  3366  0586                     l1454:
  3367  0586  1FCA               	btfss	___fladd@b+2,7
  3368  0587  2D89               	goto	u1591
  3369  0588  2D8A               	goto	u1590
  3370  0589                     u1591:
  3371  0589  2D68               	goto	l1440
  3372  058A                     u1590:
  3373  058A                     l1456:
  3374  058A  01D9               	clrf	___fladd@aexp
  3375  058B                     l1458:
  3376  058B  1FDB               	btfss	___fladd@grs,7
  3377  058C  2D8E               	goto	u1601
  3378  058D  2D8F               	goto	u1600
  3379  058E                     u1601:
  3380  058E  2D9D               	goto	l1466
  3381  058F                     u1600:
  3382  058F                     l1460:
  3383  058F  085B               	movf	___fladd@grs,w
  3384  0590  397F               	andlw	127
  3385  0591  1903               	btfsc	3,2
  3386  0592  2D94               	goto	u1611
  3387  0593  2D95               	goto	u1610
  3388  0594                     u1611:
  3389  0594  2D98               	goto	l498
  3390  0595                     u1610:
  3391  0595                     l1462:
  3392  0595  01D9               	clrf	___fladd@aexp
  3393  0596  0AD9               	incf	___fladd@aexp,f
  3394  0597  2D9D               	goto	l1466
  3395  0598                     l498:
  3396  0598  1C48               	btfss	___fladd@b,0
  3397  0599  2D9B               	goto	u1621
  3398  059A  2D9C               	goto	u1620
  3399  059B                     u1621:
  3400  059B  2D9D               	goto	l1466
  3401  059C                     u1620:
  3402  059C  2D95               	goto	l1462
  3403  059D                     l1466:
  3404  059D  0859               	movf	___fladd@aexp,w
  3405  059E  1903               	btfsc	3,2
  3406  059F  2DA1               	goto	u1631
  3407  05A0  2DA2               	goto	u1630
  3408  05A1                     u1631:
  3409  05A1  2DD6               	goto	l501
  3410  05A2                     u1630:
  3411  05A2                     l1468:
  3412  05A2  3001               	movlw	1
  3413  05A3  07C8               	addwf	___fladd@b,f
  3414  05A4  3000               	movlw	0
  3415  05A5  1803               	skipnc
  3416  05A6  3001               	movlw	1
  3417  05A7  07C9               	addwf	___fladd@b+1,f
  3418  05A8  3000               	movlw	0
  3419  05A9  1803               	skipnc
  3420  05AA  3001               	movlw	1
  3421  05AB  07CA               	addwf	___fladd@b+2,f
  3422  05AC  3000               	movlw	0
  3423  05AD  1803               	skipnc
  3424  05AE  3001               	movlw	1
  3425  05AF  07CB               	addwf	___fladd@b+3,f
  3426  05B0                     l1470:
  3427  05B0  1C4B               	btfss	___fladd@b+3,0
  3428  05B1  2DB3               	goto	u1641
  3429  05B2  2DB4               	goto	u1640
  3430  05B3                     u1641:
  3431  05B3  2DD6               	goto	l501
  3432  05B4                     u1640:
  3433  05B4                     l1472:
  3434  05B4  0848               	movf	___fladd@b,w
  3435  05B5  00D0               	movwf	??___fladd
  3436  05B6  0849               	movf	___fladd@b+1,w
  3437  05B7  00D1               	movwf	??___fladd+1
  3438  05B8  084A               	movf	___fladd@b+2,w
  3439  05B9  00D2               	movwf	??___fladd+2
  3440  05BA  084B               	movf	___fladd@b+3,w
  3441  05BB  00D3               	movwf	??___fladd+3
  3442  05BC  3001               	movlw	1
  3443  05BD  00D4               	movwf	??___fladd+4
  3444  05BE                     u1655:
  3445  05BE  0D53               	rlf	??___fladd+3,w
  3446  05BF  0CD3               	rrf	??___fladd+3,f
  3447  05C0  0CD2               	rrf	??___fladd+2,f
  3448  05C1  0CD1               	rrf	??___fladd+1,f
  3449  05C2  0CD0               	rrf	??___fladd,f
  3450  05C3                     u1650:
  3451  05C3  0BD4               	decfsz	??___fladd+4,f
  3452  05C4  2DBE               	goto	u1655
  3453  05C5  0853               	movf	??___fladd+3,w
  3454  05C6  00CB               	movwf	___fladd@b+3
  3455  05C7  0852               	movf	??___fladd+2,w
  3456  05C8  00CA               	movwf	___fladd@b+2
  3457  05C9  0851               	movf	??___fladd+1,w
  3458  05CA  00C9               	movwf	___fladd@b+1
  3459  05CB  0850               	movf	??___fladd,w
  3460  05CC  00C8               	movwf	___fladd@b
  3461  05CD  0A5A               	incf	___fladd@bexp,w
  3462  05CE  1903               	btfsc	3,2
  3463  05CF  2DD1               	goto	u1661
  3464  05D0  2DD2               	goto	u1660
  3465  05D1                     u1661:
  3466  05D1  2DD6               	goto	l501
  3467  05D2                     u1660:
  3468  05D2                     l1474:
  3469  05D2  3001               	movlw	1
  3470  05D3  00D0               	movwf	??___fladd
  3471  05D4  0850               	movf	??___fladd,w
  3472  05D5  07DA               	addwf	___fladd@bexp,f
  3473  05D6                     l501:
  3474  05D6  0A5A               	incf	___fladd@bexp,w
  3475  05D7  1903               	btfsc	3,2
  3476  05D8  2DDA               	goto	u1671
  3477  05D9  2DDB               	goto	u1670
  3478  05DA                     u1671:
  3479  05DA  2DE0               	goto	l1478
  3480  05DB                     u1670:
  3481  05DB                     l1476:
  3482  05DB  085A               	movf	___fladd@bexp,w
  3483  05DC  1D03               	btfss	3,2
  3484  05DD  2DDF               	goto	u1681
  3485  05DE  2DE0               	goto	u1680
  3486  05DF                     u1681:
  3487  05DF  2DEE               	goto	l1484
  3488  05E0                     u1680:
  3489  05E0                     l1478:
  3490  05E0  3000               	movlw	0
  3491  05E1  00CB               	movwf	___fladd@b+3
  3492  05E2  3000               	movlw	0
  3493  05E3  00CA               	movwf	___fladd@b+2
  3494  05E4  3000               	movlw	0
  3495  05E5  00C9               	movwf	___fladd@b+1
  3496  05E6  3000               	movlw	0
  3497  05E7  00C8               	movwf	___fladd@b
  3498  05E8                     l1480:
  3499  05E8  085A               	movf	___fladd@bexp,w
  3500  05E9  1D03               	btfss	3,2
  3501  05EA  2DEC               	goto	u1691
  3502  05EB  2DED               	goto	u1690
  3503  05EC                     u1691:
  3504  05EC  2DEE               	goto	l1484
  3505  05ED                     u1690:
  3506  05ED                     l1482:
  3507  05ED  01D8               	clrf	___fladd@signs
  3508  05EE                     l1484:
  3509  05EE  1C5A               	btfss	___fladd@bexp,0
  3510  05EF  2DF1               	goto	u1701
  3511  05F0  2DF2               	goto	u1700
  3512  05F1                     u1701:
  3513  05F1  2DF4               	goto	l1488
  3514  05F2                     u1700:
  3515  05F2                     l1486:
  3516  05F2  17CA               	bsf	___fladd@b+2,7
  3517  05F3  2DF8               	goto	l509
  3518  05F4                     l1488:
  3519  05F4  307F               	movlw	127
  3520  05F5  00D0               	movwf	??___fladd
  3521  05F6  0850               	movf	??___fladd,w
  3522  05F7  05CA               	andwf	___fladd@b+2,f
  3523  05F8                     l509:
  3524  05F8  085A               	movf	___fladd@bexp,w
  3525  05F9  00D0               	movwf	??___fladd
  3526  05FA  1003               	clrc
  3527  05FB  0C50               	rrf	??___fladd,w
  3528  05FC  00D1               	movwf	??___fladd+1
  3529  05FD  0851               	movf	??___fladd+1,w
  3530  05FE  00CB               	movwf	___fladd@b+3
  3531  05FF                     l1490:
  3532  05FF  1FD8               	btfss	___fladd@signs,7
  3533  0600  2E02               	goto	u1711
  3534  0601  2E03               	goto	u1710
  3535  0602                     u1711:
  3536  0602  2E04               	goto	l510
  3537  0603                     u1710:
  3538  0603                     l1492:
  3539  0603  17CB               	bsf	___fladd@b+3,7
  3540  0604                     l510:
  3541  0604                     l480:
  3542  0604  0008               	return
  3543  0605                     __end_of___fladd:
  3544                           
  3545                           	psect	text8
  3546  0F0F                     __ptext8:	
  3547 ;; *************** function _isr *****************
  3548 ;; Defined at:
  3549 ;;		line 69 in file "MainSlave2.c"
  3550 ;; Parameters:    Size  Location     Type
  3551 ;;		None
  3552 ;; Auto vars:     Size  Location     Type
  3553 ;;		None
  3554 ;; Return value:  Size  Location     Type
  3555 ;;                  1    wreg      void 
  3556 ;; Registers used:
  3557 ;;		wreg, fsr0l, fsr0h, status,2, status,0
  3558 ;; Tracked objects:
  3559 ;;		On entry : 0/0
  3560 ;;		On exit  : 0/0
  3561 ;;		Unchanged: 0/0
  3562 ;; Data sizes:     COMMON   BANK0   BANK1   BANK3   BANK2
  3563 ;;      Params:         0       0       0       0       0
  3564 ;;      Locals:         0       0       0       0       0
  3565 ;;      Temps:          6       0       0       0       0
  3566 ;;      Totals:         6       0       0       0       0
  3567 ;;Total ram usage:        6 bytes
  3568 ;; Hardware stack levels used:    1
  3569 ;; This function calls:
  3570 ;;		Nothing
  3571 ;; This function is called by:
  3572 ;;		Interrupt level 1
  3573 ;; This function uses a non-reentrant model
  3574 ;;
  3575                           
  3576                           
  3577                           ;psect for function _isr
  3578  0F0F                     _isr:
  3579  0F0F                     i1l1706:
  3580                           
  3581                           ;MainSlave2.c: 70:     if(PIR1bits.ADIF == 1){
  3582  0F0F  1283               	bcf	3,5	;RP0=0, select bank0
  3583  0F10  1303               	bcf	3,6	;RP1=0, select bank0
  3584  0F11  1F0C               	btfss	12,6	;volatile
  3585  0F12  2F14               	goto	u224_21
  3586  0F13  2F15               	goto	u224_20
  3587  0F14                     u224_21:
  3588  0F14  2F34               	goto	i1l63
  3589  0F15                     u224_20:
  3590  0F15  2F20               	goto	i1l1716
  3591  0F16                     i1l1710:
  3592                           
  3593                           ;MainSlave2.c: 73:                 VAL = ADRESH;
  3594  0F16  081E               	movf	30,w	;volatile
  3595  0F17  00F0               	movwf	??_isr
  3596  0F18  0870               	movf	??_isr,w
  3597  0F19  00EF               	movwf	_VAL
  3598                           
  3599                           ;MainSlave2.c: 74:                 break;
  3600  0F1A  2F33               	goto	i1l66
  3601  0F1B                     i1l1712:
  3602                           
  3603                           ;MainSlave2.c: 77:                 VAL2 = ADRESH;
  3604  0F1B  081E               	movf	30,w	;volatile
  3605  0F1C  00F0               	movwf	??_isr
  3606  0F1D  0870               	movf	??_isr,w
  3607  0F1E  00F9               	movwf	_VAL2
  3608                           
  3609                           ;MainSlave2.c: 78:                 break;
  3610  0F1F  2F33               	goto	i1l66
  3611  0F20                     i1l1716:
  3612  0F20  0C1F               	rrf	31,w	;volatile
  3613  0F21  00F0               	movwf	??_isr
  3614  0F22  0C70               	rrf	??_isr,w
  3615  0F23  390F               	andlw	15
  3616  0F24  00F1               	movwf	??_isr+1
  3617  0F25  01F2               	clrf	??_isr+2
  3618                           
  3619                           ; Switch on 2 bytes has been partitioned into a top level switch of size 1, and 1 sub-sw
      +                          itches
  3620                           ; Switch size 1, requested type "simple"
  3621                           ; Number of cases is 1, Range of values is 0 to 0
  3622                           ; switch strategies available:
  3623                           ; Name         Instructions Cycles
  3624                           ; simple_byte            4     3 (average)
  3625                           ; direct_byte           11     8 (fixed)
  3626                           ; jumptable            260     6 (fixed)
  3627                           ;	Chosen strategy is simple_byte
  3628  0F26  0872               	movf	??_isr+2,w
  3629  0F27  3A00               	xorlw	0	; case 0
  3630  0F28  1903               	skipnz
  3631  0F29  2F2B               	goto	i1l2048
  3632  0F2A  2F33               	goto	i1l66
  3633  0F2B                     i1l2048:
  3634                           
  3635                           ; Switch size 1, requested type "simple"
  3636                           ; Number of cases is 2, Range of values is 0 to 1
  3637                           ; switch strategies available:
  3638                           ; Name         Instructions Cycles
  3639                           ; simple_byte            7     4 (average)
  3640                           ; direct_byte           14     8 (fixed)
  3641                           ; jumptable            260     6 (fixed)
  3642                           ;	Chosen strategy is simple_byte
  3643  0F2B  0871               	movf	??_isr+1,w
  3644  0F2C  3A00               	xorlw	0	; case 0
  3645  0F2D  1903               	skipnz
  3646  0F2E  2F16               	goto	i1l1710
  3647  0F2F  3A01               	xorlw	1	; case 1
  3648  0F30  1903               	skipnz
  3649  0F31  2F1B               	goto	i1l1712
  3650  0F32  2F33               	goto	i1l66
  3651  0F33                     i1l66:
  3652                           
  3653                           ;MainSlave2.c: 80:         PIR1bits.ADIF = 0;
  3654  0F33  130C               	bcf	12,6	;volatile
  3655  0F34                     i1l63:	
  3656                           ;MainSlave2.c: 81:        }
  3657                           
  3658                           
  3659                           ;MainSlave2.c: 83:     PIR1bits.TMR2IF = 0;
  3660  0F34  108C               	bcf	12,1	;volatile
  3661  0F35                     i1l68:
  3662  0F35  0875               	movf	??_isr+5,w
  3663  0F36  008A               	movwf	10
  3664  0F37  0874               	movf	??_isr+4,w
  3665  0F38  0084               	movwf	4
  3666  0F39  0E73               	swapf	??_isr+3,w
  3667  0F3A  0083               	movwf	3
  3668  0F3B  0EFE               	swapf	btemp,f
  3669  0F3C  0E7E               	swapf	btemp,w
  3670  0F3D  0009               	retfie
  3671  0F3E                     __end_of_isr:
  3672  007E                     btemp	set	126	;btemp
  3673  007E                     wtemp0	set	126
  3674                           
  3675                           	psect	intentry
  3676  0004                     __pintentry:	
  3677                           ;incstack = 0
  3678                           ; Regs used in _isr: [wreg-fsr0h+status,2+status,0]
  3679                           
  3680  0004                     interrupt_function:
  3681  007E                     saved_w	set	btemp
  3682  0004  00FE               	movwf	btemp
  3683  0005  0E03               	swapf	3,w
  3684  0006  00F3               	movwf	??_isr+3
  3685  0007  0804               	movf	4,w
  3686  0008  00F4               	movwf	??_isr+4
  3687  0009  080A               	movf	10,w
  3688  000A  00F5               	movwf	??_isr+5
  3689  000B  120A  158A  2F0F   	ljmp	_isr
  3690                           
  3691                           	psect	config
  3692                           
  3693                           ;Config register CONFIG1 @ 0x2007
  3694                           ;	Oscillator Selection bits
  3695                           ;	FOSC = INTRC_NOCLKOUT, INTOSCIO oscillator: I/O function on RA6/OSC2/CLKOUT pin, I/O f
      +                          unction on RA7/OSC1/CLKIN
  3696                           ;	Watchdog Timer Enable bit
  3697                           ;	WDTE = OFF, WDT disabled and can be enabled by SWDTEN bit of the WDTCON register
  3698                           ;	Power-up Timer Enable bit
  3699                           ;	PWRTE = OFF, PWRT disabled
  3700                           ;	RE3/MCLR pin function select bit
  3701                           ;	MCLRE = OFF, RE3/MCLR pin function is digital input, MCLR internally tied to VDD
  3702                           ;	Code Protection bit
  3703                           ;	CP = OFF, Program memory code protection is disabled
  3704                           ;	Data Code Protection bit
  3705                           ;	CPD = OFF, Data memory code protection is disabled
  3706                           ;	Brown Out Reset Selection bits
  3707                           ;	BOREN = OFF, BOR disabled
  3708                           ;	Internal External Switchover bit
  3709                           ;	IESO = OFF, Internal/External Switchover mode is disabled
  3710                           ;	Fail-Safe Clock Monitor Enabled bit
  3711                           ;	FCMEN = OFF, Fail-Safe Clock Monitor is disabled
  3712                           ;	Low Voltage Programming Enable bit
  3713                           ;	LVP = OFF, RB3 pin has digital I/O, HV on MCLR must be used for programming
  3714                           ;	In-Circuit Debugger Mode bit
  3715                           ;	DEBUG = 0x1, unprogrammed default
  3716  2007                     	org	8199
  3717  2007  20D4               	dw	8404
  3718                           
  3719                           ;Config register CONFIG2 @ 0x2008
  3720                           ;	Brown-out Reset Selection bit
  3721                           ;	BOR4V = BOR40V, Brown-out Reset set to 4.0V
  3722                           ;	Flash Program Memory Self Write Enable bits
  3723                           ;	WRT = OFF, Write protection off
  3724  2008                     	org	8200
  3725  2008  3FFF               	dw	16383

Data Sizes:
    Strings     0
    Constant    0
    Data        0
    BSS         5
    Persistent  0
    Stack       0

Auto Spaces:
    Space          Size  Autos    Used
    COMMON           14      6      10
    BANK0            80     79      80
    BANK1            80      0       0
    BANK3            96      0       0
    BANK2            96      0       0

Pointer List with Targets:

    None.

Critical Paths under _main in COMMON

    None.

Critical Paths under _isr in COMMON

    None.

Critical Paths under _main in BANK0

    _main->_canales
    _canales->___fltol
    ___fltol->___fladd
    ___flmul->___xxtofl
    ___fladd->___flmul

Critical Paths under _isr in BANK0

    None.

Critical Paths under _main in BANK1

    None.

Critical Paths under _isr in BANK1

    None.

Critical Paths under _main in BANK3

    None.

Critical Paths under _isr in BANK3

    None.

Critical Paths under _main in BANK2

    None.

Critical Paths under _isr in BANK2

    None.

Call Graph Tables:

 ---------------------------------------------------------------------------------
 (Depth) Function   	        Calls       Base Space   Used Autos Params    Refs
 ---------------------------------------------------------------------------------
 (0) _main                                                 0     0      0    7230
                            _canales
                              _setup
 ---------------------------------------------------------------------------------
 (1) _setup                                                1     1      0       0
                                              0 BANK0      1     1      0
 ---------------------------------------------------------------------------------
 (1) _canales                                              8     8      0    7230
                                             71 BANK0      8     8      0
                            ___fladd
                            ___flmul
                            ___fltol
                           ___xxtofl
 ---------------------------------------------------------------------------------
 (2) ___xxtofl                                            14    10      4     474
                                              0 BANK0     14    10      4
 ---------------------------------------------------------------------------------
 (2) ___fltol                                             11     7      4     381
                                             60 BANK0     11     7      4
                            ___fladd (ARG)
                            ___flmul (ARG)
                           ___xxtofl (ARG)
 ---------------------------------------------------------------------------------
 (2) ___flmul                                             26    18      8    3893
                                             14 BANK0     26    18      8
                          __Umul8_16
                           ___xxtofl (ARG)
 ---------------------------------------------------------------------------------
 (3) __Umul8_16                                            9     7      2     980
                                              0 BANK0      9     7      2
 ---------------------------------------------------------------------------------
 (2) ___fladd                                             20    12      8    2414
                                             40 BANK0     20    12      8
                            ___flmul (ARG)
                           ___xxtofl (ARG)
 ---------------------------------------------------------------------------------
 Estimated maximum stack depth 3
 ---------------------------------------------------------------------------------
 (Depth) Function   	        Calls       Base Space   Used Autos Params    Refs
 ---------------------------------------------------------------------------------
 (4) _isr                                                  6     6      0       0
                                              0 COMMON     6     6      0
 ---------------------------------------------------------------------------------
 Estimated maximum stack depth 4
 ---------------------------------------------------------------------------------

 Call Graph Graphs:

 _main (ROOT)
   _canales
     ___fladd
       ___flmul (ARG)
         __Umul8_16
         ___xxtofl (ARG)
       ___xxtofl (ARG)
     ___flmul
       __Umul8_16
       ___xxtofl (ARG)
     ___fltol
       ___fladd (ARG)
         ___flmul (ARG)
           __Umul8_16
           ___xxtofl (ARG)
         ___xxtofl (ARG)
       ___flmul (ARG)
         __Umul8_16
         ___xxtofl (ARG)
       ___xxtofl (ARG)
     ___xxtofl
   _setup

 _isr (ROOT)

 Address spaces:
Name               Size   Autos  Total    Cost      Usage
BITCOMMON            E      0       0       0        0.0%
EEDATA             100      0       0       0        0.0%
NULL                 0      0       0       0        0.0%
CODE                 0      0       0       0        0.0%
COMMON               E      6       A       1       71.4%
BITSFR0              0      0       0       1        0.0%
SFR0                 0      0       0       1        0.0%
BITSFR1              0      0       0       2        0.0%
SFR1                 0      0       0       2        0.0%
STACK                0      0       0       2        0.0%
ABS                  0      0      5A       3        0.0%
BITBANK0            50      0       0       4        0.0%
BITSFR3              0      0       0       4        0.0%
SFR3                 0      0       0       4        0.0%
BANK0               50     4F      50       5      100.0%
BITSFR2              0      0       0       5        0.0%
SFR2                 0      0       0       5        0.0%
BITBANK1            50      0       0       6        0.0%
BANK1               50      0       0       7        0.0%
BITBANK3            60      0       0       8        0.0%
BANK3               60      0       0       9        0.0%
BITBANK2            60      0       0      10        0.0%
BANK2               60      0       0      11        0.0%
DATA                 0      0      5A      12        0.0%


Microchip Technology PIC Macro Assembler V2.31 build 20201012212115 
Symbol Table                                                                                   Mon Sep 06 02:46:14 2021

                      _z 0076                       l71 0F83                       l88 0721  
    __Umul8_16@word_mpld 0026                      l501 05D6                      l510 0604  
                    l360 0FFF                      l370 0FFF                      l620 07A7  
                    l509 05F8                      l621 07B3                      l613 078B  
                    l471 0487                      l367 0FEA                      l607 0746  
                    l480 0604                      l473 045E                      l609 07DD  
                    l467 03E0                      l563 037C                      l492 0576  
                    l582 0EFC                      l575 0370                      l488 0552  
                    l584 0F0E                      l569 02E8                      l498 0598  
                    _PR2 0092                      _VAL 006F                      _isr 0F0F  
                    fsr0 0004             ___flmul@aexp 003C             ___flmul@bexp 0041  
           ___flmul@sign 003B             ___flmul@temp 0046             ___flmul@prod 0042  
           ___fltol@exp1 0066                     l2002 07DE                     l1300 037D  
                   l2004 07E3                     l1310 0394                     l1302 0384  
                   l1400 0490                     l1320 03AC                     l1312 0399  
                   l1304 038A                     l1410 04B8                     l1330 03C2  
                   l1322 03B1                     l1314 03A1                     l1306 038E  
                   l1420 04D1                     l1412 04C1                     l1404 0499  
                   l1340 03D6                     l1332 03C3                     l1324 03B7  
                   l1316 03A2                     l1308 038F                     l1430 0535  
                   l1414 04C3                     l1406 04B0                     l1422 04D6  
                   l1350 03F2                     l1334 03C8                     l1342 03D8  
                   l1326 03B8                     l1318 03A4                     l1270 0F9A  
                   l2046 0719                     l1440 0568                     l1424 04EC  
                   l1432 0544                     l1416 04C7                     l1408 04B4  
                   l1360 0406                     l1352 03F6                     l1344 03E6  
                   l1336 03CD                     l1328 03BE                     l1280 0FBE  
                   l1272 0FAF                     l1264 0F84                     l1450 057F  
                   l1442 0571                     l1434 055A                     l1426 052A  
                   l1418 04C8                     l1370 041A                     l1362 040A  
                   l1354 03FA                     l1346 03EA                     l1338 03D5  
                   l1274 0FB0                     l1266 0F91                     l1460 058F  
                   l1452 0584                     l1444 0575                     l1436 055F  
                   l1428 0530                     l1380 042B                     l1372 041E  
                   l1364 040E                     l1356 03FE                     l1348 03EE  
                   l1276 0FB8                     l1470 05B0                     l1462 0595  
                   l1446 057A                     l1454 0586                     l1390 0471  
                   l1382 0442                     l1374 0422                     l1366 0412  
                   l1358 0402                     l1294 0FDF                     l1286 0FC6  
                   l1278 0FBA                     l1480 05E8                     l1472 05B4  
                   l1448 057D                     l1456 058A                     l1392 0472  
                   l1384 0462                     l1376 0426                     l1368 0416  
                   l1800 004F                     l1296 0FEF                     l1288 0FD8  
                   l1640 073E                     l1490 05FF                     l1482 05ED  
                   l1474 05D2                     l1466 059D                     l1458 058B  
                   l1394 047B                     l1386 046B                     l1378 042A  
                   l1810 0064                     l1802 0055                     l1298 0FF4  
                   l1650 0769                     l1642 074E                     l1634 0725  
                   l1492 0603                     l1484 05EE                     l1476 05DB  
                   l1468 05A2                     l1388 046D                     l1396 047F  
                   l1900 0330                     l1820 0080                     l1812 006C  
                   l1804 0059                     l1660 079D                     l1652 0770  
                   l1636 072A                     l1486 05F2                     l1478 05E0  
                   l1398 048B                     l1910 0364                     l1902 033B  
                   l1830 00C3                     l1814 006E                     l1806 005A  
                   l1670 07D0                     l1662 07A1                     l1654 0774  
                   l1646 0757                     l1638 072E                     l1488 05F4  
                   l1912 0368                     l1904 034A                     l1840 014C  
                   l1832 00DF                     l1824 0089                     l1816 0076  
                   l1808 005F                     l1672 07D4                     l1664 07AB  
                   l1656 0782                     l1648 075C                     l1920 0F3E  
                   l1770 0EF2                     l1914 0369                     l1906 0354  
                   l1850 01BF                     l1842 015C                     l1834 010B  
                   l1826 0099                     l1818 007B                     l1674 07D5  
                   l1666 07B5                     l1658 0792                     l1930 0F50  
                   l1922 0F42                     l1772 0EF6                     l1916 0374  
                   l1908 0356                     l1860 026C                     l1852 01DC  
                   l1844 0179                     l1836 0127                     l1828 00A6  
                   l1780 001C                     l1668 07CB                     l1940 0F57  
                   l1932 0F51                     l1924 0F43                     l1774 0F05  
                   l1766 0EE9                     l1870 02B8                     l1862 0294  
                   l1854 0209                     l1846 0189                     l1838 0143  
                   l1790 0033                     l1782 0023                     l1950 0F60  
                   l1942 0F58                     l1934 0F52                     l1926 0F47  
                   l1776 0F0A                     l1768 0EEB                     l1880 02CD  
                   l1872 02B9                     l1864 029D                     l1856 0219  
                   l1848 01A6                     l1792 0038                     l1784 0029  
                   l1960 0F72                     l1952 0F64                     l1944 0F59  
                   l1936 0F55                     l1928 0F48                     l1890 02F2  
                   l1882 02D1                     l1874 02C2                     l1866 02AB  
                   l1858 0246                     l1794 0040                     l1786 002D  
                   l1970 0F7D                     l1962 0F76                     l1954 0F6B  
                   l1946 0F5C                     l1938 0F56                     l1892 0300  
                   l1884 02E5                     l1868 02B4                     l1876 02C8  
                   l1796 0042                     l1788 002E                     l1980 067F  
                   l1972 0F81                     l1964 0F79                     l1956 0F6E  
                   l1948 0F5E                     l1894 0304                     l1878 02CC  
                   l1798 004A                     l1990 0703                     l1982 0683  
                   l1974 0605                     l1966 0F7A                     l1958 0F71  
                   l1896 031D                     l1888 02ED                     l1992 070A  
                   l1984 068A                     l1968 0F7B                     l1898 0323  
                   l1986 068E                     l1978 060C                     l1988 0701  
                   l1996 070E                     ?_isr 0070                     u1210 0FD7  
                   u1211 0FD6                     u1300 03C2                     u1220 0FDE  
                   u2100 072E                     u1301 03C1                     u1221 0FDD  
                   u1205 0FC7                     u2101 072D                     u1310 03C8  
                   u2110 074E                     u1311 03C7                     u2111 074D  
                   u1320 03CD                     u1240 0FEF                     u1160 0F91  
                   u2200 07C0                     u1321 03CC                     u1241 0FEE  
                   u1161 0F90                     u1410 0487                     u1330 03E6  
                   u1250 0FF4                     u1170 0FA8                     u2210 07D0  
                   u2130 076F                     u1411 0486                     u1331 03E5  
                   u1251 0FF3                     u1235 0FE1                     u2211 07CF  
                   u2131 076E                     u1420 048B                     u1340 03EA  
                   u1260 038E                     u2300 0038                     u1180 0FBE  
                   u2220 07D4                     u1501 0503                     u1421 048A  
                   u1405 0474                     u1341 03E9                     u1261 038D  
                   u2301 0037                     u1181 0FBD                     u2221 07D3  
                   u2205 07BB                     u2125 0761                     u1510 0517  
                   u1502 0504                     u1430 0490                     u1350 0442  
                   u1270 0394                     u2310 0059                     u1190 0FC5  
                   u2150 0791                     u1511 0518                     u1503 0509  
                   u1431 048F                     u1351 0441                     u1271 0393  
                   u2311 0058                     u1191 0FC4                     u1175 0FA3  
                   u2151 0790                     u1600 058F                     u1520 0535  
                   u1512 051D                     u1504 050A                     u1360 044D  
                   u1280 0399                     u2320 005F                     u1601 058E  
                   u1521 0534                     u1513 051E                     u1505 050F  
                   u1441 04A2                     u1361 044B                     u1281 0398  
                   u2321 005E                     u2145 0783                     u1610 0595  
                   u1530 055A                     u1506 0510                     u1450 04B4  
                   u1442 04A9                     u1370 044E                     u1290 03B7  
                   u2250 0EF6                     u2330 0064                     u2170 07A1  
                   u2090 072A                     u1611 0594                     u1531 0559  
                   u1451 04B3                     u1443 04B0                     u1355 043E  
                   u1291 03B6                     u2251 0EF5                     u2411 016B  
                   u2331 0063                     u2171 07A0                     u2091 0729  
                   u1700 05F2                     u1620 059C                     u1540 055F  
                   u1460 04B8                     u1380 0462                     u2412 0172  
                   u2340 007B                     u2180 07A7                     u1701 05F1  
                   u1621 059B                     u1541 055E                     u1461 04B7  
                   u1381 0461                     u2501 0286                     u2421 0198  
                   u2413 0179                     u2405 0145                     u2341 007A  
                   u2181 07A6                     u2165 0796                     u1710 0603  
                   u1630 05A2                     u1470 04C7                     u1390 0471  
                   u2270 0F0A                     u2502 028D                     u2422 019F  
                   u2350 0080                     u2190 07AB                     u1711 0602  
                   u1631 05A1                     u1471 04C6                     u1391 0470  
                   u2271 0F09                     u2503 0294                     u2423 01A6  
                   u2351 007F                     u2191 07AA                     u1640 05B4  
                   u1560 0575                     u2600 0304                     u2280 002D  
                   u1641 05B3                     u1561 0574                     u2265 0EFD  
                   u2601 0303                     u2441 01CE                     u2361 00D1  
                   u2281 002C                     u1650 05C3                     u1570 057A  
                   u1490 04EC                     u2610 0313                     u2530 02B8  
                   u2442 01D5                     u2362 00D8                     u2290 0033  
                   u1571 0579                     u1555 056A                     u1491 04EB  
                   u2531 02B7                     u2515 0296                     u2451 01FB  
                   u2443 01DC                     u2435 01A8                     u2371 00ED  
                   u2363 00DF                     u2291 0032                     u1660 05D2  
                   u1580 0584                     u2620 0330                     u2452 0202  
                   u2372 00F4                     u1661 05D1                     u1581 0583  
                   u1493 04E8                     u1485 04CA                     u2621 032F  
                   u2525 02AD                     u2461 0228                     u2453 0209  
                   u2381 0119                     u2373 00FB                     u1670 05DB  
                   u1590 058A                     u2630 034A                     u2550 02CC  
                   u2470 0252                     u2462 022F                     u2382 0120  
                   u1671 05DA                     u1655 05BE                     u1591 0589  
                   u2631 0349                     u2615 030E                     u2551 02CB  
                   u2463 0236                     u2391 0135                     u2383 0127  
                   u1680 05E0                     u2640 0368                     u2560 02D1  
                   u2392 013C                     u1681 05DF                     u2641 0367  
                   u2625 032C                     u2561 02D0                     u2545 02BB  
                   u2481 025E                     u2393 0143                     u1690 05ED  
                   u2570 02E5                     u2490 027A                     u2482 0265  
                   u2650 060B                     u1691 05EC                     u2635 0346  
                   u2571 02E4                     u2483 026C                     u2475 024D  
                   u2651 060A                     u2580 02EC                     u2581 02EB  
                   u2590 02F2                     u2591 02F1                     u2495 0275  
                   u2667 0F68                     u2677 0687                     u2687 0707  
                   i1l63 0F34                     i1l66 0F33                     i1l68 0F35  
                   _VAL2 0079                     _dist 0078                     _cont 0077  
                   _main 07DE                     btemp 007E                     start 000E  
                  ??_isr 0070            ___fltol@sign1 0065          __end_of___fladd 0605  
                  ?_main 0070          __end_of___flmul 037D          __end_of___fltol 1000  
                  _ANSEL 0188                    _T2CON 0012                    _PORTA 0005  
                  _PORTB 0006                    _PORTC 0007                    _PORTD 0008  
                  _PORTE 0009          __end_of_canales 0722                    _TRISA 0085  
                  _setup 0F3E                    pclath 000A                    status 0003  
                  wtemp0 007E          __initialization 0011             __end_of_main 07EC  
                 ??_main 006F                   _ADRESH 001E                   _CCPR1L 0015  
                 _CCPR2L 001B                   ?_setup 0070                   _ANSELH 0189  
                 i1l2048 0F2B                   i1l1710 0F16                   i1l1712 0F1B  
                 i1l1706 0F0F                   i1l1716 0F20                   u224_20 0F15  
                 u224_21 0F14         __end_of___xxtofl 07DE                ??___fladd 0050  
              ??___flmul 0036                ??___fltol 0060                ??_canales 0067  
     __size_of__Umul8_16 0029                   saved_w 007E             ___xxtofl@arg 002A  
           ___xxtofl@exp 0029             ___xxtofl@val 0020  __end_of__initialization 0018  
             ___fltol@f1 005C           __pcstackCOMMON 0070            __end_of_setup 0F84  
                ??_setup 0020               __pbssBANK0 006F        __end_of__Umul8_16 0F0F  
             __pmaintext 07DE               __pintentry 0004                  _CCP1CON 0017  
                _CCP2CON 001D                ?___xxtofl 0020                  ___fladd 037D  
                ___flmul 001C                  ___fltol 0F84                  _canales 0605  
                __ptext1 0F3E                  __ptext2 0605                  __ptext3 0722  
                __ptext4 0F84                  __ptext5 001C                  __ptext6 0EE6  
                __ptext7 037D                  __ptext8 0F0F             __size_of_isr 002F  
             ??___xxtofl 0024     end_of_initialization 0018              ___fladd@grs 005B  
          ___xxtofl@sign 0028                _TRISCbits 0087              ___flmul@grs 003D  
    start_initialization 0011              __end_of_isr 0F3E              _canales$882 006B  
              __Umul8_16 0EE6                ___fladd@a 004C                ___fladd@b 0048  
              ___flmul@a 0032                ___flmul@b 002E              __pbssCOMMON 0076  
              ___latbits 0002            __pcstackBANK0 0020        __size_of___xxtofl 00BC  
               ?___fladd 0048                 ?___flmul 002E                 ?___fltol 005C  
             ?__Umul8_16 0020                 ?_canales 0070           __size_of_setup 0046  
      interrupt_function 0004                 _PIE1bits 008C                 _PIR1bits 000C  
             _ADCON0bits 001F               _ADCON1bits 009F              ??__Umul8_16 0022  
       __size_of___fladd 0288         __size_of___flmul 0361         __size_of___fltol 007C  
       __size_of_canales 011D                 ___xxtofl 0722            __size_of_main 000E  
             _INTCONbits 000B                 intlevel1 0000               _OSCCONbits 008F  
 __Umul8_16@multiplicand 0020            ___fladd@signs 0058             ___fladd@aexp 0059  
           ___fladd@bexp 005A     __Umul8_16@multiplier 0028        __Umul8_16@product 0024  
