

Microchip MPLAB XC8 Assembler V2.31 build 20201012212115 
                                                                                               Wed Aug 18 19:16:13 2021

Microchip MPLAB XC8 C Compiler v2.31 (Free license) build 20201012212115 Og1 
     1                           	processor	16F887
     2                           	pagewidth 120
     3                           	opt	flic
     4                           	psect	idataBANK0,global,class=CODE,delta=2,noexec
     5                           	psect	cinit,global,class=CODE,merge=1,delta=2
     6                           	psect	bssBANK0,global,class=BANK0,space=1,delta=1,noexec
     7                           	psect	dataBANK0,global,class=BANK0,space=1,delta=1,noexec
     8                           	psect	bssBANK1,global,class=BANK1,space=1,delta=1,noexec
     9                           	psect	cstackCOMMON,global,class=COMMON,space=1,delta=1,noexec
    10                           	psect	cstackBANK0,global,class=BANK0,space=1,delta=1,noexec
    11                           	psect	maintext,global,class=CODE,split=1,delta=2
    12                           	psect	text1,local,class=CODE,merge=1,delta=2
    13                           	psect	text2,local,class=CODE,merge=1,delta=2
    14                           	psect	text3,local,class=CODE,merge=1,delta=2,group=1
    15                           	psect	text4,local,class=CODE,merge=1,delta=2,group=1
    16                           	psect	text5,local,class=CODE,merge=1,delta=2,group=1
    17                           	psect	text6,local,class=CODE,merge=1,delta=2,group=1
    18                           	psect	text7,local,class=CODE,merge=1,delta=2,group=1
    19                           	psect	text8,local,class=CODE,merge=1,delta=2,group=1
    20                           	psect	text9,local,class=CODE,merge=1,delta=2,group=1
    21                           	psect	text10,local,class=CODE,merge=1,delta=2,group=1
    22                           	psect	text11,local,class=CODE,merge=1,delta=2,group=1
    23                           	psect	text12,local,class=CODE,merge=1,delta=2
    24                           	psect	text13,local,class=CODE,merge=1,delta=2
    25                           	psect	text14,local,class=CODE,merge=1,delta=2
    26                           	psect	text15,local,class=CODE,merge=1,delta=2
    27                           	psect	text16,local,class=CODE,merge=1,delta=2
    28                           	psect	text17,local,class=CODE,merge=1,delta=2
    29                           	psect	text18,local,class=CODE,merge=1,delta=2
    30                           	psect	text19,local,class=CODE,merge=1,delta=2
    31                           	psect	text20,local,class=CODE,merge=1,delta=2
    32                           	psect	text21,local,class=CODE,merge=1,delta=2
    33                           	psect	text22,local,class=CODE,merge=1,delta=2
    34                           	psect	text23,local,class=CODE,merge=1,delta=2,group=1
    35                           	psect	config,global,abs,ovrld,class=CONFIG,space=4,delta=2,noexec
    36                           	dabs	1,0x7E,2
    37  0000                     
    38                           ; Version 2.20
    39                           ; Generated 12/02/2020 GMT
    40                           ; 
    41                           ; Copyright © 2020, Microchip Technology Inc. and its subsidiaries ("Microchip")
    42                           ; All rights reserved.
    43                           ; 
    44                           ; This software is developed by Microchip Technology Inc. and its subsidiaries ("Microch
      +                          ip").
    45                           ; 
    46                           ; Redistribution and use in source and binary forms, with or without modification, are
    47                           ; permitted provided that the following conditions are met:
    48                           ; 
    49                           ;     1. Redistributions of source code must retain the above copyright notice, this lis
      +                          t of
    50                           ;        conditions and the following disclaimer.
    51                           ; 
    52                           ;     2. Redistributions in binary form must reproduce the above copyright notice, this 
      +                          list
    53                           ;        of conditions and the following disclaimer in the documentation and/or other
    54                           ;        materials provided with the distribution.
    55                           ; 
    56                           ;     3. Microchip's name may not be used to endorse or promote products derived from th
      +                          is
    57                           ;        software without specific prior written permission.
    58                           ; 
    59                           ; THIS SOFTWARE IS PROVIDED BY MICROCHIP "AS IS" AND ANY EXPRESS OR IMPLIED WARRANTIES,
    60                           ; INCLUDING, BUT NOT LIMITED TO, THE IMPLIED WARRANTIES OF MERCHANTABILITY AND FITNESS F
      +                          OR
    61                           ; PURPOSE ARE DISCLAIMED.  IN NO EVENT SHALL MICROCHIP BE LIABLE FOR ANY DIRECT, INDIREC
      +                          T,
    62                           ; INCIDENTAL, SPECIAL, EXEMPLARY, OR CONSEQUENTIAL DAMAGES (INCLUDING BUT NOT LIMITED TO
    63                           ; PROCUREMENT OF SUBSTITUTE GOODS OR SERVICES; LOSS OF USE, DATA OR PROFITS; OR BUSINESS
    64                           ; INTERRUPTION) HOWSOEVER CAUSED AND ON ANY THEORY OF LIABILITY, WHETHER IN CONTRACT, ST
      +                          RICT
    65                           ; LIABILITY, OR TORT (INCLUDING NEGLIGENCE OR OTHERWISE) ARISING IN ANY WAY OUT OF THE U
      +                          SE OF
    66                           ; THIS SOFTWARE, EVEN IF ADVISED OF THE POSSIBILITY OF SUCH DAMAGE.
    67                           ; 
    68                           ; 
    69                           ; Code-generator required, PIC16F887 Definitions
    70                           ; 
    71                           ; SFR Addresses
    72  0000                     	;# 
    73  0001                     	;# 
    74  0002                     	;# 
    75  0003                     	;# 
    76  0004                     	;# 
    77  0005                     	;# 
    78  0006                     	;# 
    79  0007                     	;# 
    80  0008                     	;# 
    81  0009                     	;# 
    82  000A                     	;# 
    83  000B                     	;# 
    84  000C                     	;# 
    85  000D                     	;# 
    86  000E                     	;# 
    87  000E                     	;# 
    88  000F                     	;# 
    89  0010                     	;# 
    90  0011                     	;# 
    91  0012                     	;# 
    92  0013                     	;# 
    93  0014                     	;# 
    94  0015                     	;# 
    95  0015                     	;# 
    96  0016                     	;# 
    97  0017                     	;# 
    98  0018                     	;# 
    99  0019                     	;# 
   100  001A                     	;# 
   101  001B                     	;# 
   102  001B                     	;# 
   103  001C                     	;# 
   104  001D                     	;# 
   105  001E                     	;# 
   106  001F                     	;# 
   107  0081                     	;# 
   108  0085                     	;# 
   109  0086                     	;# 
   110  0087                     	;# 
   111  0088                     	;# 
   112  0089                     	;# 
   113  008C                     	;# 
   114  008D                     	;# 
   115  008E                     	;# 
   116  008F                     	;# 
   117  0090                     	;# 
   118  0091                     	;# 
   119  0092                     	;# 
   120  0093                     	;# 
   121  0093                     	;# 
   122  0093                     	;# 
   123  0094                     	;# 
   124  0095                     	;# 
   125  0096                     	;# 
   126  0097                     	;# 
   127  0098                     	;# 
   128  0099                     	;# 
   129  009A                     	;# 
   130  009B                     	;# 
   131  009C                     	;# 
   132  009D                     	;# 
   133  009E                     	;# 
   134  009F                     	;# 
   135  0105                     	;# 
   136  0107                     	;# 
   137  0108                     	;# 
   138  0109                     	;# 
   139  010C                     	;# 
   140  010C                     	;# 
   141  010D                     	;# 
   142  010E                     	;# 
   143  010F                     	;# 
   144  0185                     	;# 
   145  0187                     	;# 
   146  0188                     	;# 
   147  0189                     	;# 
   148  018C                     	;# 
   149  018D                     	;# 
   150  0000                     	;# 
   151  0001                     	;# 
   152  0002                     	;# 
   153  0003                     	;# 
   154  0004                     	;# 
   155  0005                     	;# 
   156  0006                     	;# 
   157  0007                     	;# 
   158  0008                     	;# 
   159  0009                     	;# 
   160  000A                     	;# 
   161  000B                     	;# 
   162  000C                     	;# 
   163  000D                     	;# 
   164  000E                     	;# 
   165  000E                     	;# 
   166  000F                     	;# 
   167  0010                     	;# 
   168  0011                     	;# 
   169  0012                     	;# 
   170  0013                     	;# 
   171  0014                     	;# 
   172  0015                     	;# 
   173  0015                     	;# 
   174  0016                     	;# 
   175  0017                     	;# 
   176  0018                     	;# 
   177  0019                     	;# 
   178  001A                     	;# 
   179  001B                     	;# 
   180  001B                     	;# 
   181  001C                     	;# 
   182  001D                     	;# 
   183  001E                     	;# 
   184  001F                     	;# 
   185  0081                     	;# 
   186  0085                     	;# 
   187  0086                     	;# 
   188  0087                     	;# 
   189  0088                     	;# 
   190  0089                     	;# 
   191  008C                     	;# 
   192  008D                     	;# 
   193  008E                     	;# 
   194  008F                     	;# 
   195  0090                     	;# 
   196  0091                     	;# 
   197  0092                     	;# 
   198  0093                     	;# 
   199  0093                     	;# 
   200  0093                     	;# 
   201  0094                     	;# 
   202  0095                     	;# 
   203  0096                     	;# 
   204  0097                     	;# 
   205  0098                     	;# 
   206  0099                     	;# 
   207  009A                     	;# 
   208  009B                     	;# 
   209  009C                     	;# 
   210  009D                     	;# 
   211  009E                     	;# 
   212  009F                     	;# 
   213  0105                     	;# 
   214  0107                     	;# 
   215  0108                     	;# 
   216  0109                     	;# 
   217  010C                     	;# 
   218  010C                     	;# 
   219  010D                     	;# 
   220  010E                     	;# 
   221  010F                     	;# 
   222  0185                     	;# 
   223  0187                     	;# 
   224  0188                     	;# 
   225  0189                     	;# 
   226  018C                     	;# 
   227  018D                     	;# 
   228  0000                     	;# 
   229  0001                     	;# 
   230  0002                     	;# 
   231  0003                     	;# 
   232  0004                     	;# 
   233  0005                     	;# 
   234  0006                     	;# 
   235  0007                     	;# 
   236  0008                     	;# 
   237  0009                     	;# 
   238  000A                     	;# 
   239  000B                     	;# 
   240  000C                     	;# 
   241  000D                     	;# 
   242  000E                     	;# 
   243  000E                     	;# 
   244  000F                     	;# 
   245  0010                     	;# 
   246  0011                     	;# 
   247  0012                     	;# 
   248  0013                     	;# 
   249  0014                     	;# 
   250  0015                     	;# 
   251  0015                     	;# 
   252  0016                     	;# 
   253  0017                     	;# 
   254  0018                     	;# 
   255  0019                     	;# 
   256  001A                     	;# 
   257  001B                     	;# 
   258  001B                     	;# 
   259  001C                     	;# 
   260  001D                     	;# 
   261  001E                     	;# 
   262  001F                     	;# 
   263  0081                     	;# 
   264  0085                     	;# 
   265  0086                     	;# 
   266  0087                     	;# 
   267  0088                     	;# 
   268  0089                     	;# 
   269  008C                     	;# 
   270  008D                     	;# 
   271  008E                     	;# 
   272  008F                     	;# 
   273  0090                     	;# 
   274  0091                     	;# 
   275  0092                     	;# 
   276  0093                     	;# 
   277  0093                     	;# 
   278  0093                     	;# 
   279  0094                     	;# 
   280  0095                     	;# 
   281  0096                     	;# 
   282  0097                     	;# 
   283  0098                     	;# 
   284  0099                     	;# 
   285  009A                     	;# 
   286  009B                     	;# 
   287  009C                     	;# 
   288  009D                     	;# 
   289  009E                     	;# 
   290  009F                     	;# 
   291  0105                     	;# 
   292  0107                     	;# 
   293  0108                     	;# 
   294  0109                     	;# 
   295  010C                     	;# 
   296  010C                     	;# 
   297  010D                     	;# 
   298  010E                     	;# 
   299  010F                     	;# 
   300  0185                     	;# 
   301  0187                     	;# 
   302  0188                     	;# 
   303  0189                     	;# 
   304  018C                     	;# 
   305  018D                     	;# 
   306  0000                     	;# 
   307  0001                     	;# 
   308  0002                     	;# 
   309  0003                     	;# 
   310  0004                     	;# 
   311  0005                     	;# 
   312  0006                     	;# 
   313  0007                     	;# 
   314  0008                     	;# 
   315  0009                     	;# 
   316  000A                     	;# 
   317  000B                     	;# 
   318  000C                     	;# 
   319  000D                     	;# 
   320  000E                     	;# 
   321  000E                     	;# 
   322  000F                     	;# 
   323  0010                     	;# 
   324  0011                     	;# 
   325  0012                     	;# 
   326  0013                     	;# 
   327  0014                     	;# 
   328  0015                     	;# 
   329  0015                     	;# 
   330  0016                     	;# 
   331  0017                     	;# 
   332  0018                     	;# 
   333  0019                     	;# 
   334  001A                     	;# 
   335  001B                     	;# 
   336  001B                     	;# 
   337  001C                     	;# 
   338  001D                     	;# 
   339  001E                     	;# 
   340  001F                     	;# 
   341  0081                     	;# 
   342  0085                     	;# 
   343  0086                     	;# 
   344  0087                     	;# 
   345  0088                     	;# 
   346  0089                     	;# 
   347  008C                     	;# 
   348  008D                     	;# 
   349  008E                     	;# 
   350  008F                     	;# 
   351  0090                     	;# 
   352  0091                     	;# 
   353  0092                     	;# 
   354  0093                     	;# 
   355  0093                     	;# 
   356  0093                     	;# 
   357  0094                     	;# 
   358  0095                     	;# 
   359  0096                     	;# 
   360  0097                     	;# 
   361  0098                     	;# 
   362  0099                     	;# 
   363  009A                     	;# 
   364  009B                     	;# 
   365  009C                     	;# 
   366  009D                     	;# 
   367  009E                     	;# 
   368  009F                     	;# 
   369  0105                     	;# 
   370  0107                     	;# 
   371  0108                     	;# 
   372  0109                     	;# 
   373  010C                     	;# 
   374  010C                     	;# 
   375  010D                     	;# 
   376  010E                     	;# 
   377  010F                     	;# 
   378  0185                     	;# 
   379  0187                     	;# 
   380  0188                     	;# 
   381  0189                     	;# 
   382  018C                     	;# 
   383  018D                     	;# 
   384  0000                     	;# 
   385  0001                     	;# 
   386  0002                     	;# 
   387  0003                     	;# 
   388  0004                     	;# 
   389  0005                     	;# 
   390  0006                     	;# 
   391  0007                     	;# 
   392  0008                     	;# 
   393  0009                     	;# 
   394  000A                     	;# 
   395  000B                     	;# 
   396  000C                     	;# 
   397  000D                     	;# 
   398  000E                     	;# 
   399  000E                     	;# 
   400  000F                     	;# 
   401  0010                     	;# 
   402  0011                     	;# 
   403  0012                     	;# 
   404  0013                     	;# 
   405  0014                     	;# 
   406  0015                     	;# 
   407  0015                     	;# 
   408  0016                     	;# 
   409  0017                     	;# 
   410  0018                     	;# 
   411  0019                     	;# 
   412  001A                     	;# 
   413  001B                     	;# 
   414  001B                     	;# 
   415  001C                     	;# 
   416  001D                     	;# 
   417  001E                     	;# 
   418  001F                     	;# 
   419  0081                     	;# 
   420  0085                     	;# 
   421  0086                     	;# 
   422  0087                     	;# 
   423  0088                     	;# 
   424  0089                     	;# 
   425  008C                     	;# 
   426  008D                     	;# 
   427  008E                     	;# 
   428  008F                     	;# 
   429  0090                     	;# 
   430  0091                     	;# 
   431  0092                     	;# 
   432  0093                     	;# 
   433  0093                     	;# 
   434  0093                     	;# 
   435  0094                     	;# 
   436  0095                     	;# 
   437  0096                     	;# 
   438  0097                     	;# 
   439  0098                     	;# 
   440  0099                     	;# 
   441  009A                     	;# 
   442  009B                     	;# 
   443  009C                     	;# 
   444  009D                     	;# 
   445  009E                     	;# 
   446  009F                     	;# 
   447  0105                     	;# 
   448  0107                     	;# 
   449  0108                     	;# 
   450  0109                     	;# 
   451  010C                     	;# 
   452  010C                     	;# 
   453  010D                     	;# 
   454  010E                     	;# 
   455  010F                     	;# 
   456  0185                     	;# 
   457  0187                     	;# 
   458  0188                     	;# 
   459  0189                     	;# 
   460  018C                     	;# 
   461  018D                     	;# 
   462                           
   463                           	psect	idataBANK0
   464  0004                     __pidataBANK0:
   465                           
   466                           ;initializer for _SlaveAddress
   467  0004  3450               	retlw	80
   468  0013                     _SSPBUF	set	19
   469  0014                     _SSPCON	set	20
   470  0010                     _T1CON	set	16
   471  0008                     _PORTD	set	8
   472  0006                     _PORTB	set	6
   473  0005                     _PORTA	set	5
   474  0010                     _T1CONbits	set	16
   475  000E                     _TMR1L	set	14
   476  000F                     _TMR1H	set	15
   477  0048                     _RE0	set	72
   478  004A                     _RE2	set	74
   479  0049                     _RE1	set	73
   480  0091                     _SSPCON2bits	set	145
   481  0087                     _TRISCbits	set	135
   482  0093                     _SSPADD	set	147
   483  0094                     _SSPSTAT	set	148
   484  0091                     _SSPCON2	set	145
   485  008F                     _OSCCONbits	set	143
   486  0089                     _TRISEbits	set	137
   487  0088                     _TRISD	set	136
   488  0086                     _TRISB	set	134
   489  0085                     _TRISA	set	133
   490  0189                     _ANSELH	set	393
   491  0188                     _ANSEL	set	392
   492                           
   493                           	psect	cinit
   494  07DD                     start_initialization:	
   495                           ; #config settings
   496                           
   497  07DD                     __initialization:
   498                           
   499                           ; Initialize objects allocated to BANK0
   500  07DD  120A  118A  2004  120A  118A  	fcall	__pidataBANK0	;fetch initializer
   501  07E2  00EF               	movwf	__pdataBANK0& (0+127)
   502                           
   503                           ; Clear objects allocated to BANK1
   504  07E3  1683               	bsf	3,5	;RP0=1, select bank1
   505  07E4  1303               	bcf	3,6	;RP1=0, select bank1
   506  07E5  01A0               	clrf	__pbssBANK1& (0+127)
   507  07E6  01A1               	clrf	(__pbssBANK1+1)& (0+127)
   508  07E7  01A2               	clrf	(__pbssBANK1+2)& (0+127)
   509  07E8  01A3               	clrf	(__pbssBANK1+3)& (0+127)
   510  07E9  01A4               	clrf	(__pbssBANK1+4)& (0+127)
   511  07EA  01A5               	clrf	(__pbssBANK1+5)& (0+127)
   512                           
   513                           ; Clear objects allocated to BANK0
   514  07EB  1283               	bcf	3,5	;RP0=0, select bank0
   515  07EC  1303               	bcf	3,6	;RP1=0, select bank0
   516  07ED  01E0               	clrf	__pbssBANK0& (0+127)
   517  07EE  01E1               	clrf	(__pbssBANK0+1)& (0+127)
   518  07EF  01E2               	clrf	(__pbssBANK0+2)& (0+127)
   519  07F0  01E3               	clrf	(__pbssBANK0+3)& (0+127)
   520  07F1  01E4               	clrf	(__pbssBANK0+4)& (0+127)
   521  07F2  01E5               	clrf	(__pbssBANK0+5)& (0+127)
   522  07F3  01E6               	clrf	(__pbssBANK0+6)& (0+127)
   523  07F4  01E7               	clrf	(__pbssBANK0+7)& (0+127)
   524  07F5  01E8               	clrf	(__pbssBANK0+8)& (0+127)
   525  07F6  01E9               	clrf	(__pbssBANK0+9)& (0+127)
   526  07F7  01EA               	clrf	(__pbssBANK0+10)& (0+127)
   527  07F8  01EB               	clrf	(__pbssBANK0+11)& (0+127)
   528  07F9  01EC               	clrf	(__pbssBANK0+12)& (0+127)
   529  07FA  01ED               	clrf	(__pbssBANK0+13)& (0+127)
   530  07FB  01EE               	clrf	(__pbssBANK0+14)& (0+127)
   531  07FC                     end_of_initialization:	
   532                           ;End of C runtime variable initialization code
   533                           
   534  07FC                     __end_of__initialization:
   535  07FC  0183               	clrf	3
   536  07FD  120A  118A  283E   	ljmp	_main	;jump to C main() function
   537                           
   538                           	psect	bssBANK0
   539  0060                     __pbssBANK0:
   540  0060                     _digTemp:
   541  0060                     	ds	4
   542  0064                     _HumR:
   543  0064                     	ds	2
   544  0066                     _temp:
   545  0066                     	ds	2
   546  0068                     _TempDEC:
   547  0068                     	ds	1
   548  0069                     _TempENT:
   549  0069                     	ds	1
   550  006A                     _CHECKSUM:
   551  006A                     	ds	1
   552  006B                     _dummyHum1:
   553  006B                     	ds	1
   554  006C                     _Hum1:
   555  006C                     	ds	1
   556  006D                     _dummyT1:
   557  006D                     	ds	1
   558  006E                     _Temp1:
   559  006E                     	ds	1
   560                           
   561                           	psect	dataBANK0
   562  006F                     __pdataBANK0:
   563  006F                     _SlaveAddress:
   564  006F                     	ds	1
   565                           
   566                           	psect	bssBANK1
   567  00A0                     __pbssBANK1:
   568  00A0                     _TEMPdig:
   569  00A0                     	ds	6
   570                           
   571                           	psect	cstackCOMMON
   572  0070                     __pcstackCOMMON:
   573  0070                     ?_CONFIG:
   574  0070                     ?_MasterStart_I2C:	
   575                           ; 1 bytes @ 0x0
   576                           
   577  0070                     ??_MasterStart_I2C:	
   578                           ; 1 bytes @ 0x0
   579                           
   580  0070                     ?_MasterSend_I2C:	
   581                           ; 1 bytes @ 0x0
   582                           
   583  0070                     ??_MasterSend_I2C:	
   584                           ; 1 bytes @ 0x0
   585                           
   586  0070                     ?_MasterStop_I2C:	
   587                           ; 1 bytes @ 0x0
   588                           
   589  0070                     ??_MasterStop_I2C:	
   590                           ; 1 bytes @ 0x0
   591                           
   592  0070                     ?_MasterRepeatS_I2C:	
   593                           ; 1 bytes @ 0x0
   594                           
   595  0070                     ??_MasterRepeatS_I2C:	
   596                           ; 1 bytes @ 0x0
   597                           
   598  0070                     ?_MasterReceive_I2C:	
   599                           ; 1 bytes @ 0x0
   600                           
   601  0070                     ??_MasterReceive_I2C:	
   602                           ; 1 bytes @ 0x0
   603                           
   604  0070                     ?_DHT11_START:	
   605                           ; 1 bytes @ 0x0
   606                           
   607  0070                     ??_DHT11_START:	
   608                           ; 1 bytes @ 0x0
   609                           
   610  0070                     ?_DHT11_ALIVE:	
   611                           ; 1 bytes @ 0x0
   612                           
   613  0070                     ??_DHT11_ALIVE:	
   614                           ; 1 bytes @ 0x0
   615                           
   616  0070                     ?_DHT11_ReadData:	
   617                           ; 1 bytes @ 0x0
   618                           
   619  0070                     ??_DHT11_ReadData:	
   620                           ; 1 bytes @ 0x0
   621                           
   622  0070                     ?_main:	
   623                           ; 1 bytes @ 0x0
   624                           
   625  0070                     ?_waitCondition:	
   626                           ; 1 bytes @ 0x0
   627                           
   628  0070                     ??_waitCondition:	
   629                           ; 1 bytes @ 0x0
   630                           
   631  0070                     ?___bmul:	
   632                           ; 1 bytes @ 0x0
   633                           
   634  0070                     ?__Umul8_16:	
   635                           ; 1 bytes @ 0x0
   636                           
   637  0070                     ?___awdiv:	
   638                           ; 2 bytes @ 0x0
   639                           
   640  0070                     ?___awmod:	
   641                           ; 2 bytes @ 0x0
   642                           
   643  0070                     ?___lldiv:	
   644                           ; 2 bytes @ 0x0
   645                           
   646  0070                     ?___fladd:	
   647                           ; 4 bytes @ 0x0
   648                           
   649  0070                     ?___xxtofl:	
   650                           ; 4 bytes @ 0x0
   651                           
   652  0070                     MasterSend_I2C@dato:	
   653                           ; 4 bytes @ 0x0
   654                           
   655  0070                     ___bmul@multiplicand:	
   656                           ; 1 bytes @ 0x0
   657                           
   658  0070                     __Umul8_16@multiplicand:	
   659                           ; 1 bytes @ 0x0
   660                           
   661  0070                     ___awdiv@divisor:	
   662                           ; 1 bytes @ 0x0
   663                           
   664  0070                     ___awmod@divisor:	
   665                           ; 2 bytes @ 0x0
   666                           
   667  0070                     ___lldiv@divisor:	
   668                           ; 2 bytes @ 0x0
   669                           
   670  0070                     ___fladd@b:	
   671                           ; 4 bytes @ 0x0
   672                           
   673  0070                     ___xxtofl@val:	
   674                           ; 4 bytes @ 0x0
   675                           
   676                           
   677                           ; 4 bytes @ 0x0
   678  0070                     	ds	1
   679  0071                     ??___bmul:
   680  0071                     MasterReceive_I2C@valor:	
   681                           ; 1 bytes @ 0x1
   682                           
   683                           
   684                           ; 1 bytes @ 0x1
   685  0071                     	ds	1
   686  0072                     ??__Umul8_16:
   687  0072                     DHT11_ReadData@i:	
   688                           ; 1 bytes @ 0x2
   689                           
   690  0072                     ___bmul@product:	
   691                           ; 1 bytes @ 0x2
   692                           
   693  0072                     ___awdiv@dividend:	
   694                           ; 1 bytes @ 0x2
   695                           
   696  0072                     ___awmod@dividend:	
   697                           ; 2 bytes @ 0x2
   698                           
   699                           
   700                           ; 2 bytes @ 0x2
   701  0072                     	ds	1
   702  0073                     DHT11_ReadData@datos:
   703  0073                     ___bmul@multiplier:	
   704                           ; 1 bytes @ 0x3
   705                           
   706                           
   707                           ; 1 bytes @ 0x3
   708  0073                     	ds	1
   709  0074                     ??___awdiv:
   710  0074                     ??___awmod:	
   711                           ; 1 bytes @ 0x4
   712                           
   713  0074                     ??___xxtofl:	
   714                           ; 1 bytes @ 0x4
   715                           
   716  0074                     __Umul8_16@product:	
   717                           ; 1 bytes @ 0x4
   718                           
   719  0074                     ___lldiv@dividend:	
   720                           ; 2 bytes @ 0x4
   721                           
   722  0074                     ___fladd@a:	
   723                           ; 4 bytes @ 0x4
   724                           
   725                           
   726                           ; 4 bytes @ 0x4
   727  0074                     	ds	1
   728  0075                     ___awdiv@counter:
   729  0075                     ___awmod@counter:	
   730                           ; 1 bytes @ 0x5
   731                           
   732                           
   733                           ; 1 bytes @ 0x5
   734  0075                     	ds	1
   735  0076                     ___awdiv@sign:
   736  0076                     ___awmod@sign:	
   737                           ; 1 bytes @ 0x6
   738                           
   739  0076                     __Umul8_16@word_mpld:	
   740                           ; 1 bytes @ 0x6
   741                           
   742                           
   743                           ; 2 bytes @ 0x6
   744  0076                     	ds	1
   745  0077                     ___awdiv@quotient:
   746                           
   747                           ; 2 bytes @ 0x7
   748  0077                     	ds	1
   749  0078                     ??___lldiv:
   750  0078                     ___fladd@signs:	
   751                           ; 1 bytes @ 0x8
   752                           
   753  0078                     __Umul8_16@multiplier:	
   754                           ; 1 bytes @ 0x8
   755                           
   756  0078                     ___xxtofl@sign:	
   757                           ; 1 bytes @ 0x8
   758                           
   759                           
   760                           ; 1 bytes @ 0x8
   761  0078                     	ds	1
   762  0079                     ?_divisiondecimal:
   763  0079                     divisiondecimal@un:	
   764                           ; 1 bytes @ 0x9
   765                           
   766  0079                     ___fladd@aexp:	
   767                           ; 1 bytes @ 0x9
   768                           
   769  0079                     ___xxtofl@exp:	
   770                           ; 1 bytes @ 0x9
   771                           
   772  0079                     ___lldiv@quotient:	
   773                           ; 1 bytes @ 0x9
   774                           
   775                           
   776                           ; 4 bytes @ 0x9
   777  0079                     	ds	1
   778  007A                     divisiondecimal@dec:
   779  007A                     ___fladd@bexp:	
   780                           ; 1 bytes @ 0xA
   781                           
   782  007A                     ___xxtofl@arg:	
   783                           ; 1 bytes @ 0xA
   784                           
   785                           
   786                           ; 4 bytes @ 0xA
   787  007A                     	ds	1
   788  007B                     divisiondecimal@cent:
   789  007B                     ___fladd@grs:	
   790                           ; 1 bytes @ 0xB
   791                           
   792                           
   793                           ; 1 bytes @ 0xB
   794  007B                     	ds	1
   795  007C                     divisiondecimal@conteo:
   796                           
   797                           ; 1 bytes @ 0xC
   798  007C                     	ds	1
   799  007D                     divisiondecimal@div:
   800  007D                     ___lldiv@counter:	
   801                           ; 1 bytes @ 0xD
   802                           
   803                           
   804                           ; 1 bytes @ 0xD
   805  007D                     	ds	1
   806  007E                     ??_CONFIG:
   807  007E                     ??___flsub:	
   808                           ; 1 bytes @ 0xE
   809                           
   810                           
   811                           	psect	cstackBANK0
   812  0020                     __pcstackBANK0:	
   813                           ; 1 bytes @ 0xE
   814                           
   815  0020                     ?_MasterInit_I2C:
   816  0020                     ??_divisiondecimal:	
   817                           ; 1 bytes @ 0x0
   818                           
   819  0020                     ??___fladd:	
   820                           ; 1 bytes @ 0x0
   821                           
   822  0020                     ?___flmul:	
   823                           ; 1 bytes @ 0x0
   824                           
   825  0020                     MasterInit_I2C@frec:	
   826                           ; 4 bytes @ 0x0
   827                           
   828  0020                     ___flmul@b:	
   829                           ; 4 bytes @ 0x0
   830                           
   831                           
   832                           ; 4 bytes @ 0x0
   833  0020                     	ds	4
   834  0024                     ??_MasterInit_I2C:
   835  0024                     ___flmul@a:	
   836                           ; 1 bytes @ 0x4
   837                           
   838                           
   839                           ; 4 bytes @ 0x4
   840  0024                     	ds	4
   841  0028                     ??___flmul:
   842  0028                     ?___flsub:	
   843                           ; 1 bytes @ 0x8
   844                           
   845  0028                     ___flsub@a:	
   846                           ; 4 bytes @ 0x8
   847                           
   848                           
   849                           ; 4 bytes @ 0x8
   850  0028                     	ds	4
   851  002C                     ___flsub@b:
   852                           
   853                           ; 4 bytes @ 0xC
   854  002C                     	ds	1
   855  002D                     ___flmul@sign:
   856                           
   857                           ; 1 bytes @ 0xD
   858  002D                     	ds	1
   859  002E                     ___flmul@grs:
   860                           
   861                           ; 4 bytes @ 0xE
   862  002E                     	ds	4
   863  0032                     ___flmul@aexp:
   864                           
   865                           ; 1 bytes @ 0x12
   866  0032                     	ds	1
   867  0033                     ___flmul@bexp:
   868                           
   869                           ; 1 bytes @ 0x13
   870  0033                     	ds	1
   871  0034                     ___flmul@prod:
   872                           
   873                           ; 4 bytes @ 0x14
   874  0034                     	ds	4
   875  0038                     ___flmul@temp:
   876                           
   877                           ; 2 bytes @ 0x18
   878  0038                     	ds	2
   879  003A                     ?___fltol:
   880  003A                     ___fltol@f1:	
   881                           ; 4 bytes @ 0x1A
   882                           
   883                           
   884                           ; 4 bytes @ 0x1A
   885  003A                     	ds	4
   886  003E                     ??___fltol:
   887                           
   888                           ; 1 bytes @ 0x1E
   889  003E                     	ds	5
   890  0043                     ___fltol@sign1:
   891                           
   892                           ; 1 bytes @ 0x23
   893  0043                     	ds	1
   894  0044                     ___fltol@exp1:
   895                           
   896                           ; 1 bytes @ 0x24
   897  0044                     	ds	1
   898  0045                     ?_floToChar:
   899  0045                     floToChar@valor:	
   900                           ; 1 bytes @ 0x25
   901                           
   902                           
   903                           ; 4 bytes @ 0x25
   904  0045                     	ds	4
   905  0049                     floToChar@salida:
   906                           
   907                           ; 1 bytes @ 0x29
   908  0049                     	ds	1
   909  004A                     ??_floToChar:
   910                           
   911                           ; 1 bytes @ 0x2A
   912  004A                     	ds	4
   913  004E                     floToChar@temp:
   914                           
   915                           ; 4 bytes @ 0x2E
   916  004E                     	ds	4
   917  0052                     floToChar@decimal:
   918                           
   919                           ; 1 bytes @ 0x32
   920  0052                     	ds	1
   921  0053                     floToChar@entero:
   922                           
   923                           ; 1 bytes @ 0x33
   924  0053                     	ds	1
   925  0054                     floToChar@digdecimal:
   926                           
   927                           ; 2 bytes @ 0x34
   928  0054                     	ds	2
   929  0056                     ??_main:
   930                           
   931                           ; 1 bytes @ 0x36
   932  0056                     	ds	10
   933                           
   934                           	psect	maintext
   935  003E                     __pmaintext:	
   936 ;;
   937 ;;Main: autosize = 0, tempsize = 10, incstack = 0, save=0
   938 ;;
   939 ;; *************** function _main *****************
   940 ;; Defined at:
   941 ;;		line 62 in file "main.c"
   942 ;; Parameters:    Size  Location     Type
   943 ;;		None
   944 ;; Auto vars:     Size  Location     Type
   945 ;;		None
   946 ;; Return value:  Size  Location     Type
   947 ;;                  1    wreg      void 
   948 ;; Registers used:
   949 ;;		wreg, fsr0l, fsr0h, status,2, status,0, btemp+1, pclath, cstack
   950 ;; Tracked objects:
   951 ;;		On entry : B00/0
   952 ;;		On exit  : 0/0
   953 ;;		Unchanged: 0/0
   954 ;; Data sizes:     COMMON   BANK0   BANK1   BANK3   BANK2
   955 ;;      Params:         0       0       0       0       0
   956 ;;      Locals:         0       0       0       0       0
   957 ;;      Temps:          0      10       0       0       0
   958 ;;      Totals:         0      10       0       0       0
   959 ;;Total ram usage:       10 bytes
   960 ;; Hardware stack levels required when called:    3
   961 ;; This function calls:
   962 ;;		_CONFIG
   963 ;;		_DHT11_ALIVE
   964 ;;		_DHT11_ReadData
   965 ;;		_DHT11_START
   966 ;;		_MasterReceive_I2C
   967 ;;		_MasterRepeatS_I2C
   968 ;;		_MasterSend_I2C
   969 ;;		_MasterStart_I2C
   970 ;;		_MasterStop_I2C
   971 ;;		___awdiv
   972 ;;		___awmod
   973 ;;		___flmul
   974 ;;		___xxtofl
   975 ;;		_floToChar
   976 ;; This function is called by:
   977 ;;		Startup code after reset
   978 ;; This function uses a non-reentrant model
   979 ;;
   980                           
   981                           
   982                           ;psect for function _main
   983  003E                     _main:
   984  003E                     l2357:	
   985                           ;incstack = 0
   986                           ; Regs used in _main: [wreg-fsr0h+status,2+status,0+btemp+1+pclath+cstack]
   987                           
   988                           
   989                           ;main.c: 63:     CONFIG();
   990  003E  120A  158A  23D7  120A  118A  	fcall	_CONFIG
   991  0043                     l2359:
   992                           
   993                           ;main.c: 64:     TMR1H = 0;
   994  0043  1283               	bcf	3,5	;RP0=0, select bank0
   995  0044  1303               	bcf	3,6	;RP1=0, select bank0
   996  0045  018F               	clrf	15	;volatile
   997  0046                     l2361:
   998                           
   999                           ;main.c: 65:     TMR1L = 0;
  1000  0046  018E               	clrf	14	;volatile
  1001                           
  1002                           ;main.c: 69:     MasterStart_I2C();
  1003  0047  120A  158A  2311  120A  118A  	fcall	_MasterStart_I2C
  1004                           
  1005                           ;main.c: 70:     MasterSend_I2C(0X90);
  1006  004C  3090               	movlw	144
  1007  004D  120A  158A  2323  120A  118A  	fcall	_MasterSend_I2C
  1008                           
  1009                           ;main.c: 71:     MasterSend_I2C(0X01);
  1010  0052  3001               	movlw	1
  1011  0053  120A  158A  2323  120A  118A  	fcall	_MasterSend_I2C
  1012                           
  1013                           ;main.c: 72:     MasterSend_I2C(0X00);
  1014  0058  3000               	movlw	0
  1015  0059  120A  158A  2323  120A  118A  	fcall	_MasterSend_I2C
  1016                           
  1017                           ;main.c: 73:     MasterStop_I2C();
  1018  005E  120A  158A  231A  120A  118A  	fcall	_MasterStop_I2C
  1019  0063                     l83:	
  1020                           ;main.c: 75:     while(1){
  1021                           
  1022                           
  1023                           ;main.c: 77:         MasterStart_I2C();
  1024  0063  120A  158A  2311  120A  118A  	fcall	_MasterStart_I2C
  1025                           
  1026                           ;main.c: 78:         MasterSend_I2C(0X90);
  1027  0068  3090               	movlw	144
  1028  0069  120A  158A  2323  120A  118A  	fcall	_MasterSend_I2C
  1029                           
  1030                           ;main.c: 79:         MasterSend_I2C(0X00);
  1031  006E  3000               	movlw	0
  1032  006F  120A  158A  2323  120A  118A  	fcall	_MasterSend_I2C
  1033                           
  1034                           ;main.c: 80:         MasterRepeatS_I2C();
  1035  0074  120A  158A  2308  120A  118A  	fcall	_MasterRepeatS_I2C
  1036                           
  1037                           ;main.c: 81:         MasterSend_I2C(0X91);
  1038  0079  3091               	movlw	145
  1039  007A  120A  158A  2323  120A  118A  	fcall	_MasterSend_I2C
  1040  007F                     l2363:
  1041                           
  1042                           ;main.c: 82:         MasterReceive_I2C(&TempENT);
  1043  007F  3069               	movlw	(low (_TempENT| 0))& (0+255)
  1044  0080  120A  158A  236B  120A  118A  	fcall	_MasterReceive_I2C
  1045  0085                     l2365:
  1046                           
  1047                           ;main.c: 83:         MasterReceive_I2C(&TempDEC);
  1048  0085  3068               	movlw	(low (_TempDEC| 0))& (0+255)
  1049  0086  120A  158A  236B  120A  118A  	fcall	_MasterReceive_I2C
  1050                           
  1051                           ;main.c: 84:         MasterStop_I2C();
  1052  008B  120A  158A  231A  120A  118A  	fcall	_MasterStop_I2C
  1053  0090                     l2367:
  1054                           
  1055                           ;main.c: 86:         temp = (TempENT<<3)|(TempDEC>>5);
  1056  0090  1283               	bcf	3,5	;RP0=0, select bank0
  1057  0091  1303               	bcf	3,6	;RP1=0, select bank0
  1058  0092  0868               	movf	_TempDEC,w
  1059  0093  00D6               	movwf	??_main
  1060  0094  3005               	movlw	5
  1061  0095                     u3155:
  1062  0095  1003               	clrc
  1063  0096  0CD6               	rrf	??_main,f
  1064  0097  3EFF               	addlw	-1
  1065  0098  1D03               	skipz
  1066  0099  2895               	goto	u3155
  1067  009A  0856               	movf	??_main,w
  1068  009B  00D7               	movwf	??_main+1
  1069  009C  01D8               	clrf	??_main+2
  1070  009D  0869               	movf	_TempENT,w
  1071  009E  00D9               	movwf	??_main+3
  1072  009F  01DA               	clrf	??_main+4
  1073  00A0  1003               	clrc
  1074  00A1  0DD9               	rlf	??_main+3,f
  1075  00A2  0DDA               	rlf	??_main+4,f
  1076  00A3  1003               	clrc
  1077  00A4  0DD9               	rlf	??_main+3,f
  1078  00A5  0DDA               	rlf	??_main+4,f
  1079  00A6  1003               	clrc
  1080  00A7  0DD9               	rlf	??_main+3,f
  1081  00A8  0DDA               	rlf	??_main+4,f
  1082  00A9  0857               	movf	??_main+1,w
  1083  00AA  0459               	iorwf	??_main+3,w
  1084  00AB  00E6               	movwf	_temp
  1085  00AC  0858               	movf	??_main+2,w
  1086  00AD  045A               	iorwf	??_main+4,w
  1087  00AE  00E7               	movwf	_temp+1
  1088  00AF                     l2369:
  1089                           
  1090                           ;main.c: 87:         digTemp = (float)temp*0.125;
  1091  00AF  303E               	movlw	62
  1092  00B0  00A3               	movwf	___flmul@b+3
  1093  00B1  3000               	movlw	0
  1094  00B2  00A2               	movwf	___flmul@b+2
  1095  00B3  3000               	movlw	0
  1096  00B4  00A1               	movwf	___flmul@b+1
  1097  00B5  3000               	movlw	0
  1098  00B6  00A0               	movwf	___flmul@b
  1099  00B7  0866               	movf	_temp,w
  1100  00B8  00F0               	movwf	___xxtofl@val
  1101  00B9  0867               	movf	_temp+1,w
  1102  00BA  00F1               	movwf	___xxtofl@val+1
  1103  00BB  01F2               	clrf	___xxtofl@val+2
  1104  00BC  01F3               	clrf	___xxtofl@val+3
  1105  00BD  3000               	movlw	0
  1106  00BE  120A  158A  2680  120A  118A  	fcall	___xxtofl
  1107  00C3  0873               	movf	?___xxtofl+3,w
  1108  00C4  1283               	bcf	3,5	;RP0=0, select bank0
  1109  00C5  1303               	bcf	3,6	;RP1=0, select bank0
  1110  00C6  00A7               	movwf	___flmul@a+3
  1111  00C7  0872               	movf	?___xxtofl+2,w
  1112  00C8  00A6               	movwf	___flmul@a+2
  1113  00C9  0871               	movf	?___xxtofl+1,w
  1114  00CA  00A5               	movwf	___flmul@a+1
  1115  00CB  0870               	movf	?___xxtofl,w
  1116  00CC  00A4               	movwf	___flmul@a
  1117  00CD  120A  118A  247C  120A  118A  	fcall	___flmul
  1118  00D2  1283               	bcf	3,5	;RP0=0, select bank0
  1119  00D3  1303               	bcf	3,6	;RP1=0, select bank0
  1120  00D4  0823               	movf	?___flmul+3,w
  1121  00D5  00E3               	movwf	_digTemp+3
  1122  00D6  0822               	movf	?___flmul+2,w
  1123  00D7  00E2               	movwf	_digTemp+2
  1124  00D8  0821               	movf	?___flmul+1,w
  1125  00D9  00E1               	movwf	_digTemp+1
  1126  00DA  0820               	movf	?___flmul,w
  1127  00DB  00E0               	movwf	_digTemp
  1128  00DC                     l2371:
  1129                           
  1130                           ;main.c: 88:         floToChar(digTemp,TEMPdig);
  1131  00DC  0863               	movf	_digTemp+3,w
  1132  00DD  00C8               	movwf	floToChar@valor+3
  1133  00DE  0862               	movf	_digTemp+2,w
  1134  00DF  00C7               	movwf	floToChar@valor+2
  1135  00E0  0861               	movf	_digTemp+1,w
  1136  00E1  00C6               	movwf	floToChar@valor+1
  1137  00E2  0860               	movf	_digTemp,w
  1138  00E3  00C5               	movwf	floToChar@valor
  1139  00E4  30A0               	movlw	(low (_TEMPdig| 0))& (0+255)
  1140  00E5  00D6               	movwf	??_main
  1141  00E6  0856               	movf	??_main,w
  1142  00E7  00C9               	movwf	floToChar@salida
  1143  00E8  120A  158A  273A  120A  118A  	fcall	_floToChar
  1144  00ED                     l2373:
  1145                           
  1146                           ;main.c: 90:         MasterStart_I2C();
  1147  00ED  120A  158A  2311  120A  118A  	fcall	_MasterStart_I2C
  1148  00F2                     l2375:
  1149                           
  1150                           ;main.c: 91:         MasterSend_I2C(SlaveAddress);
  1151  00F2  3050               	movlw	80
  1152  00F3  120A  158A  2323  120A  118A  	fcall	_MasterSend_I2C
  1153  00F8                     l2377:
  1154                           
  1155                           ;main.c: 92:         MasterSend_I2C(TEMPdig[5]);
  1156  00F8  1683               	bsf	3,5	;RP0=1, select bank1
  1157  00F9  1303               	bcf	3,6	;RP1=0, select bank1
  1158  00FA  0825               	movf	(_TEMPdig^(0+128)+5),w
  1159  00FB  120A  158A  2323  120A  118A  	fcall	_MasterSend_I2C
  1160  0100                     l2379:
  1161                           
  1162                           ;main.c: 93:         MasterSend_I2C(TEMPdig[4]);
  1163  0100  1683               	bsf	3,5	;RP0=1, select bank1
  1164  0101  1303               	bcf	3,6	;RP1=0, select bank1
  1165  0102  0824               	movf	(_TEMPdig^(0+128)+4),w
  1166  0103  120A  158A  2323  120A  118A  	fcall	_MasterSend_I2C
  1167  0108                     l2381:
  1168                           
  1169                           ;main.c: 94:         MasterSend_I2C(TEMPdig[3]);
  1170  0108  1683               	bsf	3,5	;RP0=1, select bank1
  1171  0109  1303               	bcf	3,6	;RP1=0, select bank1
  1172  010A  0823               	movf	(_TEMPdig^(0+128)+3),w
  1173  010B  120A  158A  2323  120A  118A  	fcall	_MasterSend_I2C
  1174  0110                     l2383:
  1175                           
  1176                           ;main.c: 95:         MasterSend_I2C(TEMPdig[1]);
  1177  0110  1683               	bsf	3,5	;RP0=1, select bank1
  1178  0111  1303               	bcf	3,6	;RP1=0, select bank1
  1179  0112  0821               	movf	(_TEMPdig^(0+128)+1),w
  1180  0113  120A  158A  2323  120A  118A  	fcall	_MasterSend_I2C
  1181  0118                     l2385:
  1182                           
  1183                           ;main.c: 96:         MasterSend_I2C(TEMPdig[2]);
  1184  0118  1683               	bsf	3,5	;RP0=1, select bank1
  1185  0119  1303               	bcf	3,6	;RP1=0, select bank1
  1186  011A  0822               	movf	(_TEMPdig^(0+128)+2),w
  1187  011B  120A  158A  2323  120A  118A  	fcall	_MasterSend_I2C
  1188  0120                     l2387:
  1189                           
  1190                           ;main.c: 97:         MasterSend_I2C(TEMPdig[0]);
  1191  0120  1683               	bsf	3,5	;RP0=1, select bank1
  1192  0121  1303               	bcf	3,6	;RP1=0, select bank1
  1193  0122  0820               	movf	_TEMPdig^(0+128),w
  1194  0123  120A  158A  2323  120A  118A  	fcall	_MasterSend_I2C
  1195  0128                     l2389:
  1196                           
  1197                           ;main.c: 98:         MasterStop_I2C();
  1198  0128  120A  158A  231A  120A  118A  	fcall	_MasterStop_I2C
  1199  012D                     l2391:
  1200                           
  1201                           ;main.c: 100:         DHT11_START();
  1202  012D  120A  158A  2350  120A  118A  	fcall	_DHT11_START
  1203  0132                     l2393:
  1204                           
  1205                           ;main.c: 102:         if(DHT11_ALIVE()){
  1206  0132  120A  158A  2400  120A  118A  	fcall	_DHT11_ALIVE
  1207  0137  3A00               	xorlw	0
  1208  0138  1903               	skipnz
  1209  0139  293B               	goto	u3161
  1210  013A  293C               	goto	u3160
  1211  013B                     u3161:
  1212  013B  29D2               	goto	l2401
  1213  013C                     u3160:
  1214  013C                     l2395:
  1215                           
  1216                           ;main.c: 103:             DHT11_ReadData(&Hum1);
  1217  013C  306C               	movlw	(low (_Hum1| 0))& (0+255)
  1218  013D  120A  158A  242C  120A  118A  	fcall	_DHT11_ReadData
  1219                           
  1220                           ;main.c: 104:             DHT11_ReadData(&dummyHum1);
  1221  0142  306B               	movlw	(low (_dummyHum1| 0))& (0+255)
  1222  0143  120A  158A  242C  120A  118A  	fcall	_DHT11_ReadData
  1223                           
  1224                           ;main.c: 105:             DHT11_ReadData(&Temp1);
  1225  0148  306E               	movlw	(low (_Temp1| 0))& (0+255)
  1226  0149  120A  158A  242C  120A  118A  	fcall	_DHT11_ReadData
  1227                           
  1228                           ;main.c: 106:             DHT11_ReadData(&dummyT1);
  1229  014E  306D               	movlw	(low (_dummyT1| 0))& (0+255)
  1230  014F  120A  158A  242C  120A  118A  	fcall	_DHT11_ReadData
  1231                           
  1232                           ;main.c: 107:             DHT11_ReadData(&CHECKSUM);
  1233  0154  306A               	movlw	(low (_CHECKSUM| 0))& (0+255)
  1234  0155  120A  158A  242C  120A  118A  	fcall	_DHT11_ReadData
  1235  015A                     l2397:
  1236                           
  1237                           ;main.c: 109:             if(CHECKSUM == ((Hum1 + dummyHum1 + Temp1 + dummyT1) & 0XFF)){
  1238  015A  1283               	bcf	3,5	;RP0=0, select bank0
  1239  015B  1303               	bcf	3,6	;RP1=0, select bank0
  1240  015C  086C               	movf	_Hum1,w
  1241  015D  076B               	addwf	_dummyHum1,w
  1242  015E  00D6               	movwf	??_main
  1243  015F  01D7               	clrf	??_main+1
  1244  0160  0DD7               	rlf	??_main+1,f
  1245  0161  086E               	movf	_Temp1,w
  1246  0162  0756               	addwf	??_main,w
  1247  0163  00D8               	movwf	??_main+2
  1248  0164  3000               	movlw	0
  1249  0165  1803               	skipnc
  1250  0166  3001               	movlw	1
  1251  0167  0757               	addwf	??_main+1,w
  1252  0168  00D9               	movwf	??_main+3
  1253  0169  086D               	movf	_dummyT1,w
  1254  016A  0758               	addwf	??_main+2,w
  1255  016B  00DA               	movwf	??_main+4
  1256  016C  3000               	movlw	0
  1257  016D  1803               	skipnc
  1258  016E  3001               	movlw	1
  1259  016F  0759               	addwf	??_main+3,w
  1260  0170  00DB               	movwf	??_main+5
  1261  0171  30FF               	movlw	255
  1262  0172  055A               	andwf	??_main+4,w
  1263  0173  00DC               	movwf	??_main+6
  1264  0174  3000               	movlw	0
  1265  0175  055B               	andwf	??_main+5,w
  1266  0176  00DD               	movwf	??_main+7
  1267  0177  086A               	movf	_CHECKSUM,w
  1268  0178  00DE               	movwf	??_main+8
  1269  0179  01DF               	clrf	??_main+9
  1270  017A  085D               	movf	??_main+7,w
  1271  017B  065F               	xorwf	??_main+9,w
  1272  017C  1D03               	skipz
  1273  017D  2980               	goto	u3175
  1274  017E  085C               	movf	??_main+6,w
  1275  017F  065E               	xorwf	??_main+8,w
  1276  0180                     u3175:
  1277  0180  1D03               	skipz
  1278  0181  2983               	goto	u3171
  1279  0182  2984               	goto	u3170
  1280  0183                     u3171:
  1281  0183  29D2               	goto	l2401
  1282  0184                     u3170:
  1283  0184                     l2399:
  1284                           
  1285                           ;main.c: 110:                 HumR[0] = Hum1/10 + 48;
  1286  0184  300A               	movlw	10
  1287  0185  00F0               	movwf	___awdiv@divisor
  1288  0186  3000               	movlw	0
  1289  0187  00F1               	movwf	___awdiv@divisor+1
  1290  0188  086C               	movf	_Hum1,w
  1291  0189  00D6               	movwf	??_main
  1292  018A  01D7               	clrf	??_main+1
  1293  018B  0856               	movf	??_main,w
  1294  018C  00F2               	movwf	___awdiv@dividend
  1295  018D  0857               	movf	??_main+1,w
  1296  018E  00F3               	movwf	___awdiv@dividend+1
  1297  018F  120A  158A  2520  120A  118A  	fcall	___awdiv
  1298  0194  0870               	movf	?___awdiv,w
  1299  0195  3E30               	addlw	48
  1300  0196  1283               	bcf	3,5	;RP0=0, select bank0
  1301  0197  1303               	bcf	3,6	;RP1=0, select bank0
  1302  0198  00D8               	movwf	??_main+2
  1303  0199  0858               	movf	??_main+2,w
  1304  019A  00E4               	movwf	_HumR
  1305                           
  1306                           ;main.c: 111:                 HumR[1] = Hum1%10 + 48;
  1307  019B  300A               	movlw	10
  1308  019C  00F0               	movwf	___awmod@divisor
  1309  019D  3000               	movlw	0
  1310  019E  00F1               	movwf	___awmod@divisor+1
  1311  019F  086C               	movf	_Hum1,w
  1312  01A0  00D6               	movwf	??_main
  1313  01A1  01D7               	clrf	??_main+1
  1314  01A2  0856               	movf	??_main,w
  1315  01A3  00F2               	movwf	___awmod@dividend
  1316  01A4  0857               	movf	??_main+1,w
  1317  01A5  00F3               	movwf	___awmod@dividend+1
  1318  01A6  120A  158A  2461  120A  118A  	fcall	___awmod
  1319  01AB  0870               	movf	?___awmod,w
  1320  01AC  3E30               	addlw	48
  1321  01AD  1283               	bcf	3,5	;RP0=0, select bank0
  1322  01AE  1303               	bcf	3,6	;RP1=0, select bank0
  1323  01AF  00D8               	movwf	??_main+2
  1324  01B0  0858               	movf	??_main+2,w
  1325  01B1  00E5               	movwf	_HumR+1
  1326                           
  1327                           ;main.c: 112:                 MasterStart_I2C();
  1328  01B2  120A  158A  2311  120A  118A  	fcall	_MasterStart_I2C
  1329                           
  1330                           ;main.c: 113:                 MasterSend_I2C(SlaveAddress);
  1331  01B7  3050               	movlw	80
  1332  01B8  120A  158A  2323  120A  118A  	fcall	_MasterSend_I2C
  1333                           
  1334                           ;main.c: 114:                 MasterSend_I2C(HumR[0]);
  1335  01BD  1283               	bcf	3,5	;RP0=0, select bank0
  1336  01BE  1303               	bcf	3,6	;RP1=0, select bank0
  1337  01BF  0864               	movf	_HumR,w
  1338  01C0  120A  158A  2323  120A  118A  	fcall	_MasterSend_I2C
  1339                           
  1340                           ;main.c: 115:                 MasterSend_I2C(HumR[1]);
  1341  01C5  1283               	bcf	3,5	;RP0=0, select bank0
  1342  01C6  1303               	bcf	3,6	;RP1=0, select bank0
  1343  01C7  0865               	movf	_HumR+1,w
  1344  01C8  120A  158A  2323  120A  118A  	fcall	_MasterSend_I2C
  1345                           
  1346                           ;main.c: 116:                 MasterStop_I2C();
  1347  01CD  120A  158A  231A  120A  118A  	fcall	_MasterStop_I2C
  1348  01D2                     l2401:
  1349                           
  1350                           ;main.c: 131:         T1CONbits.TMR1ON = 0;
  1351  01D2  1283               	bcf	3,5	;RP0=0, select bank0
  1352  01D3  1303               	bcf	3,6	;RP1=0, select bank0
  1353  01D4  1010               	bcf	16,0	;volatile
  1354  01D5                     l2403:
  1355                           
  1356                           ;main.c: 132:         _delay((unsigned long)((10)*(8000000/4000.0)));
  1357  01D5  301A               	movlw	26
  1358  01D6  1283               	bcf	3,5	;RP0=0, select bank0
  1359  01D7  1303               	bcf	3,6	;RP1=0, select bank0
  1360  01D8  00D7               	movwf	??_main+1
  1361  01D9  30F7               	movlw	247
  1362  01DA  00D6               	movwf	??_main
  1363  01DB                     u3187:
  1364  01DB  0BD6               	decfsz	??_main,f
  1365  01DC  29DB               	goto	u3187
  1366  01DD  0BD7               	decfsz	??_main+1,f
  1367  01DE  29DB               	goto	u3187
  1368  01DF  29E0               	nop2
  1369  01E0  2863               	goto	l83
  1370  01E1  120A  118A  2800   	ljmp	start
  1371  01E4                     __end_of_main:
  1372                           
  1373                           	psect	text1
  1374  0F3A                     __ptext1:	
  1375 ;; *************** function _floToChar *****************
  1376 ;; Defined at:
  1377 ;;		line 159 in file "main.c"
  1378 ;; Parameters:    Size  Location     Type
  1379 ;;  valor           4   37[BANK0 ] const float 
  1380 ;;  salida          1   41[BANK0 ] PTR unsigned char 
  1381 ;;		 -> TEMPdig(6), 
  1382 ;; Auto vars:     Size  Location     Type
  1383 ;;  temp            4   46[BANK0 ] float 
  1384 ;;  digdecimal      2   52[BANK0 ] unsigned char [2]
  1385 ;;  entero          1   51[BANK0 ] unsigned char 
  1386 ;;  decimal         1   50[BANK0 ] unsigned char 
  1387 ;; Return value:  Size  Location     Type
  1388 ;;                  1    wreg      void 
  1389 ;; Registers used:
  1390 ;;		wreg, fsr0l, fsr0h, status,2, status,0, btemp+1, pclath, cstack
  1391 ;; Tracked objects:
  1392 ;;		On entry : 0/0
  1393 ;;		On exit  : 0/0
  1394 ;;		Unchanged: 0/0
  1395 ;; Data sizes:     COMMON   BANK0   BANK1   BANK3   BANK2
  1396 ;;      Params:         0       5       0       0       0
  1397 ;;      Locals:         0       8       0       0       0
  1398 ;;      Temps:          0       4       0       0       0
  1399 ;;      Totals:         0      17       0       0       0
  1400 ;;Total ram usage:       17 bytes
  1401 ;; Hardware stack levels used:    1
  1402 ;; Hardware stack levels required when called:    2
  1403 ;; This function calls:
  1404 ;;		___flmul
  1405 ;;		___flsub
  1406 ;;		___fltol
  1407 ;;		___xxtofl
  1408 ;;		_divisiondecimal
  1409 ;; This function is called by:
  1410 ;;		_main
  1411 ;; This function uses a non-reentrant model
  1412 ;;
  1413                           
  1414                           
  1415                           ;psect for function _floToChar
  1416  0F3A                     _floToChar:
  1417  0F3A                     l2241:	
  1418                           ;incstack = 0
  1419                           ; Regs used in _floToChar: [wreg-fsr0h+status,2+status,0+btemp+1+pclath+cstack]
  1420                           
  1421                           
  1422                           ;main.c: 160:     uint8_t entero;;main.c: 161:     uint8_t decimal;;main.c: 162:     flo
      +                          at temp;;main.c: 163:     unsigned char digdecimal[2];;main.c: 165:     entero = valor;
  1423  0F3A  1283               	bcf	3,5	;RP0=0, select bank0
  1424  0F3B  1303               	bcf	3,6	;RP1=0, select bank0
  1425  0F3C  0848               	movf	floToChar@valor+3,w
  1426  0F3D  00BD               	movwf	___fltol@f1+3
  1427  0F3E  0847               	movf	floToChar@valor+2,w
  1428  0F3F  00BC               	movwf	___fltol@f1+2
  1429  0F40  0846               	movf	floToChar@valor+1,w
  1430  0F41  00BB               	movwf	___fltol@f1+1
  1431  0F42  0845               	movf	floToChar@valor,w
  1432  0F43  00BA               	movwf	___fltol@f1
  1433  0F44  120A  158A  2587  120A  158A  	fcall	___fltol
  1434  0F49  1283               	bcf	3,5	;RP0=0, select bank0
  1435  0F4A  1303               	bcf	3,6	;RP1=0, select bank0
  1436  0F4B  083A               	movf	?___fltol,w
  1437  0F4C  00CA               	movwf	??_floToChar
  1438  0F4D  084A               	movf	??_floToChar,w
  1439  0F4E  00D3               	movwf	floToChar@entero
  1440  0F4F                     l2243:
  1441                           
  1442                           ;main.c: 166:     temp = valor - (float)entero;
  1443  0F4F  0853               	movf	floToChar@entero,w
  1444  0F50  00CA               	movwf	??_floToChar
  1445  0F51  01CB               	clrf	??_floToChar+1
  1446  0F52  01CC               	clrf	??_floToChar+2
  1447  0F53  01CD               	clrf	??_floToChar+3
  1448  0F54  084D               	movf	??_floToChar+3,w
  1449  0F55  00F3               	movwf	___xxtofl@val+3
  1450  0F56  084C               	movf	??_floToChar+2,w
  1451  0F57  00F2               	movwf	___xxtofl@val+2
  1452  0F58  084B               	movf	??_floToChar+1,w
  1453  0F59  00F1               	movwf	___xxtofl@val+1
  1454  0F5A  084A               	movf	??_floToChar,w
  1455  0F5B  00F0               	movwf	___xxtofl@val
  1456  0F5C  3000               	movlw	0
  1457  0F5D  120A  158A  2680  120A  158A  	fcall	___xxtofl
  1458  0F62  0873               	movf	?___xxtofl+3,w
  1459  0F63  1283               	bcf	3,5	;RP0=0, select bank0
  1460  0F64  1303               	bcf	3,6	;RP1=0, select bank0
  1461  0F65  00AB               	movwf	___flsub@a+3
  1462  0F66  0872               	movf	?___xxtofl+2,w
  1463  0F67  00AA               	movwf	___flsub@a+2
  1464  0F68  0871               	movf	?___xxtofl+1,w
  1465  0F69  00A9               	movwf	___flsub@a+1
  1466  0F6A  0870               	movf	?___xxtofl,w
  1467  0F6B  00A8               	movwf	___flsub@a
  1468  0F6C  0848               	movf	floToChar@valor+3,w
  1469  0F6D  00AF               	movwf	___flsub@b+3
  1470  0F6E  0847               	movf	floToChar@valor+2,w
  1471  0F6F  00AE               	movwf	___flsub@b+2
  1472  0F70  0846               	movf	floToChar@valor+1,w
  1473  0F71  00AD               	movwf	___flsub@b+1
  1474  0F72  0845               	movf	floToChar@valor,w
  1475  0F73  00AC               	movwf	___flsub@b
  1476  0F74  120A  158A  238C  120A  158A  	fcall	___flsub
  1477  0F79  1283               	bcf	3,5	;RP0=0, select bank0
  1478  0F7A  1303               	bcf	3,6	;RP1=0, select bank0
  1479  0F7B  082B               	movf	?___flsub+3,w
  1480  0F7C  00D1               	movwf	floToChar@temp+3
  1481  0F7D  082A               	movf	?___flsub+2,w
  1482  0F7E  00D0               	movwf	floToChar@temp+2
  1483  0F7F  0829               	movf	?___flsub+1,w
  1484  0F80  00CF               	movwf	floToChar@temp+1
  1485  0F81  0828               	movf	?___flsub,w
  1486  0F82  00CE               	movwf	floToChar@temp
  1487  0F83                     l2245:
  1488                           
  1489                           ;main.c: 167:     decimal = (temp*100);
  1490  0F83  0851               	movf	floToChar@temp+3,w
  1491  0F84  00A7               	movwf	___flmul@a+3
  1492  0F85  0850               	movf	floToChar@temp+2,w
  1493  0F86  00A6               	movwf	___flmul@a+2
  1494  0F87  084F               	movf	floToChar@temp+1,w
  1495  0F88  00A5               	movwf	___flmul@a+1
  1496  0F89  084E               	movf	floToChar@temp,w
  1497  0F8A  00A4               	movwf	___flmul@a
  1498  0F8B  3042               	movlw	66
  1499  0F8C  00A3               	movwf	___flmul@b+3
  1500  0F8D  30C8               	movlw	200
  1501  0F8E  00A2               	movwf	___flmul@b+2
  1502  0F8F  3000               	movlw	0
  1503  0F90  00A1               	movwf	___flmul@b+1
  1504  0F91  3000               	movlw	0
  1505  0F92  00A0               	movwf	___flmul@b
  1506  0F93  120A  118A  247C  120A  158A  	fcall	___flmul
  1507  0F98  1283               	bcf	3,5	;RP0=0, select bank0
  1508  0F99  1303               	bcf	3,6	;RP1=0, select bank0
  1509  0F9A  0823               	movf	?___flmul+3,w
  1510  0F9B  00BD               	movwf	___fltol@f1+3
  1511  0F9C  0822               	movf	?___flmul+2,w
  1512  0F9D  00BC               	movwf	___fltol@f1+2
  1513  0F9E  0821               	movf	?___flmul+1,w
  1514  0F9F  00BB               	movwf	___fltol@f1+1
  1515  0FA0  0820               	movf	?___flmul,w
  1516  0FA1  00BA               	movwf	___fltol@f1
  1517  0FA2  120A  158A  2587  120A  158A  	fcall	___fltol
  1518  0FA7  1283               	bcf	3,5	;RP0=0, select bank0
  1519  0FA8  1303               	bcf	3,6	;RP1=0, select bank0
  1520  0FA9  083A               	movf	?___fltol,w
  1521  0FAA  00CA               	movwf	??_floToChar
  1522  0FAB  084A               	movf	??_floToChar,w
  1523  0FAC  00D2               	movwf	floToChar@decimal
  1524  0FAD                     l2247:
  1525                           
  1526                           ;main.c: 168:     divisiondecimal(entero,&digdecimal[0],&digdecimal[1],&digdecimal[2]);
  1527  0FAD  3054               	movlw	(low (floToChar@digdecimal| 0))& (0+255)
  1528  0FAE  00CA               	movwf	??_floToChar
  1529  0FAF  084A               	movf	??_floToChar,w
  1530  0FB0  00F9               	movwf	divisiondecimal@un
  1531  0FB1  3055               	movlw	(low ((floToChar@digdecimal| 0+1)))& (0+255)
  1532  0FB2  00CB               	movwf	??_floToChar+1
  1533  0FB3  084B               	movf	??_floToChar+1,w
  1534  0FB4  00FA               	movwf	divisiondecimal@dec
  1535  0FB5  3056               	movlw	(low ((floToChar@digdecimal| 0+2)))& (0+255)
  1536  0FB6  00CC               	movwf	??_floToChar+2
  1537  0FB7  084C               	movf	??_floToChar+2,w
  1538  0FB8  00FB               	movwf	divisiondecimal@cent
  1539  0FB9  0853               	movf	floToChar@entero,w
  1540  0FBA  120A  158A  2603  120A  158A  	fcall	_divisiondecimal
  1541  0FBF                     l2249:
  1542                           
  1543                           ;main.c: 169:     salida[3] = digdecimal[0];
  1544  0FBF  1283               	bcf	3,5	;RP0=0, select bank0
  1545  0FC0  1303               	bcf	3,6	;RP1=0, select bank0
  1546  0FC1  0854               	movf	floToChar@digdecimal,w
  1547  0FC2  00CA               	movwf	??_floToChar
  1548  0FC3  0849               	movf	floToChar@salida,w
  1549  0FC4  3E03               	addlw	3
  1550  0FC5  0084               	movwf	4
  1551  0FC6  084A               	movf	??_floToChar,w
  1552  0FC7  1383               	bcf	3,7	;select IRP bank0
  1553  0FC8  0080               	movwf	0
  1554  0FC9                     l2251:
  1555                           
  1556                           ;main.c: 170:     salida[4] = digdecimal[1];
  1557  0FC9  0855               	movf	floToChar@digdecimal+1,w
  1558  0FCA  00CA               	movwf	??_floToChar
  1559  0FCB  0849               	movf	floToChar@salida,w
  1560  0FCC  3E04               	addlw	4
  1561  0FCD  0084               	movwf	4
  1562  0FCE  084A               	movf	??_floToChar,w
  1563  0FCF  0080               	movwf	0
  1564  0FD0                     l2253:
  1565                           
  1566                           ;main.c: 171:     salida[5] = digdecimal[2];
  1567  0FD0  0856               	movf	floToChar@digdecimal+2,w
  1568  0FD1  00CA               	movwf	??_floToChar
  1569  0FD2  0849               	movf	floToChar@salida,w
  1570  0FD3  3E05               	addlw	5
  1571  0FD4  0084               	movwf	4
  1572  0FD5  084A               	movf	??_floToChar,w
  1573  0FD6  0080               	movwf	0
  1574  0FD7                     l2255:
  1575                           
  1576                           ;main.c: 172:     divisiondecimal(decimal,&digdecimal[0],&digdecimal[1],&digdecimal[2]);
  1577  0FD7  3054               	movlw	(low (floToChar@digdecimal| 0))& (0+255)
  1578  0FD8  00CA               	movwf	??_floToChar
  1579  0FD9  084A               	movf	??_floToChar,w
  1580  0FDA  00F9               	movwf	divisiondecimal@un
  1581  0FDB  3055               	movlw	(low ((floToChar@digdecimal| 0+1)))& (0+255)
  1582  0FDC  00CB               	movwf	??_floToChar+1
  1583  0FDD  084B               	movf	??_floToChar+1,w
  1584  0FDE  00FA               	movwf	divisiondecimal@dec
  1585  0FDF  3056               	movlw	(low ((floToChar@digdecimal| 0+2)))& (0+255)
  1586  0FE0  00CC               	movwf	??_floToChar+2
  1587  0FE1  084C               	movf	??_floToChar+2,w
  1588  0FE2  00FB               	movwf	divisiondecimal@cent
  1589  0FE3  0852               	movf	floToChar@decimal,w
  1590  0FE4  120A  158A  2603  120A  158A  	fcall	_divisiondecimal
  1591  0FE9                     l2257:
  1592                           
  1593                           ;main.c: 173:     salida[2] = digdecimal[0];
  1594  0FE9  1283               	bcf	3,5	;RP0=0, select bank0
  1595  0FEA  1303               	bcf	3,6	;RP1=0, select bank0
  1596  0FEB  0854               	movf	floToChar@digdecimal,w
  1597  0FEC  00CA               	movwf	??_floToChar
  1598  0FED  0849               	movf	floToChar@salida,w
  1599  0FEE  3E02               	addlw	2
  1600  0FEF  0084               	movwf	4
  1601  0FF0  084A               	movf	??_floToChar,w
  1602  0FF1  1383               	bcf	3,7	;select IRP bank0
  1603  0FF2  0080               	movwf	0
  1604  0FF3                     l2259:
  1605                           
  1606                           ;main.c: 174:     salida[1] = digdecimal[1];
  1607  0FF3  0855               	movf	floToChar@digdecimal+1,w
  1608  0FF4  00CA               	movwf	??_floToChar
  1609  0FF5  0A49               	incf	floToChar@salida,w
  1610  0FF6  0084               	movwf	4
  1611  0FF7  084A               	movf	??_floToChar,w
  1612  0FF8  0080               	movwf	0
  1613  0FF9                     l2261:
  1614                           
  1615                           ;main.c: 175:     salida[0] = digdecimal[2];
  1616  0FF9  0856               	movf	floToChar@digdecimal+2,w
  1617  0FFA  00CA               	movwf	??_floToChar
  1618  0FFB  0849               	movf	floToChar@salida,w
  1619  0FFC  0084               	movwf	4
  1620  0FFD  084A               	movf	??_floToChar,w
  1621  0FFE  0080               	movwf	0
  1622  0FFF                     l94:
  1623  0FFF  0008               	return
  1624  1000                     __end_of_floToChar:
  1625                           
  1626                           	psect	text2
  1627  0E03                     __ptext2:	
  1628 ;; *************** function _divisiondecimal *****************
  1629 ;; Defined at:
  1630 ;;		line 178 in file "main.c"
  1631 ;; Parameters:    Size  Location     Type
  1632 ;;  conteo          1    wreg     unsigned char 
  1633 ;;  un              1    9[COMMON] PTR unsigned char 
  1634 ;;		 -> floToChar@digdecimal(2), 
  1635 ;;  dec             1   10[COMMON] PTR unsigned char 
  1636 ;;		 -> floToChar@digdecimal(2), 
  1637 ;;  cent            1   11[COMMON] PTR unsigned char 
  1638 ;;		 -> floToChar@digdecimal(2), 
  1639 ;; Auto vars:     Size  Location     Type
  1640 ;;  conteo          1   12[COMMON] unsigned char 
  1641 ;;  div             1   13[COMMON] unsigned char 
  1642 ;; Return value:  Size  Location     Type
  1643 ;;                  1    wreg      void 
  1644 ;; Registers used:
  1645 ;;		wreg, fsr0l, fsr0h, status,2, status,0, pclath, cstack
  1646 ;; Tracked objects:
  1647 ;;		On entry : 0/0
  1648 ;;		On exit  : 0/0
  1649 ;;		Unchanged: 0/0
  1650 ;; Data sizes:     COMMON   BANK0   BANK1   BANK3   BANK2
  1651 ;;      Params:         3       0       0       0       0
  1652 ;;      Locals:         2       0       0       0       0
  1653 ;;      Temps:          0       3       0       0       0
  1654 ;;      Totals:         5       3       0       0       0
  1655 ;;Total ram usage:        8 bytes
  1656 ;; Hardware stack levels used:    1
  1657 ;; Hardware stack levels required when called:    1
  1658 ;; This function calls:
  1659 ;;		___awdiv
  1660 ;;		___bmul
  1661 ;; This function is called by:
  1662 ;;		_floToChar
  1663 ;; This function uses a non-reentrant model
  1664 ;;
  1665                           
  1666                           
  1667                           ;psect for function _divisiondecimal
  1668  0E03                     _divisiondecimal:
  1669                           
  1670                           ;incstack = 0
  1671                           ; Regs used in _divisiondecimal: [wreg-fsr0h+status,2+status,0+pclath+cstack]
  1672                           ;divisiondecimal@conteo stored from wreg
  1673  0E03  00FC               	movwf	divisiondecimal@conteo
  1674  0E04                     l1947:
  1675                           
  1676                           ;main.c: 179:     uint8_t div = conteo;
  1677  0E04  087C               	movf	divisiondecimal@conteo,w
  1678  0E05  1283               	bcf	3,5	;RP0=0, select bank0
  1679  0E06  1303               	bcf	3,6	;RP1=0, select bank0
  1680  0E07  00A0               	movwf	??_divisiondecimal
  1681  0E08  0820               	movf	??_divisiondecimal,w
  1682  0E09  00FD               	movwf	divisiondecimal@div
  1683  0E0A                     l1949:
  1684                           
  1685                           ;main.c: 180:     *un = 0;
  1686  0E0A  0879               	movf	divisiondecimal@un,w
  1687  0E0B  0084               	movwf	4
  1688  0E0C  1383               	bcf	3,7	;select IRP bank0
  1689  0E0D  0180               	clrf	0
  1690  0E0E                     l1951:
  1691                           
  1692                           ;main.c: 181:     *dec = 0;
  1693  0E0E  087A               	movf	divisiondecimal@dec,w
  1694  0E0F  0084               	movwf	4
  1695  0E10  0180               	clrf	0
  1696  0E11                     l1953:
  1697                           
  1698                           ;main.c: 182:     *cent = 0;
  1699  0E11  087B               	movf	divisiondecimal@cent,w
  1700  0E12  0084               	movwf	4
  1701  0E13  0180               	clrf	0
  1702                           
  1703                           ;main.c: 185:     while(div >= 100){
  1704  0E14  2E40               	goto	l1957
  1705  0E15                     l1955:
  1706                           
  1707                           ;main.c: 186:     *cent = div/100;
  1708  0E15  3064               	movlw	100
  1709  0E16  00F0               	movwf	___awdiv@divisor
  1710  0E17  3000               	movlw	0
  1711  0E18  00F1               	movwf	___awdiv@divisor+1
  1712  0E19  087D               	movf	divisiondecimal@div,w
  1713  0E1A  00A0               	movwf	??_divisiondecimal
  1714  0E1B  01A1               	clrf	??_divisiondecimal+1
  1715  0E1C  0820               	movf	??_divisiondecimal,w
  1716  0E1D  00F2               	movwf	___awdiv@dividend
  1717  0E1E  0821               	movf	??_divisiondecimal+1,w
  1718  0E1F  00F3               	movwf	___awdiv@dividend+1
  1719  0E20  120A  158A  2520  120A  158A  	fcall	___awdiv
  1720  0E25  0870               	movf	?___awdiv,w
  1721  0E26  1283               	bcf	3,5	;RP0=0, select bank0
  1722  0E27  1303               	bcf	3,6	;RP1=0, select bank0
  1723  0E28  00A2               	movwf	??_divisiondecimal+2
  1724  0E29  087B               	movf	divisiondecimal@cent,w
  1725  0E2A  0084               	movwf	4
  1726  0E2B  0822               	movf	??_divisiondecimal+2,w
  1727  0E2C  1383               	bcf	3,7	;select IRP bank0
  1728  0E2D  0080               	movwf	0
  1729                           
  1730                           ;main.c: 187:     div = div - (*cent)*(100);
  1731  0E2E  309C               	movlw	156
  1732  0E2F  00A0               	movwf	??_divisiondecimal
  1733  0E30  0820               	movf	??_divisiondecimal,w
  1734  0E31  00F0               	movwf	___bmul@multiplicand
  1735  0E32  087B               	movf	divisiondecimal@cent,w
  1736  0E33  0084               	movwf	4
  1737  0E34  0800               	movf	0,w
  1738  0E35  120A  158A  233B  120A  158A  	fcall	___bmul
  1739  0E3A  077D               	addwf	divisiondecimal@div,w
  1740  0E3B  1283               	bcf	3,5	;RP0=0, select bank0
  1741  0E3C  1303               	bcf	3,6	;RP1=0, select bank0
  1742  0E3D  00A1               	movwf	??_divisiondecimal+1
  1743  0E3E  0821               	movf	??_divisiondecimal+1,w
  1744  0E3F  00FD               	movwf	divisiondecimal@div
  1745  0E40                     l1957:
  1746                           
  1747                           ;main.c: 185:     while(div >= 100){
  1748  0E40  3064               	movlw	100
  1749  0E41  027D               	subwf	divisiondecimal@div,w
  1750  0E42  1803               	skipnc
  1751  0E43  2E45               	goto	u2301
  1752  0E44  2E46               	goto	u2300
  1753  0E45                     u2301:
  1754  0E45  2E15               	goto	l1955
  1755  0E46                     u2300:
  1756  0E46  2E72               	goto	l1961
  1757  0E47                     l1959:
  1758                           
  1759                           ;main.c: 191:     *dec = div/10;
  1760  0E47  300A               	movlw	10
  1761  0E48  00F0               	movwf	___awdiv@divisor
  1762  0E49  3000               	movlw	0
  1763  0E4A  00F1               	movwf	___awdiv@divisor+1
  1764  0E4B  087D               	movf	divisiondecimal@div,w
  1765  0E4C  00A0               	movwf	??_divisiondecimal
  1766  0E4D  01A1               	clrf	??_divisiondecimal+1
  1767  0E4E  0820               	movf	??_divisiondecimal,w
  1768  0E4F  00F2               	movwf	___awdiv@dividend
  1769  0E50  0821               	movf	??_divisiondecimal+1,w
  1770  0E51  00F3               	movwf	___awdiv@dividend+1
  1771  0E52  120A  158A  2520  120A  158A  	fcall	___awdiv
  1772  0E57  0870               	movf	?___awdiv,w
  1773  0E58  1283               	bcf	3,5	;RP0=0, select bank0
  1774  0E59  1303               	bcf	3,6	;RP1=0, select bank0
  1775  0E5A  00A2               	movwf	??_divisiondecimal+2
  1776  0E5B  087A               	movf	divisiondecimal@dec,w
  1777  0E5C  0084               	movwf	4
  1778  0E5D  0822               	movf	??_divisiondecimal+2,w
  1779  0E5E  1383               	bcf	3,7	;select IRP bank0
  1780  0E5F  0080               	movwf	0
  1781                           
  1782                           ;main.c: 192:     div = div - (*dec)*(10);
  1783  0E60  30F6               	movlw	246
  1784  0E61  00A0               	movwf	??_divisiondecimal
  1785  0E62  0820               	movf	??_divisiondecimal,w
  1786  0E63  00F0               	movwf	___bmul@multiplicand
  1787  0E64  087A               	movf	divisiondecimal@dec,w
  1788  0E65  0084               	movwf	4
  1789  0E66  0800               	movf	0,w
  1790  0E67  120A  158A  233B  120A  158A  	fcall	___bmul
  1791  0E6C  077D               	addwf	divisiondecimal@div,w
  1792  0E6D  1283               	bcf	3,5	;RP0=0, select bank0
  1793  0E6E  1303               	bcf	3,6	;RP1=0, select bank0
  1794  0E6F  00A1               	movwf	??_divisiondecimal+1
  1795  0E70  0821               	movf	??_divisiondecimal+1,w
  1796  0E71  00FD               	movwf	divisiondecimal@div
  1797  0E72                     l1961:
  1798                           
  1799                           ;main.c: 190:     while (div >= 10){
  1800  0E72  300A               	movlw	10
  1801  0E73  027D               	subwf	divisiondecimal@div,w
  1802  0E74  1803               	skipnc
  1803  0E75  2E77               	goto	u2311
  1804  0E76  2E78               	goto	u2310
  1805  0E77                     u2311:
  1806  0E77  2E47               	goto	l1959
  1807  0E78                     u2310:
  1808  0E78                     l1963:
  1809                           
  1810                           ;main.c: 195:     *un = div;
  1811  0E78  087D               	movf	divisiondecimal@div,w
  1812  0E79  00A0               	movwf	??_divisiondecimal
  1813  0E7A  0879               	movf	divisiondecimal@un,w
  1814  0E7B  0084               	movwf	4
  1815  0E7C  0820               	movf	??_divisiondecimal,w
  1816  0E7D  1383               	bcf	3,7	;select IRP bank0
  1817  0E7E  0080               	movwf	0
  1818  0E7F                     l103:
  1819  0E7F  0008               	return
  1820  0E80                     __end_of_divisiondecimal:
  1821                           
  1822                           	psect	text3
  1823  0B3B                     __ptext3:	
  1824 ;; *************** function ___bmul *****************
  1825 ;; Defined at:
  1826 ;;		line 4 in file "C:\Program Files\Microchip\xc8\v2.31\pic\sources\c90\common\Umul8.c"
  1827 ;; Parameters:    Size  Location     Type
  1828 ;;  multiplier      1    wreg     unsigned char 
  1829 ;;  multiplicand    1    0[COMMON] unsigned char 
  1830 ;; Auto vars:     Size  Location     Type
  1831 ;;  multiplier      1    3[COMMON] unsigned char 
  1832 ;;  product         1    2[COMMON] unsigned char 
  1833 ;; Return value:  Size  Location     Type
  1834 ;;                  1    wreg      unsigned char 
  1835 ;; Registers used:
  1836 ;;		wreg, status,2, status,0
  1837 ;; Tracked objects:
  1838 ;;		On entry : 0/0
  1839 ;;		On exit  : 0/0
  1840 ;;		Unchanged: 0/0
  1841 ;; Data sizes:     COMMON   BANK0   BANK1   BANK3   BANK2
  1842 ;;      Params:         1       0       0       0       0
  1843 ;;      Locals:         2       0       0       0       0
  1844 ;;      Temps:          1       0       0       0       0
  1845 ;;      Totals:         4       0       0       0       0
  1846 ;;Total ram usage:        4 bytes
  1847 ;; Hardware stack levels used:    1
  1848 ;; This function calls:
  1849 ;;		Nothing
  1850 ;; This function is called by:
  1851 ;;		_divisiondecimal
  1852 ;; This function uses a non-reentrant model
  1853 ;;
  1854                           
  1855                           
  1856                           ;psect for function ___bmul
  1857  0B3B                     ___bmul:
  1858                           
  1859                           ;incstack = 0
  1860                           ; Regs used in ___bmul: [wreg+status,2+status,0]
  1861                           ;___bmul@multiplier stored from wreg
  1862  0B3B  00F3               	movwf	___bmul@multiplier
  1863  0B3C                     l1645:
  1864  0B3C  01F2               	clrf	___bmul@product
  1865  0B3D                     l1647:
  1866  0B3D  1C73               	btfss	___bmul@multiplier,0
  1867  0B3E  2B40               	goto	u1611
  1868  0B3F  2B41               	goto	u1610
  1869  0B40                     u1611:
  1870  0B40  2B45               	goto	l1651
  1871  0B41                     u1610:
  1872  0B41                     l1649:
  1873  0B41  0870               	movf	___bmul@multiplicand,w
  1874  0B42  00F1               	movwf	??___bmul
  1875  0B43  0871               	movf	??___bmul,w
  1876  0B44  07F2               	addwf	___bmul@product,f
  1877  0B45                     l1651:
  1878  0B45  1003               	clrc
  1879  0B46  0DF0               	rlf	___bmul@multiplicand,f
  1880  0B47                     l1653:
  1881  0B47  1003               	clrc
  1882  0B48  0CF3               	rrf	___bmul@multiplier,f
  1883  0B49  0873               	movf	___bmul@multiplier,w
  1884  0B4A  1D03               	btfss	3,2
  1885  0B4B  2B4D               	goto	u1621
  1886  0B4C  2B4E               	goto	u1620
  1887  0B4D                     u1621:
  1888  0B4D  2B3D               	goto	l1647
  1889  0B4E                     u1620:
  1890  0B4E                     l1655:
  1891  0B4E  0872               	movf	___bmul@product,w
  1892  0B4F                     l333:
  1893  0B4F  0008               	return
  1894  0B50                     __end_of___bmul:
  1895                           
  1896                           	psect	text4
  1897  0D20                     __ptext4:	
  1898 ;; *************** function ___awdiv *****************
  1899 ;; Defined at:
  1900 ;;		line 5 in file "C:\Program Files\Microchip\xc8\v2.31\pic\sources\c90\common\awdiv.c"
  1901 ;; Parameters:    Size  Location     Type
  1902 ;;  divisor         2    0[COMMON] int 
  1903 ;;  dividend        2    2[COMMON] int 
  1904 ;; Auto vars:     Size  Location     Type
  1905 ;;  quotient        2    7[COMMON] int 
  1906 ;;  sign            1    6[COMMON] unsigned char 
  1907 ;;  counter         1    5[COMMON] unsigned char 
  1908 ;; Return value:  Size  Location     Type
  1909 ;;                  2    0[COMMON] int 
  1910 ;; Registers used:
  1911 ;;		wreg, status,2, status,0
  1912 ;; Tracked objects:
  1913 ;;		On entry : 0/0
  1914 ;;		On exit  : 0/0
  1915 ;;		Unchanged: 0/0
  1916 ;; Data sizes:     COMMON   BANK0   BANK1   BANK3   BANK2
  1917 ;;      Params:         4       0       0       0       0
  1918 ;;      Locals:         4       0       0       0       0
  1919 ;;      Temps:          1       0       0       0       0
  1920 ;;      Totals:         9       0       0       0       0
  1921 ;;Total ram usage:        9 bytes
  1922 ;; Hardware stack levels used:    1
  1923 ;; This function calls:
  1924 ;;		Nothing
  1925 ;; This function is called by:
  1926 ;;		_main
  1927 ;;		_divisiondecimal
  1928 ;; This function uses a non-reentrant model
  1929 ;;
  1930                           
  1931                           
  1932                           ;psect for function ___awdiv
  1933  0D20                     ___awdiv:
  1934  0D20                     l1683:	
  1935                           ;incstack = 0
  1936                           ; Regs used in ___awdiv: [wreg+status,2+status,0]
  1937                           
  1938  0D20  01F6               	clrf	___awdiv@sign
  1939  0D21                     l1685:
  1940  0D21  1FF1               	btfss	___awdiv@divisor+1,7
  1941  0D22  2D24               	goto	u1701
  1942  0D23  2D25               	goto	u1700
  1943  0D24                     u1701:
  1944  0D24  2D2C               	goto	l1691
  1945  0D25                     u1700:
  1946  0D25                     l1687:
  1947  0D25  09F0               	comf	___awdiv@divisor,f
  1948  0D26  09F1               	comf	___awdiv@divisor+1,f
  1949  0D27  0AF0               	incf	___awdiv@divisor,f
  1950  0D28  1903               	skipnz
  1951  0D29  0AF1               	incf	___awdiv@divisor+1,f
  1952  0D2A                     l1689:
  1953  0D2A  01F6               	clrf	___awdiv@sign
  1954  0D2B  0AF6               	incf	___awdiv@sign,f
  1955  0D2C                     l1691:
  1956  0D2C  1FF3               	btfss	___awdiv@dividend+1,7
  1957  0D2D  2D2F               	goto	u1711
  1958  0D2E  2D30               	goto	u1710
  1959  0D2F                     u1711:
  1960  0D2F  2D39               	goto	l1697
  1961  0D30                     u1710:
  1962  0D30                     l1693:
  1963  0D30  09F2               	comf	___awdiv@dividend,f
  1964  0D31  09F3               	comf	___awdiv@dividend+1,f
  1965  0D32  0AF2               	incf	___awdiv@dividend,f
  1966  0D33  1903               	skipnz
  1967  0D34  0AF3               	incf	___awdiv@dividend+1,f
  1968  0D35                     l1695:
  1969  0D35  3001               	movlw	1
  1970  0D36  00F4               	movwf	??___awdiv
  1971  0D37  0874               	movf	??___awdiv,w
  1972  0D38  06F6               	xorwf	___awdiv@sign,f
  1973  0D39                     l1697:
  1974  0D39  01F7               	clrf	___awdiv@quotient
  1975  0D3A  01F8               	clrf	___awdiv@quotient+1
  1976  0D3B                     l1699:
  1977  0D3B  0870               	movf	___awdiv@divisor,w
  1978  0D3C  0471               	iorwf	___awdiv@divisor+1,w
  1979  0D3D  1903               	btfsc	3,2
  1980  0D3E  2D40               	goto	u1721
  1981  0D3F  2D41               	goto	u1720
  1982  0D40                     u1721:
  1983  0D40  2D78               	goto	l1719
  1984  0D41                     u1720:
  1985  0D41                     l1701:
  1986  0D41  01F5               	clrf	___awdiv@counter
  1987  0D42  0AF5               	incf	___awdiv@counter,f
  1988  0D43  2D4F               	goto	l1707
  1989  0D44                     l1703:
  1990  0D44  3001               	movlw	1
  1991  0D45                     u1735:
  1992  0D45  1003               	clrc
  1993  0D46  0DF0               	rlf	___awdiv@divisor,f
  1994  0D47  0DF1               	rlf	___awdiv@divisor+1,f
  1995  0D48  3EFF               	addlw	-1
  1996  0D49  1D03               	skipz
  1997  0D4A  2D45               	goto	u1735
  1998  0D4B                     l1705:
  1999  0D4B  3001               	movlw	1
  2000  0D4C  00F4               	movwf	??___awdiv
  2001  0D4D  0874               	movf	??___awdiv,w
  2002  0D4E  07F5               	addwf	___awdiv@counter,f
  2003  0D4F                     l1707:
  2004  0D4F  1FF1               	btfss	___awdiv@divisor+1,7
  2005  0D50  2D52               	goto	u1741
  2006  0D51  2D53               	goto	u1740
  2007  0D52                     u1741:
  2008  0D52  2D44               	goto	l1703
  2009  0D53                     u1740:
  2010  0D53                     l1709:
  2011  0D53  3001               	movlw	1
  2012  0D54                     u1755:
  2013  0D54  1003               	clrc
  2014  0D55  0DF7               	rlf	___awdiv@quotient,f
  2015  0D56  0DF8               	rlf	___awdiv@quotient+1,f
  2016  0D57  3EFF               	addlw	-1
  2017  0D58  1D03               	skipz
  2018  0D59  2D54               	goto	u1755
  2019  0D5A  0871               	movf	___awdiv@divisor+1,w
  2020  0D5B  0273               	subwf	___awdiv@dividend+1,w
  2021  0D5C  1D03               	skipz
  2022  0D5D  2D60               	goto	u1765
  2023  0D5E  0870               	movf	___awdiv@divisor,w
  2024  0D5F  0272               	subwf	___awdiv@dividend,w
  2025  0D60                     u1765:
  2026  0D60  1C03               	skipc
  2027  0D61  2D63               	goto	u1761
  2028  0D62  2D64               	goto	u1760
  2029  0D63                     u1761:
  2030  0D63  2D6B               	goto	l1715
  2031  0D64                     u1760:
  2032  0D64                     l1711:
  2033  0D64  0870               	movf	___awdiv@divisor,w
  2034  0D65  02F2               	subwf	___awdiv@dividend,f
  2035  0D66  0871               	movf	___awdiv@divisor+1,w
  2036  0D67  1C03               	skipc
  2037  0D68  03F3               	decf	___awdiv@dividend+1,f
  2038  0D69  02F3               	subwf	___awdiv@dividend+1,f
  2039  0D6A                     l1713:
  2040  0D6A  1477               	bsf	___awdiv@quotient,0
  2041  0D6B                     l1715:
  2042  0D6B  3001               	movlw	1
  2043  0D6C                     u1775:
  2044  0D6C  1003               	clrc
  2045  0D6D  0CF1               	rrf	___awdiv@divisor+1,f
  2046  0D6E  0CF0               	rrf	___awdiv@divisor,f
  2047  0D6F  3EFF               	addlw	-1
  2048  0D70  1D03               	skipz
  2049  0D71  2D6C               	goto	u1775
  2050  0D72                     l1717:
  2051  0D72  3001               	movlw	1
  2052  0D73  02F5               	subwf	___awdiv@counter,f
  2053  0D74  1D03               	btfss	3,2
  2054  0D75  2D77               	goto	u1781
  2055  0D76  2D78               	goto	u1780
  2056  0D77                     u1781:
  2057  0D77  2D53               	goto	l1709
  2058  0D78                     u1780:
  2059  0D78                     l1719:
  2060  0D78  0876               	movf	___awdiv@sign,w
  2061  0D79  1903               	btfsc	3,2
  2062  0D7A  2D7C               	goto	u1791
  2063  0D7B  2D7D               	goto	u1790
  2064  0D7C                     u1791:
  2065  0D7C  2D82               	goto	l1723
  2066  0D7D                     u1790:
  2067  0D7D                     l1721:
  2068  0D7D  09F7               	comf	___awdiv@quotient,f
  2069  0D7E  09F8               	comf	___awdiv@quotient+1,f
  2070  0D7F  0AF7               	incf	___awdiv@quotient,f
  2071  0D80  1903               	skipnz
  2072  0D81  0AF8               	incf	___awdiv@quotient+1,f
  2073  0D82                     l1723:
  2074  0D82  0878               	movf	___awdiv@quotient+1,w
  2075  0D83  00F1               	movwf	?___awdiv+1
  2076  0D84  0877               	movf	___awdiv@quotient,w
  2077  0D85  00F0               	movwf	?___awdiv
  2078  0D86                     l460:
  2079  0D86  0008               	return
  2080  0D87                     __end_of___awdiv:
  2081                           
  2082                           	psect	text5
  2083  0E80                     __ptext5:	
  2084 ;; *************** function ___xxtofl *****************
  2085 ;; Defined at:
  2086 ;;		line 10 in file "C:\Program Files\Microchip\xc8\v2.31\pic\sources\c90\common\xxtofl.c"
  2087 ;; Parameters:    Size  Location     Type
  2088 ;;  sign            1    wreg     unsigned char 
  2089 ;;  val             4    0[COMMON] long 
  2090 ;; Auto vars:     Size  Location     Type
  2091 ;;  sign            1    8[COMMON] unsigned char 
  2092 ;;  arg             4   10[COMMON] unsigned long 
  2093 ;;  exp             1    9[COMMON] unsigned char 
  2094 ;; Return value:  Size  Location     Type
  2095 ;;                  4    0[COMMON] unsigned char 
  2096 ;; Registers used:
  2097 ;;		wreg, status,2, status,0
  2098 ;; Tracked objects:
  2099 ;;		On entry : 0/0
  2100 ;;		On exit  : 0/0
  2101 ;;		Unchanged: 0/0
  2102 ;; Data sizes:     COMMON   BANK0   BANK1   BANK3   BANK2
  2103 ;;      Params:         4       0       0       0       0
  2104 ;;      Locals:         6       0       0       0       0
  2105 ;;      Temps:          4       0       0       0       0
  2106 ;;      Totals:        14       0       0       0       0
  2107 ;;Total ram usage:       14 bytes
  2108 ;; Hardware stack levels used:    1
  2109 ;; This function calls:
  2110 ;;		Nothing
  2111 ;; This function is called by:
  2112 ;;		_main
  2113 ;;		_floToChar
  2114 ;; This function uses a non-reentrant model
  2115 ;;
  2116                           
  2117                           
  2118                           ;psect for function ___xxtofl
  2119  0E80                     ___xxtofl:
  2120                           
  2121                           ;incstack = 0
  2122                           ; Regs used in ___xxtofl: [wreg+status,2+status,0]
  2123                           ;___xxtofl@sign stored from wreg
  2124  0E80  00F8               	movwf	___xxtofl@sign
  2125  0E81                     l2151:
  2126  0E81  0878               	movf	___xxtofl@sign,w
  2127  0E82  1903               	btfsc	3,2
  2128  0E83  2E85               	goto	u2811
  2129  0E84  2E86               	goto	u2810
  2130  0E85                     u2811:
  2131  0E85  2E9A               	goto	l2157
  2132  0E86                     u2810:
  2133  0E86                     l2153:
  2134  0E86  1FF3               	btfss	___xxtofl@val+3,7
  2135  0E87  2E89               	goto	u2821
  2136  0E88  2E8A               	goto	u2820
  2137  0E89                     u2821:
  2138  0E89  2E9A               	goto	l2157
  2139  0E8A                     u2820:
  2140  0E8A                     l2155:
  2141  0E8A  0970               	comf	___xxtofl@val,w
  2142  0E8B  00FA               	movwf	___xxtofl@arg
  2143  0E8C  0971               	comf	___xxtofl@val+1,w
  2144  0E8D  00FB               	movwf	___xxtofl@arg+1
  2145  0E8E  0972               	comf	___xxtofl@val+2,w
  2146  0E8F  00FC               	movwf	___xxtofl@arg+2
  2147  0E90  0973               	comf	___xxtofl@val+3,w
  2148  0E91  00FD               	movwf	___xxtofl@arg+3
  2149  0E92  0AFA               	incf	___xxtofl@arg,f
  2150  0E93  1903               	skipnz
  2151  0E94  0AFB               	incf	___xxtofl@arg+1,f
  2152  0E95  1903               	skipnz
  2153  0E96  0AFC               	incf	___xxtofl@arg+2,f
  2154  0E97  1903               	skipnz
  2155  0E98  0AFD               	incf	___xxtofl@arg+3,f
  2156  0E99  2EA2               	goto	l740
  2157  0E9A                     l2157:
  2158  0E9A  0873               	movf	___xxtofl@val+3,w
  2159  0E9B  00FD               	movwf	___xxtofl@arg+3
  2160  0E9C  0872               	movf	___xxtofl@val+2,w
  2161  0E9D  00FC               	movwf	___xxtofl@arg+2
  2162  0E9E  0871               	movf	___xxtofl@val+1,w
  2163  0E9F  00FB               	movwf	___xxtofl@arg+1
  2164  0EA0  0870               	movf	___xxtofl@val,w
  2165  0EA1  00FA               	movwf	___xxtofl@arg
  2166  0EA2                     l740:
  2167  0EA2  0873               	movf	___xxtofl@val+3,w
  2168  0EA3  0472               	iorwf	___xxtofl@val+2,w
  2169  0EA4  0471               	iorwf	___xxtofl@val+1,w
  2170  0EA5  0470               	iorwf	___xxtofl@val,w
  2171  0EA6  1D03               	skipz
  2172  0EA7  2EA9               	goto	u2831
  2173  0EA8  2EAA               	goto	u2830
  2174  0EA9                     u2831:
  2175  0EA9  2EB3               	goto	l2163
  2176  0EAA                     u2830:
  2177  0EAA                     l2159:
  2178  0EAA  3000               	movlw	0
  2179  0EAB  00F3               	movwf	?___xxtofl+3
  2180  0EAC  3000               	movlw	0
  2181  0EAD  00F2               	movwf	?___xxtofl+2
  2182  0EAE  3000               	movlw	0
  2183  0EAF  00F1               	movwf	?___xxtofl+1
  2184  0EB0  3000               	movlw	0
  2185  0EB1  00F0               	movwf	?___xxtofl
  2186  0EB2  2F39               	goto	l742
  2187  0EB3                     l2163:
  2188  0EB3  3096               	movlw	150
  2189  0EB4  00F4               	movwf	??___xxtofl
  2190  0EB5  0874               	movf	??___xxtofl,w
  2191  0EB6  00F9               	movwf	___xxtofl@exp
  2192  0EB7  2EC5               	goto	l2167
  2193  0EB8                     l2165:
  2194  0EB8  3001               	movlw	1
  2195  0EB9  00F4               	movwf	??___xxtofl
  2196  0EBA  0874               	movf	??___xxtofl,w
  2197  0EBB  07F9               	addwf	___xxtofl@exp,f
  2198  0EBC  3001               	movlw	1
  2199  0EBD                     u2845:
  2200  0EBD  1003               	clrc
  2201  0EBE  0CFD               	rrf	___xxtofl@arg+3,f
  2202  0EBF  0CFC               	rrf	___xxtofl@arg+2,f
  2203  0EC0  0CFB               	rrf	___xxtofl@arg+1,f
  2204  0EC1  0CFA               	rrf	___xxtofl@arg,f
  2205  0EC2  3EFF               	addlw	-1
  2206  0EC3  1D03               	skipz
  2207  0EC4  2EBD               	goto	u2845
  2208  0EC5                     l2167:
  2209  0EC5  30FE               	movlw	254
  2210  0EC6  057D               	andwf	___xxtofl@arg+3,w
  2211  0EC7  1D03               	btfss	3,2
  2212  0EC8  2ECA               	goto	u2851
  2213  0EC9  2ECB               	goto	u2850
  2214  0ECA                     u2851:
  2215  0ECA  2EB8               	goto	l2165
  2216  0ECB                     u2850:
  2217  0ECB  2EE7               	goto	l746
  2218  0ECC                     l2169:
  2219  0ECC  3001               	movlw	1
  2220  0ECD  00F4               	movwf	??___xxtofl
  2221  0ECE  0874               	movf	??___xxtofl,w
  2222  0ECF  07F9               	addwf	___xxtofl@exp,f
  2223  0ED0                     l2171:
  2224  0ED0  3001               	movlw	1
  2225  0ED1  07FA               	addwf	___xxtofl@arg,f
  2226  0ED2  3000               	movlw	0
  2227  0ED3  1803               	skipnc
  2228  0ED4  3001               	movlw	1
  2229  0ED5  07FB               	addwf	___xxtofl@arg+1,f
  2230  0ED6  3000               	movlw	0
  2231  0ED7  1803               	skipnc
  2232  0ED8  3001               	movlw	1
  2233  0ED9  07FC               	addwf	___xxtofl@arg+2,f
  2234  0EDA  3000               	movlw	0
  2235  0EDB  1803               	skipnc
  2236  0EDC  3001               	movlw	1
  2237  0EDD  07FD               	addwf	___xxtofl@arg+3,f
  2238  0EDE                     l2173:
  2239  0EDE  3001               	movlw	1
  2240  0EDF                     u2865:
  2241  0EDF  1003               	clrc
  2242  0EE0  0CFD               	rrf	___xxtofl@arg+3,f
  2243  0EE1  0CFC               	rrf	___xxtofl@arg+2,f
  2244  0EE2  0CFB               	rrf	___xxtofl@arg+1,f
  2245  0EE3  0CFA               	rrf	___xxtofl@arg,f
  2246  0EE4  3EFF               	addlw	-1
  2247  0EE5  1D03               	skipz
  2248  0EE6  2EDF               	goto	u2865
  2249  0EE7                     l746:
  2250  0EE7  30FF               	movlw	255
  2251  0EE8  057D               	andwf	___xxtofl@arg+3,w
  2252  0EE9  1D03               	btfss	3,2
  2253  0EEA  2EEC               	goto	u2871
  2254  0EEB  2EED               	goto	u2870
  2255  0EEC                     u2871:
  2256  0EEC  2ECC               	goto	l2169
  2257  0EED                     u2870:
  2258  0EED  2EF9               	goto	l2177
  2259  0EEE                     l2175:
  2260  0EEE  3001               	movlw	1
  2261  0EEF  02F9               	subwf	___xxtofl@exp,f
  2262  0EF0  3001               	movlw	1
  2263  0EF1  00F4               	movwf	??___xxtofl
  2264  0EF2                     u2885:
  2265  0EF2  1003               	clrc
  2266  0EF3  0DFA               	rlf	___xxtofl@arg,f
  2267  0EF4  0DFB               	rlf	___xxtofl@arg+1,f
  2268  0EF5  0DFC               	rlf	___xxtofl@arg+2,f
  2269  0EF6  0DFD               	rlf	___xxtofl@arg+3,f
  2270  0EF7  0BF4               	decfsz	??___xxtofl,f
  2271  0EF8  2EF2               	goto	u2885
  2272  0EF9                     l2177:
  2273  0EF9  1BFC               	btfsc	___xxtofl@arg+2,7
  2274  0EFA  2EFC               	goto	u2891
  2275  0EFB  2EFD               	goto	u2890
  2276  0EFC                     u2891:
  2277  0EFC  2F03               	goto	l753
  2278  0EFD                     u2890:
  2279  0EFD                     l2179:
  2280  0EFD  3002               	movlw	2
  2281  0EFE  0279               	subwf	___xxtofl@exp,w
  2282  0EFF  1803               	skipnc
  2283  0F00  2F02               	goto	u2901
  2284  0F01  2F03               	goto	u2900
  2285  0F02                     u2901:
  2286  0F02  2EEE               	goto	l2175
  2287  0F03                     u2900:
  2288  0F03                     l753:
  2289  0F03  1879               	btfsc	___xxtofl@exp,0
  2290  0F04  2F06               	goto	u2911
  2291  0F05  2F07               	goto	u2910
  2292  0F06                     u2911:
  2293  0F06  2F0F               	goto	l754
  2294  0F07                     u2910:
  2295  0F07                     l2181:
  2296  0F07  30FF               	movlw	255
  2297  0F08  05FA               	andwf	___xxtofl@arg,f
  2298  0F09  30FF               	movlw	255
  2299  0F0A  05FB               	andwf	___xxtofl@arg+1,f
  2300  0F0B  307F               	movlw	127
  2301  0F0C  05FC               	andwf	___xxtofl@arg+2,f
  2302  0F0D  30FF               	movlw	255
  2303  0F0E  05FD               	andwf	___xxtofl@arg+3,f
  2304  0F0F                     l754:
  2305  0F0F  1003               	clrc
  2306  0F10  0CF9               	rrf	___xxtofl@exp,f
  2307  0F11                     l2183:
  2308  0F11  0879               	movf	___xxtofl@exp,w
  2309  0F12  00F4               	movwf	??___xxtofl
  2310  0F13  01F5               	clrf	??___xxtofl+1
  2311  0F14  01F6               	clrf	??___xxtofl+2
  2312  0F15  01F7               	clrf	??___xxtofl+3
  2313  0F16  3018               	movlw	24
  2314  0F17                     u2925:
  2315  0F17  1003               	clrc
  2316  0F18  0DF4               	rlf	??___xxtofl,f
  2317  0F19  0DF5               	rlf	??___xxtofl+1,f
  2318  0F1A  0DF6               	rlf	??___xxtofl+2,f
  2319  0F1B  0DF7               	rlf	??___xxtofl+3,f
  2320  0F1C                     u2920:
  2321  0F1C  3EFF               	addlw	-1
  2322  0F1D  1D03               	skipz
  2323  0F1E  2F17               	goto	u2925
  2324  0F1F  0874               	movf	??___xxtofl,w
  2325  0F20  04FA               	iorwf	___xxtofl@arg,f
  2326  0F21  0875               	movf	??___xxtofl+1,w
  2327  0F22  04FB               	iorwf	___xxtofl@arg+1,f
  2328  0F23  0876               	movf	??___xxtofl+2,w
  2329  0F24  04FC               	iorwf	___xxtofl@arg+2,f
  2330  0F25  0877               	movf	??___xxtofl+3,w
  2331  0F26  04FD               	iorwf	___xxtofl@arg+3,f
  2332  0F27                     l2185:
  2333  0F27  0878               	movf	___xxtofl@sign,w
  2334  0F28  1903               	btfsc	3,2
  2335  0F29  2F2B               	goto	u2931
  2336  0F2A  2F2C               	goto	u2930
  2337  0F2B                     u2931:
  2338  0F2B  2F31               	goto	l2191
  2339  0F2C                     u2930:
  2340  0F2C                     l2187:
  2341  0F2C  1FF3               	btfss	___xxtofl@val+3,7
  2342  0F2D  2F2F               	goto	u2941
  2343  0F2E  2F30               	goto	u2940
  2344  0F2F                     u2941:
  2345  0F2F  2F31               	goto	l2191
  2346  0F30                     u2940:
  2347  0F30                     l2189:
  2348  0F30  17FD               	bsf	___xxtofl@arg+3,7
  2349  0F31                     l2191:
  2350  0F31  087D               	movf	___xxtofl@arg+3,w
  2351  0F32  00F3               	movwf	?___xxtofl+3
  2352  0F33  087C               	movf	___xxtofl@arg+2,w
  2353  0F34  00F2               	movwf	?___xxtofl+2
  2354  0F35  087B               	movf	___xxtofl@arg+1,w
  2355  0F36  00F1               	movwf	?___xxtofl+1
  2356  0F37  087A               	movf	___xxtofl@arg,w
  2357  0F38  00F0               	movwf	?___xxtofl
  2358  0F39                     l742:
  2359  0F39  0008               	return
  2360  0F3A                     __end_of___xxtofl:
  2361                           
  2362                           	psect	text6
  2363  0D87                     __ptext6:	
  2364 ;; *************** function ___fltol *****************
  2365 ;; Defined at:
  2366 ;;		line 43 in file "C:\Program Files\Microchip\xc8\v2.31\pic\sources\c90\common\fltol.c"
  2367 ;; Parameters:    Size  Location     Type
  2368 ;;  f1              4   26[BANK0 ] unsigned char 
  2369 ;; Auto vars:     Size  Location     Type
  2370 ;;  exp1            1   36[BANK0 ] unsigned char 
  2371 ;;  sign1           1   35[BANK0 ] unsigned char 
  2372 ;; Return value:  Size  Location     Type
  2373 ;;                  4   26[BANK0 ] long 
  2374 ;; Registers used:
  2375 ;;		wreg, status,2, status,0
  2376 ;; Tracked objects:
  2377 ;;		On entry : 0/0
  2378 ;;		On exit  : 0/0
  2379 ;;		Unchanged: 0/0
  2380 ;; Data sizes:     COMMON   BANK0   BANK1   BANK3   BANK2
  2381 ;;      Params:         0       4       0       0       0
  2382 ;;      Locals:         0       2       0       0       0
  2383 ;;      Temps:          0       5       0       0       0
  2384 ;;      Totals:         0      11       0       0       0
  2385 ;;Total ram usage:       11 bytes
  2386 ;; Hardware stack levels used:    1
  2387 ;; This function calls:
  2388 ;;		Nothing
  2389 ;; This function is called by:
  2390 ;;		_floToChar
  2391 ;; This function uses a non-reentrant model
  2392 ;;
  2393                           
  2394                           
  2395                           ;psect for function ___fltol
  2396  0D87                     ___fltol:
  2397  0D87                     l1969:	
  2398                           ;incstack = 0
  2399                           ; Regs used in ___fltol: [wreg+status,2+status,0]
  2400                           
  2401  0D87  1003               	clrc
  2402  0D88  1283               	bcf	3,5	;RP0=0, select bank0
  2403  0D89  1303               	bcf	3,6	;RP1=0, select bank0
  2404  0D8A  0D3C               	rlf	___fltol@f1+2,w
  2405  0D8B  0D3D               	rlf	___fltol@f1+3,w
  2406  0D8C  00BE               	movwf	??___fltol
  2407  0D8D  083E               	movf	??___fltol,w
  2408  0D8E  00C4               	movwf	___fltol@exp1
  2409  0D8F  0844               	movf	___fltol@exp1,w
  2410  0D90  1D03               	btfss	3,2
  2411  0D91  2D93               	goto	u2341
  2412  0D92  2D94               	goto	u2340
  2413  0D93                     u2341:
  2414  0D93  2D9D               	goto	l1975
  2415  0D94                     u2340:
  2416  0D94                     l1971:
  2417  0D94  3000               	movlw	0
  2418  0D95  00BD               	movwf	?___fltol+3
  2419  0D96  3000               	movlw	0
  2420  0D97  00BC               	movwf	?___fltol+2
  2421  0D98  3000               	movlw	0
  2422  0D99  00BB               	movwf	?___fltol+1
  2423  0D9A  3000               	movlw	0
  2424  0D9B  00BA               	movwf	?___fltol
  2425  0D9C  2E02               	goto	l493
  2426  0D9D                     l1975:
  2427  0D9D  083A               	movf	___fltol@f1,w
  2428  0D9E  00BE               	movwf	??___fltol
  2429  0D9F  083B               	movf	___fltol@f1+1,w
  2430  0DA0  00BF               	movwf	??___fltol+1
  2431  0DA1  083C               	movf	___fltol@f1+2,w
  2432  0DA2  00C0               	movwf	??___fltol+2
  2433  0DA3  083D               	movf	___fltol@f1+3,w
  2434  0DA4  00C1               	movwf	??___fltol+3
  2435  0DA5  301F               	movlw	31
  2436  0DA6                     u2355:
  2437  0DA6  1003               	clrc
  2438  0DA7  0CC1               	rrf	??___fltol+3,f
  2439  0DA8  0CC0               	rrf	??___fltol+2,f
  2440  0DA9  0CBF               	rrf	??___fltol+1,f
  2441  0DAA  0CBE               	rrf	??___fltol,f
  2442  0DAB                     u2350:
  2443  0DAB  3EFF               	addlw	-1
  2444  0DAC  1D03               	skipz
  2445  0DAD  2DA6               	goto	u2355
  2446  0DAE  083E               	movf	??___fltol,w
  2447  0DAF  00C2               	movwf	??___fltol+4
  2448  0DB0  0842               	movf	??___fltol+4,w
  2449  0DB1  00C3               	movwf	___fltol@sign1
  2450  0DB2                     l1977:
  2451  0DB2  17BC               	bsf	___fltol@f1+2,7
  2452  0DB3                     l1979:
  2453  0DB3  30FF               	movlw	255
  2454  0DB4  05BA               	andwf	___fltol@f1,f
  2455  0DB5  30FF               	movlw	255
  2456  0DB6  05BB               	andwf	___fltol@f1+1,f
  2457  0DB7  30FF               	movlw	255
  2458  0DB8  05BC               	andwf	___fltol@f1+2,f
  2459  0DB9  3000               	movlw	0
  2460  0DBA  05BD               	andwf	___fltol@f1+3,f
  2461  0DBB                     l1981:
  2462  0DBB  3096               	movlw	150
  2463  0DBC  02C4               	subwf	___fltol@exp1,f
  2464  0DBD                     l1983:
  2465  0DBD  1FC4               	btfss	___fltol@exp1,7
  2466  0DBE  2DC0               	goto	u2361
  2467  0DBF  2DC1               	goto	u2360
  2468  0DC0                     u2361:
  2469  0DC0  2DDB               	goto	l1993
  2470  0DC1                     u2360:
  2471  0DC1                     l1985:
  2472  0DC1  0844               	movf	___fltol@exp1,w
  2473  0DC2  3A80               	xorlw	128
  2474  0DC3  3E97               	addlw	151
  2475  0DC4  1803               	skipnc
  2476  0DC5  2DC7               	goto	u2371
  2477  0DC6  2DC8               	goto	u2370
  2478  0DC7                     u2371:
  2479  0DC7  2DC9               	goto	l1991
  2480  0DC8                     u2370:
  2481  0DC8  2D94               	goto	l1971
  2482  0DC9                     l1991:
  2483  0DC9  3001               	movlw	1
  2484  0DCA                     u2385:
  2485  0DCA  1003               	clrc
  2486  0DCB  0CBD               	rrf	___fltol@f1+3,f
  2487  0DCC  0CBC               	rrf	___fltol@f1+2,f
  2488  0DCD  0CBB               	rrf	___fltol@f1+1,f
  2489  0DCE  0CBA               	rrf	___fltol@f1,f
  2490  0DCF  3EFF               	addlw	-1
  2491  0DD0  1D03               	skipz
  2492  0DD1  2DCA               	goto	u2385
  2493  0DD2  3001               	movlw	1
  2494  0DD3  00BE               	movwf	??___fltol
  2495  0DD4  083E               	movf	??___fltol,w
  2496  0DD5  07C4               	addwf	___fltol@exp1,f
  2497  0DD6  1D03               	btfss	3,2
  2498  0DD7  2DD9               	goto	u2391
  2499  0DD8  2DDA               	goto	u2390
  2500  0DD9                     u2391:
  2501  0DD9  2DC9               	goto	l1991
  2502  0DDA                     u2390:
  2503  0DDA  2DF2               	goto	l2001
  2504  0DDB                     l1993:
  2505  0DDB  3020               	movlw	32
  2506  0DDC  0244               	subwf	___fltol@exp1,w
  2507  0DDD  1C03               	skipc
  2508  0DDE  2DE0               	goto	u2401
  2509  0DDF  2DE1               	goto	u2400
  2510  0DE0                     u2401:
  2511  0DE0  2DED               	goto	l500
  2512  0DE1                     u2400:
  2513  0DE1  2D94               	goto	l1971
  2514  0DE2                     l1999:
  2515  0DE2  3001               	movlw	1
  2516  0DE3  00BE               	movwf	??___fltol
  2517  0DE4                     u2415:
  2518  0DE4  1003               	clrc
  2519  0DE5  0DBA               	rlf	___fltol@f1,f
  2520  0DE6  0DBB               	rlf	___fltol@f1+1,f
  2521  0DE7  0DBC               	rlf	___fltol@f1+2,f
  2522  0DE8  0DBD               	rlf	___fltol@f1+3,f
  2523  0DE9  0BBE               	decfsz	??___fltol,f
  2524  0DEA  2DE4               	goto	u2415
  2525  0DEB  3001               	movlw	1
  2526  0DEC  02C4               	subwf	___fltol@exp1,f
  2527  0DED                     l500:
  2528  0DED  0844               	movf	___fltol@exp1,w
  2529  0DEE  1D03               	btfss	3,2
  2530  0DEF  2DF1               	goto	u2421
  2531  0DF0  2DF2               	goto	u2420
  2532  0DF1                     u2421:
  2533  0DF1  2DE2               	goto	l1999
  2534  0DF2                     u2420:
  2535  0DF2                     l2001:
  2536  0DF2  0843               	movf	___fltol@sign1,w
  2537  0DF3  1903               	btfsc	3,2
  2538  0DF4  2DF6               	goto	u2431
  2539  0DF5  2DF7               	goto	u2430
  2540  0DF6                     u2431:
  2541  0DF6  2E02               	goto	l503
  2542  0DF7                     u2430:
  2543  0DF7                     l2003:
  2544  0DF7  09BA               	comf	___fltol@f1,f
  2545  0DF8  09BB               	comf	___fltol@f1+1,f
  2546  0DF9  09BC               	comf	___fltol@f1+2,f
  2547  0DFA  09BD               	comf	___fltol@f1+3,f
  2548  0DFB  0ABA               	incf	___fltol@f1,f
  2549  0DFC  1903               	skipnz
  2550  0DFD  0ABB               	incf	___fltol@f1+1,f
  2551  0DFE  1903               	skipnz
  2552  0DFF  0ABC               	incf	___fltol@f1+2,f
  2553  0E00  1903               	skipnz
  2554  0E01  0ABD               	incf	___fltol@f1+3,f
  2555  0E02                     l503:
  2556  0E02                     l493:
  2557  0E02  0008               	return
  2558  0E03                     __end_of___fltol:
  2559                           
  2560                           	psect	text7
  2561  0B8C                     __ptext7:	
  2562 ;; *************** function ___flsub *****************
  2563 ;; Defined at:
  2564 ;;		line 242 in file "C:\Program Files\Microchip\xc8\v2.31\pic\sources\c90\common\sprcadd.c"
  2565 ;; Parameters:    Size  Location     Type
  2566 ;;  a               4    8[BANK0 ] long 
  2567 ;;  b               4   12[BANK0 ] long 
  2568 ;; Auto vars:     Size  Location     Type
  2569 ;;		None
  2570 ;; Return value:  Size  Location     Type
  2571 ;;                  4    8[BANK0 ] long 
  2572 ;; Registers used:
  2573 ;;		wreg, status,2, status,0, btemp+1, pclath, cstack
  2574 ;; Tracked objects:
  2575 ;;		On entry : 0/0
  2576 ;;		On exit  : 0/0
  2577 ;;		Unchanged: 0/0
  2578 ;; Data sizes:     COMMON   BANK0   BANK1   BANK3   BANK2
  2579 ;;      Params:         0       8       0       0       0
  2580 ;;      Locals:         0       0       0       0       0
  2581 ;;      Temps:          0       0       0       0       0
  2582 ;;      Totals:         0       8       0       0       0
  2583 ;;Total ram usage:        8 bytes
  2584 ;; Hardware stack levels used:    1
  2585 ;; Hardware stack levels required when called:    1
  2586 ;; This function calls:
  2587 ;;		___fladd
  2588 ;; This function is called by:
  2589 ;;		_floToChar
  2590 ;; This function uses a non-reentrant model
  2591 ;;
  2592                           
  2593                           
  2594                           ;psect for function ___flsub
  2595  0B8C                     ___flsub:
  2596  0B8C                     l2005:	
  2597                           ;incstack = 0
  2598                           ; Regs used in ___flsub: [wreg+status,2+status,0+btemp+1+pclath+cstack]
  2599                           
  2600  0B8C  3080               	movlw	128
  2601  0B8D  1283               	bcf	3,5	;RP0=0, select bank0
  2602  0B8E  1303               	bcf	3,6	;RP1=0, select bank0
  2603  0B8F  06AB               	xorwf	___flsub@a+3,f
  2604  0B90                     l2007:
  2605  0B90  082F               	movf	___flsub@b+3,w
  2606  0B91  00F3               	movwf	___fladd@b+3
  2607  0B92  082E               	movf	___flsub@b+2,w
  2608  0B93  00F2               	movwf	___fladd@b+2
  2609  0B94  082D               	movf	___flsub@b+1,w
  2610  0B95  00F1               	movwf	___fladd@b+1
  2611  0B96  082C               	movf	___flsub@b,w
  2612  0B97  00F0               	movwf	___fladd@b
  2613  0B98  082B               	movf	___flsub@a+3,w
  2614  0B99  00F7               	movwf	___fladd@a+3
  2615  0B9A  082A               	movf	___flsub@a+2,w
  2616  0B9B  00F6               	movwf	___fladd@a+2
  2617  0B9C  0829               	movf	___flsub@a+1,w
  2618  0B9D  00F5               	movwf	___fladd@a+1
  2619  0B9E  0828               	movf	___flsub@a,w
  2620  0B9F  00F4               	movwf	___fladd@a
  2621  0BA0  120A  118A  21E4  120A  158A  	fcall	___fladd
  2622  0BA5  0873               	movf	?___fladd+3,w
  2623  0BA6  1283               	bcf	3,5	;RP0=0, select bank0
  2624  0BA7  1303               	bcf	3,6	;RP1=0, select bank0
  2625  0BA8  00AB               	movwf	?___flsub+3
  2626  0BA9  0872               	movf	?___fladd+2,w
  2627  0BAA  00AA               	movwf	?___flsub+2
  2628  0BAB  0871               	movf	?___fladd+1,w
  2629  0BAC  00A9               	movwf	?___flsub+1
  2630  0BAD  0870               	movf	?___fladd,w
  2631  0BAE  00A8               	movwf	?___flsub
  2632  0BAF                     l646:
  2633  0BAF  0008               	return
  2634  0BB0                     __end_of___flsub:
  2635                           
  2636                           	psect	text8
  2637  01E4                     __ptext8:	
  2638 ;; *************** function ___fladd *****************
  2639 ;; Defined at:
  2640 ;;		line 10 in file "C:\Program Files\Microchip\xc8\v2.31\pic\sources\c90\common\sprcadd.c"
  2641 ;; Parameters:    Size  Location     Type
  2642 ;;  b               4    0[COMMON] long 
  2643 ;;  a               4    4[COMMON] long 
  2644 ;; Auto vars:     Size  Location     Type
  2645 ;;  grs             1   11[COMMON] unsigned char 
  2646 ;;  bexp            1   10[COMMON] unsigned char 
  2647 ;;  aexp            1    9[COMMON] unsigned char 
  2648 ;;  signs           1    8[COMMON] unsigned char 
  2649 ;; Return value:  Size  Location     Type
  2650 ;;                  4    0[COMMON] unsigned char 
  2651 ;; Registers used:
  2652 ;;		wreg, status,2, status,0, btemp+1
  2653 ;; Tracked objects:
  2654 ;;		On entry : 0/0
  2655 ;;		On exit  : 0/0
  2656 ;;		Unchanged: 0/0
  2657 ;; Data sizes:     COMMON   BANK0   BANK1   BANK3   BANK2
  2658 ;;      Params:         8       0       0       0       0
  2659 ;;      Locals:         4       0       0       0       0
  2660 ;;      Temps:          0       8       0       0       0
  2661 ;;      Totals:        12       8       0       0       0
  2662 ;;Total ram usage:       20 bytes
  2663 ;; Hardware stack levels used:    1
  2664 ;; This function calls:
  2665 ;;		Nothing
  2666 ;; This function is called by:
  2667 ;;		___flsub
  2668 ;; This function uses a non-reentrant model
  2669 ;;
  2670                           
  2671                           
  2672                           ;psect for function ___fladd
  2673  01E4                     ___fladd:
  2674  01E4                     l1727:	
  2675                           ;incstack = 0
  2676                           ; Regs used in ___fladd: [wreg+status,2+status,0+btemp+1]
  2677                           
  2678  01E4  0873               	movf	___fladd@b+3,w
  2679  01E5  3980               	andlw	128
  2680  01E6  1283               	bcf	3,5	;RP0=0, select bank0
  2681  01E7  1303               	bcf	3,6	;RP1=0, select bank0
  2682  01E8  00A0               	movwf	??___fladd
  2683  01E9  0820               	movf	??___fladd,w
  2684  01EA  00F8               	movwf	___fladd@signs
  2685  01EB                     l1729:
  2686  01EB  0873               	movf	___fladd@b+3,w
  2687  01EC  00A0               	movwf	??___fladd
  2688  01ED  0720               	addwf	??___fladd,w
  2689  01EE  00A1               	movwf	??___fladd+1
  2690  01EF  0821               	movf	??___fladd+1,w
  2691  01F0  00FA               	movwf	___fladd@bexp
  2692  01F1                     l1731:
  2693  01F1  1FF2               	btfss	___fladd@b+2,7
  2694  01F2  29F4               	goto	u1801
  2695  01F3  29F5               	goto	u1800
  2696  01F4                     u1801:
  2697  01F4  29F6               	goto	l1735
  2698  01F5                     u1800:
  2699  01F5                     l1733:
  2700  01F5  147A               	bsf	___fladd@bexp,0
  2701  01F6                     l1735:
  2702  01F6  087A               	movf	___fladd@bexp,w
  2703  01F7  1903               	btfsc	3,2
  2704  01F8  29FA               	goto	u1811
  2705  01F9  29FB               	goto	u1810
  2706  01FA                     u1811:
  2707  01FA  2A0B               	goto	l1745
  2708  01FB                     u1810:
  2709  01FB                     l1737:
  2710  01FB  0A7A               	incf	___fladd@bexp,w
  2711  01FC  1D03               	btfss	3,2
  2712  01FD  29FF               	goto	u1821
  2713  01FE  2A00               	goto	u1820
  2714  01FF                     u1821:
  2715  01FF  2A08               	goto	l1741
  2716  0200                     u1820:
  2717  0200                     l1739:
  2718  0200  3000               	movlw	0
  2719  0201  00F3               	movwf	___fladd@b+3
  2720  0202  3000               	movlw	0
  2721  0203  00F2               	movwf	___fladd@b+2
  2722  0204  3000               	movlw	0
  2723  0205  00F1               	movwf	___fladd@b+1
  2724  0206  3000               	movlw	0
  2725  0207  00F0               	movwf	___fladd@b
  2726  0208                     l1741:
  2727  0208  17F2               	bsf	___fladd@b+2,7
  2728  0209                     l1743:
  2729  0209  01F3               	clrf	___fladd@b+3
  2730  020A  2A13               	goto	l1747
  2731  020B                     l1745:
  2732  020B  3000               	movlw	0
  2733  020C  00F3               	movwf	___fladd@b+3
  2734  020D  3000               	movlw	0
  2735  020E  00F2               	movwf	___fladd@b+2
  2736  020F  3000               	movlw	0
  2737  0210  00F1               	movwf	___fladd@b+1
  2738  0211  3000               	movlw	0
  2739  0212  00F0               	movwf	___fladd@b
  2740  0213                     l1747:
  2741  0213  0877               	movf	___fladd@a+3,w
  2742  0214  3980               	andlw	128
  2743  0215  00A0               	movwf	??___fladd
  2744  0216  0820               	movf	??___fladd,w
  2745  0217  00F9               	movwf	___fladd@aexp
  2746  0218                     l1749:
  2747  0218  0879               	movf	___fladd@aexp,w
  2748  0219  0678               	xorwf	___fladd@signs,w
  2749  021A  1903               	skipnz
  2750  021B  2A1D               	goto	u1831
  2751  021C  2A1E               	goto	u1830
  2752  021D                     u1831:
  2753  021D  2A1F               	goto	l1753
  2754  021E                     u1830:
  2755  021E                     l1751:
  2756  021E  1778               	bsf	___fladd@signs,6
  2757  021F                     l1753:
  2758  021F  0877               	movf	___fladd@a+3,w
  2759  0220  00A0               	movwf	??___fladd
  2760  0221  0720               	addwf	??___fladd,w
  2761  0222  00A1               	movwf	??___fladd+1
  2762  0223  0821               	movf	??___fladd+1,w
  2763  0224  00F9               	movwf	___fladd@aexp
  2764  0225                     l1755:
  2765  0225  1FF6               	btfss	___fladd@a+2,7
  2766  0226  2A28               	goto	u1841
  2767  0227  2A29               	goto	u1840
  2768  0228                     u1841:
  2769  0228  2A2A               	goto	l1759
  2770  0229                     u1840:
  2771  0229                     l1757:
  2772  0229  1479               	bsf	___fladd@aexp,0
  2773  022A                     l1759:
  2774  022A  0879               	movf	___fladd@aexp,w
  2775  022B  1903               	btfsc	3,2
  2776  022C  2A2E               	goto	u1851
  2777  022D  2A2F               	goto	u1850
  2778  022E                     u1851:
  2779  022E  2A3F               	goto	l1769
  2780  022F                     u1850:
  2781  022F                     l1761:
  2782  022F  0A79               	incf	___fladd@aexp,w
  2783  0230  1D03               	btfss	3,2
  2784  0231  2A33               	goto	u1861
  2785  0232  2A34               	goto	u1860
  2786  0233                     u1861:
  2787  0233  2A3C               	goto	l1765
  2788  0234                     u1860:
  2789  0234                     l1763:
  2790  0234  3000               	movlw	0
  2791  0235  00F7               	movwf	___fladd@a+3
  2792  0236  3000               	movlw	0
  2793  0237  00F6               	movwf	___fladd@a+2
  2794  0238  3000               	movlw	0
  2795  0239  00F5               	movwf	___fladd@a+1
  2796  023A  3000               	movlw	0
  2797  023B  00F4               	movwf	___fladd@a
  2798  023C                     l1765:
  2799  023C  17F6               	bsf	___fladd@a+2,7
  2800  023D                     l1767:
  2801  023D  01F7               	clrf	___fladd@a+3
  2802  023E  2A47               	goto	l600
  2803  023F                     l1769:
  2804  023F  3000               	movlw	0
  2805  0240  00F7               	movwf	___fladd@a+3
  2806  0241  3000               	movlw	0
  2807  0242  00F6               	movwf	___fladd@a+2
  2808  0243  3000               	movlw	0
  2809  0244  00F5               	movwf	___fladd@a+1
  2810  0245  3000               	movlw	0
  2811  0246  00F4               	movwf	___fladd@a
  2812  0247                     l600:
  2813  0247  087A               	movf	___fladd@bexp,w
  2814  0248  0279               	subwf	___fladd@aexp,w
  2815  0249  1803               	skipnc
  2816  024A  2A4C               	goto	u1871
  2817  024B  2A4D               	goto	u1870
  2818  024C                     u1871:
  2819  024C  2A91               	goto	l1805
  2820  024D                     u1870:
  2821  024D                     l1771:
  2822  024D  1F78               	btfss	___fladd@signs,6
  2823  024E  2A50               	goto	u1881
  2824  024F  2A51               	goto	u1880
  2825  0250                     u1881:
  2826  0250  2A55               	goto	l1775
  2827  0251                     u1880:
  2828  0251                     l1773:
  2829  0251  3080               	movlw	128
  2830  0252  00A0               	movwf	??___fladd
  2831  0253  0820               	movf	??___fladd,w
  2832  0254  06F8               	xorwf	___fladd@signs,f
  2833  0255                     l1775:
  2834  0255  087A               	movf	___fladd@bexp,w
  2835  0256  00A0               	movwf	??___fladd
  2836  0257  0820               	movf	??___fladd,w
  2837  0258  00FB               	movwf	___fladd@grs
  2838  0259                     l1777:
  2839  0259  0879               	movf	___fladd@aexp,w
  2840  025A  00A0               	movwf	??___fladd
  2841  025B  0820               	movf	??___fladd,w
  2842  025C  00FA               	movwf	___fladd@bexp
  2843  025D                     l1779:
  2844  025D  087B               	movf	___fladd@grs,w
  2845  025E  00A0               	movwf	??___fladd
  2846  025F  0820               	movf	??___fladd,w
  2847  0260  00F9               	movwf	___fladd@aexp
  2848  0261                     l1781:
  2849  0261  0870               	movf	___fladd@b,w
  2850  0262  00A0               	movwf	??___fladd
  2851  0263  0820               	movf	??___fladd,w
  2852  0264  00FB               	movwf	___fladd@grs
  2853  0265                     l1783:
  2854  0265  0874               	movf	___fladd@a,w
  2855  0266  00A0               	movwf	??___fladd
  2856  0267  0820               	movf	??___fladd,w
  2857  0268  00F0               	movwf	___fladd@b
  2858  0269                     l1785:
  2859  0269  087B               	movf	___fladd@grs,w
  2860  026A  00A0               	movwf	??___fladd
  2861  026B  0820               	movf	??___fladd,w
  2862  026C  00F4               	movwf	___fladd@a
  2863  026D                     l1787:
  2864  026D  0871               	movf	___fladd@b+1,w
  2865  026E  00A0               	movwf	??___fladd
  2866  026F  0820               	movf	??___fladd,w
  2867  0270  00FB               	movwf	___fladd@grs
  2868  0271                     l1789:
  2869  0271  0875               	movf	___fladd@a+1,w
  2870  0272  00A0               	movwf	??___fladd
  2871  0273  0820               	movf	??___fladd,w
  2872  0274  00F1               	movwf	___fladd@b+1
  2873  0275                     l1791:
  2874  0275  087B               	movf	___fladd@grs,w
  2875  0276  00A0               	movwf	??___fladd
  2876  0277  0820               	movf	??___fladd,w
  2877  0278  00F5               	movwf	___fladd@a+1
  2878  0279                     l1793:
  2879  0279  0872               	movf	___fladd@b+2,w
  2880  027A  00A0               	movwf	??___fladd
  2881  027B  0820               	movf	??___fladd,w
  2882  027C  00FB               	movwf	___fladd@grs
  2883  027D                     l1795:
  2884  027D  0876               	movf	___fladd@a+2,w
  2885  027E  00A0               	movwf	??___fladd
  2886  027F  0820               	movf	??___fladd,w
  2887  0280  00F2               	movwf	___fladd@b+2
  2888  0281                     l1797:
  2889  0281  087B               	movf	___fladd@grs,w
  2890  0282  00A0               	movwf	??___fladd
  2891  0283  0820               	movf	??___fladd,w
  2892  0284  00F6               	movwf	___fladd@a+2
  2893  0285                     l1799:
  2894  0285  0873               	movf	___fladd@b+3,w
  2895  0286  00A0               	movwf	??___fladd
  2896  0287  0820               	movf	??___fladd,w
  2897  0288  00FB               	movwf	___fladd@grs
  2898  0289                     l1801:
  2899  0289  0877               	movf	___fladd@a+3,w
  2900  028A  00A0               	movwf	??___fladd
  2901  028B  0820               	movf	??___fladd,w
  2902  028C  00F3               	movwf	___fladd@b+3
  2903  028D                     l1803:
  2904  028D  087B               	movf	___fladd@grs,w
  2905  028E  00A0               	movwf	??___fladd
  2906  028F  0820               	movf	??___fladd,w
  2907  0290  00F7               	movwf	___fladd@a+3
  2908  0291                     l1805:
  2909  0291  01FB               	clrf	___fladd@grs
  2910  0292                     l1807:
  2911  0292  0879               	movf	___fladd@aexp,w
  2912  0293  00A0               	movwf	??___fladd
  2913  0294  01A1               	clrf	??___fladd+1
  2914  0295  0821               	movf	??___fladd+1,w
  2915  0296  00A3               	movwf	??___fladd+3
  2916  0297  087A               	movf	___fladd@bexp,w
  2917  0298  0220               	subwf	??___fladd,w
  2918  0299  00A2               	movwf	??___fladd+2
  2919  029A  1C03               	skipc
  2920  029B  03A3               	decf	??___fladd+3,f
  2921  029C  0823               	movf	??___fladd+3,w
  2922  029D  3A80               	xorlw	128
  2923  029E  00FF               	movwf	btemp+1
  2924  029F  3080               	movlw	128
  2925  02A0  027F               	subwf	btemp+1,w
  2926  02A1  1D03               	skipz
  2927  02A2  2AA5               	goto	u1895
  2928  02A3  301A               	movlw	26
  2929  02A4  0222               	subwf	??___fladd+2,w
  2930  02A5                     u1895:
  2931  02A5  1C03               	skipc
  2932  02A6  2AA8               	goto	u1891
  2933  02A7  2AA9               	goto	u1890
  2934  02A8                     u1891:
  2935  02A8  2AEA               	goto	l1823
  2936  02A9                     u1890:
  2937  02A9                     l1809:
  2938  02A9  0873               	movf	___fladd@b+3,w
  2939  02AA  0472               	iorwf	___fladd@b+2,w
  2940  02AB  0471               	iorwf	___fladd@b+1,w
  2941  02AC  0470               	iorwf	___fladd@b,w
  2942  02AD  1D03               	skipz
  2943  02AE  2AB0               	goto	u1901
  2944  02AF  2AB2               	goto	u1900
  2945  02B0                     u1901:
  2946  02B0  3001               	movlw	1
  2947  02B1  2AB3               	goto	u1910
  2948  02B2                     u1900:
  2949  02B2  3000               	movlw	0
  2950  02B3                     u1910:
  2951  02B3  1283               	bcf	3,5	;RP0=0, select bank0
  2952  02B4  1303               	bcf	3,6	;RP1=0, select bank0
  2953  02B5  00A0               	movwf	??___fladd
  2954  02B6  0820               	movf	??___fladd,w
  2955  02B7  00FB               	movwf	___fladd@grs
  2956  02B8  3000               	movlw	0
  2957  02B9  00F3               	movwf	___fladd@b+3
  2958  02BA  3000               	movlw	0
  2959  02BB  00F2               	movwf	___fladd@b+2
  2960  02BC  3000               	movlw	0
  2961  02BD  00F1               	movwf	___fladd@b+1
  2962  02BE  3000               	movlw	0
  2963  02BF  00F0               	movwf	___fladd@b
  2964  02C0  0879               	movf	___fladd@aexp,w
  2965  02C1  00A0               	movwf	??___fladd
  2966  02C2  0820               	movf	??___fladd,w
  2967  02C3  00FA               	movwf	___fladd@bexp
  2968  02C4  2AF0               	goto	l604
  2969  02C5                     l606:
  2970  02C5  1C7B               	btfss	___fladd@grs,0
  2971  02C6  2AC8               	goto	u1921
  2972  02C7  2AC9               	goto	u1920
  2973  02C8                     u1921:
  2974  02C8  2AD4               	goto	l1813
  2975  02C9                     u1920:
  2976  02C9                     l1811:
  2977  02C9  087B               	movf	___fladd@grs,w
  2978  02CA  1283               	bcf	3,5	;RP0=0, select bank0
  2979  02CB  1303               	bcf	3,6	;RP1=0, select bank0
  2980  02CC  00A0               	movwf	??___fladd
  2981  02CD  1003               	clrc
  2982  02CE  0C20               	rrf	??___fladd,w
  2983  02CF  3801               	iorlw	1
  2984  02D0  00A1               	movwf	??___fladd+1
  2985  02D1  0821               	movf	??___fladd+1,w
  2986  02D2  00FB               	movwf	___fladd@grs
  2987  02D3  2AD6               	goto	l1815
  2988  02D4                     l1813:
  2989  02D4  1003               	clrc
  2990  02D5  0CFB               	rrf	___fladd@grs,f
  2991  02D6                     l1815:
  2992  02D6  1C70               	btfss	___fladd@b,0
  2993  02D7  2AD9               	goto	u1931
  2994  02D8  2ADA               	goto	u1930
  2995  02D9                     u1931:
  2996  02D9  2ADB               	goto	l1819
  2997  02DA                     u1930:
  2998  02DA                     l1817:
  2999  02DA  17FB               	bsf	___fladd@grs,7
  3000  02DB                     l1819:
  3001  02DB  3001               	movlw	1
  3002  02DC  1283               	bcf	3,5	;RP0=0, select bank0
  3003  02DD  1303               	bcf	3,6	;RP1=0, select bank0
  3004  02DE  00A0               	movwf	??___fladd
  3005  02DF                     u1945:
  3006  02DF  0D73               	rlf	___fladd@b+3,w
  3007  02E0  0CF3               	rrf	___fladd@b+3,f
  3008  02E1  0CF2               	rrf	___fladd@b+2,f
  3009  02E2  0CF1               	rrf	___fladd@b+1,f
  3010  02E3  0CF0               	rrf	___fladd@b,f
  3011  02E4  0BA0               	decfsz	??___fladd& (0+127),f
  3012  02E5  2ADF               	goto	u1945
  3013  02E6                     l1821:
  3014  02E6  3001               	movlw	1
  3015  02E7  00A0               	movwf	??___fladd
  3016  02E8  0820               	movf	??___fladd,w
  3017  02E9  07FA               	addwf	___fladd@bexp,f
  3018  02EA                     l1823:
  3019  02EA  0879               	movf	___fladd@aexp,w
  3020  02EB  027A               	subwf	___fladd@bexp,w
  3021  02EC  1C03               	skipc
  3022  02ED  2AEF               	goto	u1951
  3023  02EE  2AF0               	goto	u1950
  3024  02EF                     u1951:
  3025  02EF  2AC5               	goto	l606
  3026  02F0                     u1950:
  3027  02F0                     l604:
  3028  02F0  1B78               	btfsc	___fladd@signs,6
  3029  02F1  2AF3               	goto	u1961
  3030  02F2  2AF4               	goto	u1960
  3031  02F3                     u1961:
  3032  02F3  2B43               	goto	l1849
  3033  02F4                     u1960:
  3034  02F4                     l1825:
  3035  02F4  087A               	movf	___fladd@bexp,w
  3036  02F5  1D03               	btfss	3,2
  3037  02F6  2AF8               	goto	u1971
  3038  02F7  2AF9               	goto	u1970
  3039  02F8                     u1971:
  3040  02F8  2B02               	goto	l1831
  3041  02F9                     u1970:
  3042  02F9                     l1827:
  3043  02F9  3000               	movlw	0
  3044  02FA  00F3               	movwf	?___fladd+3
  3045  02FB  3000               	movlw	0
  3046  02FC  00F2               	movwf	?___fladd+2
  3047  02FD  3000               	movlw	0
  3048  02FE  00F1               	movwf	?___fladd+1
  3049  02FF  3000               	movlw	0
  3050  0300  00F0               	movwf	?___fladd
  3051  0301  2C7B               	goto	l613
  3052  0302                     l1831:
  3053  0302  0874               	movf	___fladd@a,w
  3054  0303  07F0               	addwf	___fladd@b,f
  3055  0304  0875               	movf	___fladd@a+1,w
  3056  0305  1103               	clrz
  3057  0306  1803               	skipnc
  3058  0307  3E01               	addlw	1
  3059  0308  1903               	skipnz
  3060  0309  2B0B               	goto	u1981
  3061  030A  07F1               	addwf	___fladd@b+1,f
  3062  030B                     u1981:
  3063  030B  0876               	movf	___fladd@a+2,w
  3064  030C  1103               	clrz
  3065  030D  1803               	skipnc
  3066  030E  3E01               	addlw	1
  3067  030F  1903               	skipnz
  3068  0310  2B12               	goto	u1982
  3069  0311  07F2               	addwf	___fladd@b+2,f
  3070  0312                     u1982:
  3071  0312  0877               	movf	___fladd@a+3,w
  3072  0313  1103               	clrz
  3073  0314  1803               	skipnc
  3074  0315  3E01               	addlw	1
  3075  0316  1903               	skipnz
  3076  0317  2B19               	goto	u1983
  3077  0318  07F3               	addwf	___fladd@b+3,f
  3078  0319                     u1983:
  3079  0319                     l1833:
  3080  0319  1C73               	btfss	___fladd@b+3,0
  3081  031A  2B1C               	goto	u1991
  3082  031B  2B1D               	goto	u1990
  3083  031C                     u1991:
  3084  031C  2BFB               	goto	l1883
  3085  031D                     u1990:
  3086  031D                     l1835:
  3087  031D  1C7B               	btfss	___fladd@grs,0
  3088  031E  2B20               	goto	u2001
  3089  031F  2B21               	goto	u2000
  3090  0320                     u2001:
  3091  0320  2B2C               	goto	l1839
  3092  0321                     u2000:
  3093  0321                     l1837:
  3094  0321  087B               	movf	___fladd@grs,w
  3095  0322  1283               	bcf	3,5	;RP0=0, select bank0
  3096  0323  1303               	bcf	3,6	;RP1=0, select bank0
  3097  0324  00A0               	movwf	??___fladd
  3098  0325  1003               	clrc
  3099  0326  0C20               	rrf	??___fladd,w
  3100  0327  3801               	iorlw	1
  3101  0328  00A1               	movwf	??___fladd+1
  3102  0329  0821               	movf	??___fladd+1,w
  3103  032A  00FB               	movwf	___fladd@grs
  3104  032B  2B2E               	goto	l1841
  3105  032C                     l1839:
  3106  032C  1003               	clrc
  3107  032D  0CFB               	rrf	___fladd@grs,f
  3108  032E                     l1841:
  3109  032E  1C70               	btfss	___fladd@b,0
  3110  032F  2B31               	goto	u2011
  3111  0330  2B32               	goto	u2010
  3112  0331                     u2011:
  3113  0331  2B33               	goto	l1845
  3114  0332                     u2010:
  3115  0332                     l1843:
  3116  0332  17FB               	bsf	___fladd@grs,7
  3117  0333                     l1845:
  3118  0333  3001               	movlw	1
  3119  0334  1283               	bcf	3,5	;RP0=0, select bank0
  3120  0335  1303               	bcf	3,6	;RP1=0, select bank0
  3121  0336  00A0               	movwf	??___fladd
  3122  0337                     u2025:
  3123  0337  0D73               	rlf	___fladd@b+3,w
  3124  0338  0CF3               	rrf	___fladd@b+3,f
  3125  0339  0CF2               	rrf	___fladd@b+2,f
  3126  033A  0CF1               	rrf	___fladd@b+1,f
  3127  033B  0CF0               	rrf	___fladd@b,f
  3128  033C  0BA0               	decfsz	??___fladd& (0+127),f
  3129  033D  2B37               	goto	u2025
  3130  033E                     l1847:
  3131  033E  3001               	movlw	1
  3132  033F  00A0               	movwf	??___fladd
  3133  0340  0820               	movf	??___fladd,w
  3134  0341  07FA               	addwf	___fladd@bexp,f
  3135  0342  2BFB               	goto	l1883
  3136  0343                     l1849:
  3137  0343  0873               	movf	___fladd@b+3,w
  3138  0344  3A80               	xorlw	128
  3139  0345  00FF               	movwf	btemp+1
  3140  0346  0877               	movf	___fladd@a+3,w
  3141  0347  3A80               	xorlw	128
  3142  0348  027F               	subwf	btemp+1,w
  3143  0349  1D03               	skipz
  3144  034A  2B55               	goto	u2033
  3145  034B  0876               	movf	___fladd@a+2,w
  3146  034C  0272               	subwf	___fladd@b+2,w
  3147  034D  1D03               	skipz
  3148  034E  2B55               	goto	u2033
  3149  034F  0875               	movf	___fladd@a+1,w
  3150  0350  0271               	subwf	___fladd@b+1,w
  3151  0351  1D03               	skipz
  3152  0352  2B55               	goto	u2033
  3153  0353  0874               	movf	___fladd@a,w
  3154  0354  0270               	subwf	___fladd@b,w
  3155  0355                     u2033:
  3156  0355  1803               	skipnc
  3157  0356  2B58               	goto	u2031
  3158  0357  2B59               	goto	u2030
  3159  0358                     u2031:
  3160  0358  2BB3               	goto	l1859
  3161  0359                     u2030:
  3162  0359                     l1851:
  3163  0359  30FF               	movlw	255
  3164  035A  1283               	bcf	3,5	;RP0=0, select bank0
  3165  035B  1303               	bcf	3,6	;RP1=0, select bank0
  3166  035C  00A0               	movwf	??___fladd
  3167  035D  30FF               	movlw	255
  3168  035E  00A1               	movwf	??___fladd+1
  3169  035F  30FF               	movlw	255
  3170  0360  00A2               	movwf	??___fladd+2
  3171  0361  30FF               	movlw	255
  3172  0362  00A3               	movwf	??___fladd+3
  3173  0363  0874               	movf	___fladd@a,w
  3174  0364  00A4               	movwf	??___fladd+4
  3175  0365  0875               	movf	___fladd@a+1,w
  3176  0366  00A5               	movwf	??___fladd+5
  3177  0367  0876               	movf	___fladd@a+2,w
  3178  0368  00A6               	movwf	??___fladd+6
  3179  0369  0877               	movf	___fladd@a+3,w
  3180  036A  00A7               	movwf	??___fladd+7
  3181  036B  0870               	movf	___fladd@b,w
  3182  036C  02A4               	subwf	??___fladd+4,f
  3183  036D  0871               	movf	___fladd@b+1,w
  3184  036E  1C03               	skipc
  3185  036F  0F71               	incfsz	___fladd@b+1,w
  3186  0370  2B72               	goto	u2041
  3187  0371  2B73               	goto	u2042
  3188  0372                     u2041:
  3189  0372  02A5               	subwf	??___fladd+5,f
  3190  0373                     u2042:
  3191  0373  0872               	movf	___fladd@b+2,w
  3192  0374  1C03               	skipc
  3193  0375  0F72               	incfsz	___fladd@b+2,w
  3194  0376  2B78               	goto	u2043
  3195  0377  2B79               	goto	u2044
  3196  0378                     u2043:
  3197  0378  02A6               	subwf	??___fladd+6,f
  3198  0379                     u2044:
  3199  0379  0873               	movf	___fladd@b+3,w
  3200  037A  1C03               	skipc
  3201  037B  0F73               	incfsz	___fladd@b+3,w
  3202  037C  2B7E               	goto	u2045
  3203  037D  2B7F               	goto	u2046
  3204  037E                     u2045:
  3205  037E  02A7               	subwf	??___fladd+7,f
  3206  037F                     u2046:
  3207  037F  0824               	movf	??___fladd+4,w
  3208  0380  07A0               	addwf	??___fladd,f
  3209  0381  0825               	movf	??___fladd+5,w
  3210  0382  1803               	skipnc
  3211  0383  0F25               	incfsz	??___fladd+5,w
  3212  0384  2B86               	goto	u2050
  3213  0385  2B87               	goto	u2051
  3214  0386                     u2050:
  3215  0386  07A1               	addwf	??___fladd+1,f
  3216  0387                     u2051:
  3217  0387  0826               	movf	??___fladd+6,w
  3218  0388  1803               	skipnc
  3219  0389  0F26               	incfsz	??___fladd+6,w
  3220  038A  2B8C               	goto	u2052
  3221  038B  2B8D               	goto	u2053
  3222  038C                     u2052:
  3223  038C  07A2               	addwf	??___fladd+2,f
  3224  038D                     u2053:
  3225  038D  0827               	movf	??___fladd+7,w
  3226  038E  1803               	skipnc
  3227  038F  0A27               	incf	??___fladd+7,w
  3228  0390  07A3               	addwf	??___fladd+3,f
  3229  0391  0823               	movf	??___fladd+3,w
  3230  0392  00F3               	movwf	___fladd@b+3
  3231  0393  0822               	movf	??___fladd+2,w
  3232  0394  00F2               	movwf	___fladd@b+2
  3233  0395  0821               	movf	??___fladd+1,w
  3234  0396  00F1               	movwf	___fladd@b+1
  3235  0397  0820               	movf	??___fladd,w
  3236  0398  00F0               	movwf	___fladd@b
  3237  0399                     l1853:
  3238  0399  3080               	movlw	128
  3239  039A  00A0               	movwf	??___fladd
  3240  039B  0820               	movf	??___fladd,w
  3241  039C  06F8               	xorwf	___fladd@signs,f
  3242  039D  09FB               	comf	___fladd@grs,f
  3243  039E  0AFB               	incf	___fladd@grs,f
  3244  039F                     l1855:
  3245  039F  087B               	movf	___fladd@grs,w
  3246  03A0  1D03               	btfss	3,2
  3247  03A1  2BA3               	goto	u2061
  3248  03A2  2BA4               	goto	u2060
  3249  03A3                     u2061:
  3250  03A3  2BC1               	goto	l621
  3251  03A4                     u2060:
  3252  03A4                     l1857:
  3253  03A4  3001               	movlw	1
  3254  03A5  07F0               	addwf	___fladd@b,f
  3255  03A6  3000               	movlw	0
  3256  03A7  1803               	skipnc
  3257  03A8  3001               	movlw	1
  3258  03A9  07F1               	addwf	___fladd@b+1,f
  3259  03AA  3000               	movlw	0
  3260  03AB  1803               	skipnc
  3261  03AC  3001               	movlw	1
  3262  03AD  07F2               	addwf	___fladd@b+2,f
  3263  03AE  3000               	movlw	0
  3264  03AF  1803               	skipnc
  3265  03B0  3001               	movlw	1
  3266  03B1  07F3               	addwf	___fladd@b+3,f
  3267  03B2  2BC1               	goto	l621
  3268  03B3                     l1859:
  3269  03B3  0874               	movf	___fladd@a,w
  3270  03B4  02F0               	subwf	___fladd@b,f
  3271  03B5  0875               	movf	___fladd@a+1,w
  3272  03B6  1C03               	skipc
  3273  03B7  0F75               	incfsz	___fladd@a+1,w
  3274  03B8  02F1               	subwf	___fladd@b+1,f
  3275  03B9  0876               	movf	___fladd@a+2,w
  3276  03BA  1C03               	skipc
  3277  03BB  0F76               	incfsz	___fladd@a+2,w
  3278  03BC  02F2               	subwf	___fladd@b+2,f
  3279  03BD  0877               	movf	___fladd@a+3,w
  3280  03BE  1C03               	skipc
  3281  03BF  0F77               	incfsz	___fladd@a+3,w
  3282  03C0  02F3               	subwf	___fladd@b+3,f
  3283  03C1                     l621:
  3284  03C1  0873               	movf	___fladd@b+3,w
  3285  03C2  0472               	iorwf	___fladd@b+2,w
  3286  03C3  0471               	iorwf	___fladd@b+1,w
  3287  03C4  0470               	iorwf	___fladd@b,w
  3288  03C5  1D03               	skipz
  3289  03C6  2BC8               	goto	u2071
  3290  03C7  2BC9               	goto	u2070
  3291  03C8                     u2071:
  3292  03C8  2BF7               	goto	l1881
  3293  03C9                     u2070:
  3294  03C9                     l1861:
  3295  03C9  087B               	movf	___fladd@grs,w
  3296  03CA  1D03               	btfss	3,2
  3297  03CB  2BCD               	goto	u2081
  3298  03CC  2BCE               	goto	u2080
  3299  03CD                     u2081:
  3300  03CD  2BF7               	goto	l1881
  3301  03CE                     u2080:
  3302  03CE                     l1863:
  3303  03CE  3000               	movlw	0
  3304  03CF  00F3               	movwf	?___fladd+3
  3305  03D0  3000               	movlw	0
  3306  03D1  00F2               	movwf	?___fladd+2
  3307  03D2  3000               	movlw	0
  3308  03D3  00F1               	movwf	?___fladd+1
  3309  03D4  3000               	movlw	0
  3310  03D5  00F0               	movwf	?___fladd
  3311  03D6  2C7B               	goto	l613
  3312  03D7                     l1867:
  3313  03D7  3001               	movlw	1
  3314  03D8  1283               	bcf	3,5	;RP0=0, select bank0
  3315  03D9  1303               	bcf	3,6	;RP1=0, select bank0
  3316  03DA  00A0               	movwf	??___fladd
  3317  03DB                     u2095:
  3318  03DB  1003               	clrc
  3319  03DC  0DF0               	rlf	___fladd@b,f
  3320  03DD  0DF1               	rlf	___fladd@b+1,f
  3321  03DE  0DF2               	rlf	___fladd@b+2,f
  3322  03DF  0DF3               	rlf	___fladd@b+3,f
  3323  03E0  0BA0               	decfsz	??___fladd,f
  3324  03E1  2BDB               	goto	u2095
  3325  03E2                     l1869:
  3326  03E2  1FFB               	btfss	___fladd@grs,7
  3327  03E3  2BE5               	goto	u2101
  3328  03E4  2BE6               	goto	u2100
  3329  03E5                     u2101:
  3330  03E5  2BE7               	goto	l625
  3331  03E6                     u2100:
  3332  03E6                     l1871:
  3333  03E6  1470               	bsf	___fladd@b,0
  3334  03E7                     l625:
  3335  03E7  1C7B               	btfss	___fladd@grs,0
  3336  03E8  2BEA               	goto	u2111
  3337  03E9  2BEB               	goto	u2110
  3338  03EA                     u2111:
  3339  03EA  2BEE               	goto	l1875
  3340  03EB                     u2110:
  3341  03EB                     l1873:
  3342  03EB  1403               	setc
  3343  03EC  0DFB               	rlf	___fladd@grs,f
  3344  03ED  2BF0               	goto	l1877
  3345  03EE                     l1875:
  3346  03EE  1003               	clrc
  3347  03EF  0DFB               	rlf	___fladd@grs,f
  3348  03F0                     l1877:
  3349  03F0  087A               	movf	___fladd@bexp,w
  3350  03F1  1903               	btfsc	3,2
  3351  03F2  2BF4               	goto	u2121
  3352  03F3  2BF5               	goto	u2120
  3353  03F4                     u2121:
  3354  03F4  2BF7               	goto	l1881
  3355  03F5                     u2120:
  3356  03F5                     l1879:
  3357  03F5  3001               	movlw	1
  3358  03F6  02FA               	subwf	___fladd@bexp,f
  3359  03F7                     l1881:
  3360  03F7  1FF2               	btfss	___fladd@b+2,7
  3361  03F8  2BFA               	goto	u2131
  3362  03F9  2BFB               	goto	u2130
  3363  03FA                     u2131:
  3364  03FA  2BD7               	goto	l1867
  3365  03FB                     u2130:
  3366  03FB                     l1883:
  3367  03FB  01F9               	clrf	___fladd@aexp
  3368  03FC                     l1885:
  3369  03FC  1FFB               	btfss	___fladd@grs,7
  3370  03FD  2BFF               	goto	u2141
  3371  03FE  2C00               	goto	u2140
  3372  03FF                     u2141:
  3373  03FF  2C0E               	goto	l1893
  3374  0400                     u2140:
  3375  0400                     l1887:
  3376  0400  087B               	movf	___fladd@grs,w
  3377  0401  397F               	andlw	127
  3378  0402  1903               	btfsc	3,2
  3379  0403  2C05               	goto	u2151
  3380  0404  2C06               	goto	u2150
  3381  0405                     u2151:
  3382  0405  2C09               	goto	l631
  3383  0406                     u2150:
  3384  0406                     l1889:
  3385  0406  01F9               	clrf	___fladd@aexp
  3386  0407  0AF9               	incf	___fladd@aexp,f
  3387  0408  2C0E               	goto	l1893
  3388  0409                     l631:
  3389  0409  1C70               	btfss	___fladd@b,0
  3390  040A  2C0C               	goto	u2161
  3391  040B  2C0D               	goto	u2160
  3392  040C                     u2161:
  3393  040C  2C0E               	goto	l1893
  3394  040D                     u2160:
  3395  040D  2C06               	goto	l1889
  3396  040E                     l1893:
  3397  040E  0879               	movf	___fladd@aexp,w
  3398  040F  1903               	btfsc	3,2
  3399  0410  2C12               	goto	u2171
  3400  0411  2C13               	goto	u2170
  3401  0412                     u2171:
  3402  0412  2C49               	goto	l634
  3403  0413                     u2170:
  3404  0413                     l1895:
  3405  0413  3001               	movlw	1
  3406  0414  07F0               	addwf	___fladd@b,f
  3407  0415  3000               	movlw	0
  3408  0416  1803               	skipnc
  3409  0417  3001               	movlw	1
  3410  0418  07F1               	addwf	___fladd@b+1,f
  3411  0419  3000               	movlw	0
  3412  041A  1803               	skipnc
  3413  041B  3001               	movlw	1
  3414  041C  07F2               	addwf	___fladd@b+2,f
  3415  041D  3000               	movlw	0
  3416  041E  1803               	skipnc
  3417  041F  3001               	movlw	1
  3418  0420  07F3               	addwf	___fladd@b+3,f
  3419  0421                     l1897:
  3420  0421  1C73               	btfss	___fladd@b+3,0
  3421  0422  2C24               	goto	u2181
  3422  0423  2C25               	goto	u2180
  3423  0424                     u2181:
  3424  0424  2C49               	goto	l634
  3425  0425                     u2180:
  3426  0425                     l1899:
  3427  0425  0870               	movf	___fladd@b,w
  3428  0426  1283               	bcf	3,5	;RP0=0, select bank0
  3429  0427  1303               	bcf	3,6	;RP1=0, select bank0
  3430  0428  00A0               	movwf	??___fladd
  3431  0429  0871               	movf	___fladd@b+1,w
  3432  042A  00A1               	movwf	??___fladd+1
  3433  042B  0872               	movf	___fladd@b+2,w
  3434  042C  00A2               	movwf	??___fladd+2
  3435  042D  0873               	movf	___fladd@b+3,w
  3436  042E  00A3               	movwf	??___fladd+3
  3437  042F  3001               	movlw	1
  3438  0430  00A4               	movwf	??___fladd+4
  3439  0431                     u2195:
  3440  0431  0D23               	rlf	??___fladd+3,w
  3441  0432  0CA3               	rrf	??___fladd+3,f
  3442  0433  0CA2               	rrf	??___fladd+2,f
  3443  0434  0CA1               	rrf	??___fladd+1,f
  3444  0435  0CA0               	rrf	??___fladd,f
  3445  0436                     u2190:
  3446  0436  0BA4               	decfsz	??___fladd+4,f
  3447  0437  2C31               	goto	u2195
  3448  0438  0823               	movf	??___fladd+3,w
  3449  0439  00F3               	movwf	___fladd@b+3
  3450  043A  0822               	movf	??___fladd+2,w
  3451  043B  00F2               	movwf	___fladd@b+2
  3452  043C  0821               	movf	??___fladd+1,w
  3453  043D  00F1               	movwf	___fladd@b+1
  3454  043E  0820               	movf	??___fladd,w
  3455  043F  00F0               	movwf	___fladd@b
  3456  0440  0A7A               	incf	___fladd@bexp,w
  3457  0441  1903               	btfsc	3,2
  3458  0442  2C44               	goto	u2201
  3459  0443  2C45               	goto	u2200
  3460  0444                     u2201:
  3461  0444  2C49               	goto	l634
  3462  0445                     u2200:
  3463  0445                     l1901:
  3464  0445  3001               	movlw	1
  3465  0446  00A0               	movwf	??___fladd
  3466  0447  0820               	movf	??___fladd,w
  3467  0448  07FA               	addwf	___fladd@bexp,f
  3468  0449                     l634:
  3469  0449  0A7A               	incf	___fladd@bexp,w
  3470  044A  1903               	btfsc	3,2
  3471  044B  2C4D               	goto	u2211
  3472  044C  2C4E               	goto	u2210
  3473  044D                     u2211:
  3474  044D  2C53               	goto	l1905
  3475  044E                     u2210:
  3476  044E                     l1903:
  3477  044E  087A               	movf	___fladd@bexp,w
  3478  044F  1D03               	btfss	3,2
  3479  0450  2C52               	goto	u2221
  3480  0451  2C53               	goto	u2220
  3481  0452                     u2221:
  3482  0452  2C61               	goto	l1911
  3483  0453                     u2220:
  3484  0453                     l1905:
  3485  0453  3000               	movlw	0
  3486  0454  00F3               	movwf	___fladd@b+3
  3487  0455  3000               	movlw	0
  3488  0456  00F2               	movwf	___fladd@b+2
  3489  0457  3000               	movlw	0
  3490  0458  00F1               	movwf	___fladd@b+1
  3491  0459  3000               	movlw	0
  3492  045A  00F0               	movwf	___fladd@b
  3493  045B                     l1907:
  3494  045B  087A               	movf	___fladd@bexp,w
  3495  045C  1D03               	btfss	3,2
  3496  045D  2C5F               	goto	u2231
  3497  045E  2C60               	goto	u2230
  3498  045F                     u2231:
  3499  045F  2C61               	goto	l1911
  3500  0460                     u2230:
  3501  0460                     l1909:
  3502  0460  01F8               	clrf	___fladd@signs
  3503  0461                     l1911:
  3504  0461  1C7A               	btfss	___fladd@bexp,0
  3505  0462  2C64               	goto	u2241
  3506  0463  2C65               	goto	u2240
  3507  0464                     u2241:
  3508  0464  2C67               	goto	l1915
  3509  0465                     u2240:
  3510  0465                     l1913:
  3511  0465  17F2               	bsf	___fladd@b+2,7
  3512  0466  2C6D               	goto	l642
  3513  0467                     l1915:
  3514  0467  307F               	movlw	127
  3515  0468  1283               	bcf	3,5	;RP0=0, select bank0
  3516  0469  1303               	bcf	3,6	;RP1=0, select bank0
  3517  046A  00A0               	movwf	??___fladd
  3518  046B  0820               	movf	??___fladd,w
  3519  046C  05F2               	andwf	___fladd@b+2,f
  3520  046D                     l642:
  3521  046D  087A               	movf	___fladd@bexp,w
  3522  046E  1283               	bcf	3,5	;RP0=0, select bank0
  3523  046F  1303               	bcf	3,6	;RP1=0, select bank0
  3524  0470  00A0               	movwf	??___fladd
  3525  0471  1003               	clrc
  3526  0472  0C20               	rrf	??___fladd,w
  3527  0473  00A1               	movwf	??___fladd+1
  3528  0474  0821               	movf	??___fladd+1,w
  3529  0475  00F3               	movwf	___fladd@b+3
  3530  0476                     l1917:
  3531  0476  1FF8               	btfss	___fladd@signs,7
  3532  0477  2C79               	goto	u2251
  3533  0478  2C7A               	goto	u2250
  3534  0479                     u2251:
  3535  0479  2C7B               	goto	l643
  3536  047A                     u2250:
  3537  047A                     l1919:
  3538  047A  17F3               	bsf	___fladd@b+3,7
  3539  047B                     l643:
  3540  047B                     l613:
  3541  047B  0008               	return
  3542  047C                     __end_of___fladd:
  3543                           
  3544                           	psect	text9
  3545  047C                     __ptext9:	
  3546 ;; *************** function ___flmul *****************
  3547 ;; Defined at:
  3548 ;;		line 8 in file "C:\Program Files\Microchip\xc8\v2.31\pic\sources\c90\common\sprcmul.c"
  3549 ;; Parameters:    Size  Location     Type
  3550 ;;  b               4    0[BANK0 ] unsigned char 
  3551 ;;  a               4    4[BANK0 ] unsigned char 
  3552 ;; Auto vars:     Size  Location     Type
  3553 ;;  prod            4   20[BANK0 ] struct .
  3554 ;;  grs             4   14[BANK0 ] unsigned long 
  3555 ;;  temp            2   24[BANK0 ] struct .
  3556 ;;  bexp            1   19[BANK0 ] unsigned char 
  3557 ;;  aexp            1   18[BANK0 ] unsigned char 
  3558 ;;  sign            1   13[BANK0 ] unsigned char 
  3559 ;; Return value:  Size  Location     Type
  3560 ;;                  4    0[BANK0 ] unsigned char 
  3561 ;; Registers used:
  3562 ;;		wreg, status,2, status,0, btemp+1, pclath, cstack
  3563 ;; Tracked objects:
  3564 ;;		On entry : 0/0
  3565 ;;		On exit  : 0/0
  3566 ;;		Unchanged: 0/0
  3567 ;; Data sizes:     COMMON   BANK0   BANK1   BANK3   BANK2
  3568 ;;      Params:         0       8       0       0       0
  3569 ;;      Locals:         0      13       0       0       0
  3570 ;;      Temps:          0       5       0       0       0
  3571 ;;      Totals:         0      26       0       0       0
  3572 ;;Total ram usage:       26 bytes
  3573 ;; Hardware stack levels used:    1
  3574 ;; Hardware stack levels required when called:    1
  3575 ;; This function calls:
  3576 ;;		__Umul8_16
  3577 ;; This function is called by:
  3578 ;;		_main
  3579 ;;		_floToChar
  3580 ;; This function uses a non-reentrant model
  3581 ;;
  3582                           
  3583                           
  3584                           ;psect for function ___flmul
  3585  047C                     ___flmul:
  3586  047C                     l2011:	
  3587                           ;incstack = 0
  3588                           ; Regs used in ___flmul: [wreg+status,2+status,0+btemp+1+pclath+cstack]
  3589                           
  3590  047C  1283               	bcf	3,5	;RP0=0, select bank0
  3591  047D  1303               	bcf	3,6	;RP1=0, select bank0
  3592  047E  0823               	movf	___flmul@b+3,w
  3593  047F  3980               	andlw	128
  3594  0480  00A8               	movwf	??___flmul
  3595  0481  0828               	movf	??___flmul,w
  3596  0482  00AD               	movwf	___flmul@sign
  3597  0483                     l2013:
  3598  0483  0823               	movf	___flmul@b+3,w
  3599  0484  00A8               	movwf	??___flmul
  3600  0485  0728               	addwf	??___flmul,w
  3601  0486  00A9               	movwf	??___flmul+1
  3602  0487  0829               	movf	??___flmul+1,w
  3603  0488  00B3               	movwf	___flmul@bexp
  3604  0489                     l2015:
  3605  0489  1FA2               	btfss	___flmul@b+2,7
  3606  048A  2C8C               	goto	u2441
  3607  048B  2C8D               	goto	u2440
  3608  048C                     u2441:
  3609  048C  2C8E               	goto	l2019
  3610  048D                     u2440:
  3611  048D                     l2017:
  3612  048D  1433               	bsf	___flmul@bexp,0
  3613  048E                     l2019:
  3614  048E  0833               	movf	___flmul@bexp,w
  3615  048F  1903               	btfsc	3,2
  3616  0490  2C92               	goto	u2451
  3617  0491  2C93               	goto	u2450
  3618  0492                     u2451:
  3619  0492  2CA2               	goto	l2027
  3620  0493                     u2450:
  3621  0493                     l2021:
  3622  0493  0A33               	incf	___flmul@bexp,w
  3623  0494  1D03               	btfss	3,2
  3624  0495  2C97               	goto	u2461
  3625  0496  2C98               	goto	u2460
  3626  0497                     u2461:
  3627  0497  2CA0               	goto	l2025
  3628  0498                     u2460:
  3629  0498                     l2023:
  3630  0498  3000               	movlw	0
  3631  0499  00A3               	movwf	___flmul@b+3
  3632  049A  3000               	movlw	0
  3633  049B  00A2               	movwf	___flmul@b+2
  3634  049C  3000               	movlw	0
  3635  049D  00A1               	movwf	___flmul@b+1
  3636  049E  3000               	movlw	0
  3637  049F  00A0               	movwf	___flmul@b
  3638  04A0                     l2025:
  3639  04A0  17A2               	bsf	___flmul@b+2,7
  3640  04A1  2CAA               	goto	l2029
  3641  04A2                     l2027:
  3642  04A2  3000               	movlw	0
  3643  04A3  00A3               	movwf	___flmul@b+3
  3644  04A4  3000               	movlw	0
  3645  04A5  00A2               	movwf	___flmul@b+2
  3646  04A6  3000               	movlw	0
  3647  04A7  00A1               	movwf	___flmul@b+1
  3648  04A8  3000               	movlw	0
  3649  04A9  00A0               	movwf	___flmul@b
  3650  04AA                     l2029:
  3651  04AA  0827               	movf	___flmul@a+3,w
  3652  04AB  3980               	andlw	128
  3653  04AC  00A8               	movwf	??___flmul
  3654  04AD  0828               	movf	??___flmul,w
  3655  04AE  06AD               	xorwf	___flmul@sign,f
  3656  04AF                     l2031:
  3657  04AF  0827               	movf	___flmul@a+3,w
  3658  04B0  00A8               	movwf	??___flmul
  3659  04B1  0728               	addwf	??___flmul,w
  3660  04B2  00A9               	movwf	??___flmul+1
  3661  04B3  0829               	movf	??___flmul+1,w
  3662  04B4  00B2               	movwf	___flmul@aexp
  3663  04B5                     l2033:
  3664  04B5  1FA6               	btfss	___flmul@a+2,7
  3665  04B6  2CB8               	goto	u2471
  3666  04B7  2CB9               	goto	u2470
  3667  04B8                     u2471:
  3668  04B8  2CBA               	goto	l2037
  3669  04B9                     u2470:
  3670  04B9                     l2035:
  3671  04B9  1432               	bsf	___flmul@aexp,0
  3672  04BA                     l2037:
  3673  04BA  0832               	movf	___flmul@aexp,w
  3674  04BB  1903               	btfsc	3,2
  3675  04BC  2CBE               	goto	u2481
  3676  04BD  2CBF               	goto	u2480
  3677  04BE                     u2481:
  3678  04BE  2CCE               	goto	l2045
  3679  04BF                     u2480:
  3680  04BF                     l2039:
  3681  04BF  0A32               	incf	___flmul@aexp,w
  3682  04C0  1D03               	btfss	3,2
  3683  04C1  2CC3               	goto	u2491
  3684  04C2  2CC4               	goto	u2490
  3685  04C3                     u2491:
  3686  04C3  2CCC               	goto	l2043
  3687  04C4                     u2490:
  3688  04C4                     l2041:
  3689  04C4  3000               	movlw	0
  3690  04C5  00A7               	movwf	___flmul@a+3
  3691  04C6  3000               	movlw	0
  3692  04C7  00A6               	movwf	___flmul@a+2
  3693  04C8  3000               	movlw	0
  3694  04C9  00A5               	movwf	___flmul@a+1
  3695  04CA  3000               	movlw	0
  3696  04CB  00A4               	movwf	___flmul@a
  3697  04CC                     l2043:
  3698  04CC  17A6               	bsf	___flmul@a+2,7
  3699  04CD  2CD6               	goto	l2047
  3700  04CE                     l2045:
  3701  04CE  3000               	movlw	0
  3702  04CF  00A7               	movwf	___flmul@a+3
  3703  04D0  3000               	movlw	0
  3704  04D1  00A6               	movwf	___flmul@a+2
  3705  04D2  3000               	movlw	0
  3706  04D3  00A5               	movwf	___flmul@a+1
  3707  04D4  3000               	movlw	0
  3708  04D5  00A4               	movwf	___flmul@a
  3709  04D6                     l2047:
  3710  04D6  0832               	movf	___flmul@aexp,w
  3711  04D7  1903               	btfsc	3,2
  3712  04D8  2CDA               	goto	u2501
  3713  04D9  2CDB               	goto	u2500
  3714  04DA                     u2501:
  3715  04DA  2CE0               	goto	l2051
  3716  04DB                     u2500:
  3717  04DB                     l2049:
  3718  04DB  0833               	movf	___flmul@bexp,w
  3719  04DC  1D03               	btfss	3,2
  3720  04DD  2CDF               	goto	u2511
  3721  04DE  2CE0               	goto	u2510
  3722  04DF                     u2511:
  3723  04DF  2CE9               	goto	l2055
  3724  04E0                     u2510:
  3725  04E0                     l2051:
  3726  04E0  3000               	movlw	0
  3727  04E1  00A3               	movwf	?___flmul+3
  3728  04E2  3000               	movlw	0
  3729  04E3  00A2               	movwf	?___flmul+2
  3730  04E4  3000               	movlw	0
  3731  04E5  00A1               	movwf	?___flmul+1
  3732  04E6  3000               	movlw	0
  3733  04E7  00A0               	movwf	?___flmul
  3734  04E8  2FDC               	goto	l696
  3735  04E9                     l2055:
  3736  04E9  0820               	movf	___flmul@b,w
  3737  04EA  00A8               	movwf	??___flmul
  3738  04EB  0828               	movf	??___flmul,w
  3739  04EC  00F0               	movwf	__Umul8_16@multiplicand
  3740  04ED  0826               	movf	___flmul@a+2,w
  3741  04EE  120A  158A  23B0  120A  118A  	fcall	__Umul8_16
  3742  04F3  0871               	movf	?__Umul8_16+1,w
  3743  04F4  1283               	bcf	3,5	;RP0=0, select bank0
  3744  04F5  1303               	bcf	3,6	;RP1=0, select bank0
  3745  04F6  00B9               	movwf	___flmul@temp+1
  3746  04F7  0870               	movf	?__Umul8_16,w
  3747  04F8  00B8               	movwf	___flmul@temp
  3748  04F9                     l2057:
  3749  04F9  0838               	movf	___flmul@temp,w
  3750  04FA  00A8               	movwf	??___flmul
  3751  04FB  01A9               	clrf	??___flmul+1
  3752  04FC  01AA               	clrf	??___flmul+2
  3753  04FD  01AB               	clrf	??___flmul+3
  3754  04FE  082B               	movf	??___flmul+3,w
  3755  04FF  00B1               	movwf	___flmul@grs+3
  3756  0500  082A               	movf	??___flmul+2,w
  3757  0501  00B0               	movwf	___flmul@grs+2
  3758  0502  0829               	movf	??___flmul+1,w
  3759  0503  00AF               	movwf	___flmul@grs+1
  3760  0504  0828               	movf	??___flmul,w
  3761  0505  00AE               	movwf	___flmul@grs
  3762  0506                     l2059:
  3763  0506  0839               	movf	___flmul@temp+1,w
  3764  0507  00A8               	movwf	??___flmul
  3765  0508  01A9               	clrf	??___flmul+1
  3766  0509  01AA               	clrf	??___flmul+2
  3767  050A  01AB               	clrf	??___flmul+3
  3768  050B  082B               	movf	??___flmul+3,w
  3769  050C  00B7               	movwf	___flmul@prod+3
  3770  050D  082A               	movf	??___flmul+2,w
  3771  050E  00B6               	movwf	___flmul@prod+2
  3772  050F  0829               	movf	??___flmul+1,w
  3773  0510  00B5               	movwf	___flmul@prod+1
  3774  0511  0828               	movf	??___flmul,w
  3775  0512  00B4               	movwf	___flmul@prod
  3776  0513  0821               	movf	___flmul@b+1,w
  3777  0514  00A8               	movwf	??___flmul
  3778  0515  0828               	movf	??___flmul,w
  3779  0516  00F0               	movwf	__Umul8_16@multiplicand
  3780  0517  0825               	movf	___flmul@a+1,w
  3781  0518  120A  158A  23B0  120A  118A  	fcall	__Umul8_16
  3782  051D  0871               	movf	?__Umul8_16+1,w
  3783  051E  1283               	bcf	3,5	;RP0=0, select bank0
  3784  051F  1303               	bcf	3,6	;RP1=0, select bank0
  3785  0520  00B9               	movwf	___flmul@temp+1
  3786  0521  0870               	movf	?__Umul8_16,w
  3787  0522  00B8               	movwf	___flmul@temp
  3788  0523                     l2061:
  3789  0523  0838               	movf	___flmul@temp,w
  3790  0524  00A8               	movwf	??___flmul
  3791  0525  01A9               	clrf	??___flmul+1
  3792  0526  01AA               	clrf	??___flmul+2
  3793  0527  01AB               	clrf	??___flmul+3
  3794  0528  0828               	movf	??___flmul,w
  3795  0529  07AE               	addwf	___flmul@grs,f
  3796  052A  0829               	movf	??___flmul+1,w
  3797  052B  1103               	clrz
  3798  052C  1803               	skipnc
  3799  052D  3E01               	addlw	1
  3800  052E  1903               	skipnz
  3801  052F  2D31               	goto	u2521
  3802  0530  07AF               	addwf	___flmul@grs+1,f
  3803  0531                     u2521:
  3804  0531  082A               	movf	??___flmul+2,w
  3805  0532  1103               	clrz
  3806  0533  1803               	skipnc
  3807  0534  3E01               	addlw	1
  3808  0535  1903               	skipnz
  3809  0536  2D38               	goto	u2522
  3810  0537  07B0               	addwf	___flmul@grs+2,f
  3811  0538                     u2522:
  3812  0538  082B               	movf	??___flmul+3,w
  3813  0539  1103               	clrz
  3814  053A  1803               	skipnc
  3815  053B  3E01               	addlw	1
  3816  053C  1903               	skipnz
  3817  053D  2D3F               	goto	u2523
  3818  053E  07B1               	addwf	___flmul@grs+3,f
  3819  053F                     u2523:
  3820  053F                     l2063:
  3821  053F  0839               	movf	___flmul@temp+1,w
  3822  0540  00A8               	movwf	??___flmul
  3823  0541  01A9               	clrf	??___flmul+1
  3824  0542  01AA               	clrf	??___flmul+2
  3825  0543  01AB               	clrf	??___flmul+3
  3826  0544  0828               	movf	??___flmul,w
  3827  0545  07B4               	addwf	___flmul@prod,f
  3828  0546  0829               	movf	??___flmul+1,w
  3829  0547  1103               	clrz
  3830  0548  1803               	skipnc
  3831  0549  3E01               	addlw	1
  3832  054A  1903               	skipnz
  3833  054B  2D4D               	goto	u2531
  3834  054C  07B5               	addwf	___flmul@prod+1,f
  3835  054D                     u2531:
  3836  054D  082A               	movf	??___flmul+2,w
  3837  054E  1103               	clrz
  3838  054F  1803               	skipnc
  3839  0550  3E01               	addlw	1
  3840  0551  1903               	skipnz
  3841  0552  2D54               	goto	u2532
  3842  0553  07B6               	addwf	___flmul@prod+2,f
  3843  0554                     u2532:
  3844  0554  082B               	movf	??___flmul+3,w
  3845  0555  1103               	clrz
  3846  0556  1803               	skipnc
  3847  0557  3E01               	addlw	1
  3848  0558  1903               	skipnz
  3849  0559  2D5B               	goto	u2533
  3850  055A  07B7               	addwf	___flmul@prod+3,f
  3851  055B                     u2533:
  3852  055B  0822               	movf	___flmul@b+2,w
  3853  055C  00A8               	movwf	??___flmul
  3854  055D  0828               	movf	??___flmul,w
  3855  055E  00F0               	movwf	__Umul8_16@multiplicand
  3856  055F  0824               	movf	___flmul@a,w
  3857  0560  120A  158A  23B0  120A  118A  	fcall	__Umul8_16
  3858  0565  0871               	movf	?__Umul8_16+1,w
  3859  0566  1283               	bcf	3,5	;RP0=0, select bank0
  3860  0567  1303               	bcf	3,6	;RP1=0, select bank0
  3861  0568  00B9               	movwf	___flmul@temp+1
  3862  0569  0870               	movf	?__Umul8_16,w
  3863  056A  00B8               	movwf	___flmul@temp
  3864  056B                     l2065:
  3865  056B  0838               	movf	___flmul@temp,w
  3866  056C  00A8               	movwf	??___flmul
  3867  056D  01A9               	clrf	??___flmul+1
  3868  056E  01AA               	clrf	??___flmul+2
  3869  056F  01AB               	clrf	??___flmul+3
  3870  0570  0828               	movf	??___flmul,w
  3871  0571  07AE               	addwf	___flmul@grs,f
  3872  0572  0829               	movf	??___flmul+1,w
  3873  0573  1103               	clrz
  3874  0574  1803               	skipnc
  3875  0575  3E01               	addlw	1
  3876  0576  1903               	skipnz
  3877  0577  2D79               	goto	u2541
  3878  0578  07AF               	addwf	___flmul@grs+1,f
  3879  0579                     u2541:
  3880  0579  082A               	movf	??___flmul+2,w
  3881  057A  1103               	clrz
  3882  057B  1803               	skipnc
  3883  057C  3E01               	addlw	1
  3884  057D  1903               	skipnz
  3885  057E  2D80               	goto	u2542
  3886  057F  07B0               	addwf	___flmul@grs+2,f
  3887  0580                     u2542:
  3888  0580  082B               	movf	??___flmul+3,w
  3889  0581  1103               	clrz
  3890  0582  1803               	skipnc
  3891  0583  3E01               	addlw	1
  3892  0584  1903               	skipnz
  3893  0585  2D87               	goto	u2543
  3894  0586  07B1               	addwf	___flmul@grs+3,f
  3895  0587                     u2543:
  3896  0587                     l2067:
  3897  0587  0839               	movf	___flmul@temp+1,w
  3898  0588  00A8               	movwf	??___flmul
  3899  0589  01A9               	clrf	??___flmul+1
  3900  058A  01AA               	clrf	??___flmul+2
  3901  058B  01AB               	clrf	??___flmul+3
  3902  058C  0828               	movf	??___flmul,w
  3903  058D  07B4               	addwf	___flmul@prod,f
  3904  058E  0829               	movf	??___flmul+1,w
  3905  058F  1103               	clrz
  3906  0590  1803               	skipnc
  3907  0591  3E01               	addlw	1
  3908  0592  1903               	skipnz
  3909  0593  2D95               	goto	u2551
  3910  0594  07B5               	addwf	___flmul@prod+1,f
  3911  0595                     u2551:
  3912  0595  082A               	movf	??___flmul+2,w
  3913  0596  1103               	clrz
  3914  0597  1803               	skipnc
  3915  0598  3E01               	addlw	1
  3916  0599  1903               	skipnz
  3917  059A  2D9C               	goto	u2552
  3918  059B  07B6               	addwf	___flmul@prod+2,f
  3919  059C                     u2552:
  3920  059C  082B               	movf	??___flmul+3,w
  3921  059D  1103               	clrz
  3922  059E  1803               	skipnc
  3923  059F  3E01               	addlw	1
  3924  05A0  1903               	skipnz
  3925  05A1  2DA3               	goto	u2553
  3926  05A2  07B7               	addwf	___flmul@prod+3,f
  3927  05A3                     u2553:
  3928  05A3                     l2069:
  3929  05A3  3008               	movlw	8
  3930  05A4  00A8               	movwf	??___flmul
  3931  05A5                     u2565:
  3932  05A5  1003               	clrc
  3933  05A6  0DAE               	rlf	___flmul@grs,f
  3934  05A7  0DAF               	rlf	___flmul@grs+1,f
  3935  05A8  0DB0               	rlf	___flmul@grs+2,f
  3936  05A9  0DB1               	rlf	___flmul@grs+3,f
  3937  05AA  0BA8               	decfsz	??___flmul,f
  3938  05AB  2DA5               	goto	u2565
  3939  05AC                     l2071:
  3940  05AC  0821               	movf	___flmul@b+1,w
  3941  05AD  00A8               	movwf	??___flmul
  3942  05AE  0828               	movf	??___flmul,w
  3943  05AF  00F0               	movwf	__Umul8_16@multiplicand
  3944  05B0  0824               	movf	___flmul@a,w
  3945  05B1  120A  158A  23B0  120A  118A  	fcall	__Umul8_16
  3946  05B6  0871               	movf	?__Umul8_16+1,w
  3947  05B7  1283               	bcf	3,5	;RP0=0, select bank0
  3948  05B8  1303               	bcf	3,6	;RP1=0, select bank0
  3949  05B9  00B9               	movwf	___flmul@temp+1
  3950  05BA  0870               	movf	?__Umul8_16,w
  3951  05BB  00B8               	movwf	___flmul@temp
  3952  05BC                     l2073:
  3953  05BC  0838               	movf	___flmul@temp,w
  3954  05BD  00A8               	movwf	??___flmul
  3955  05BE  0839               	movf	___flmul@temp+1,w
  3956  05BF  00A9               	movwf	??___flmul+1
  3957  05C0  01AA               	clrf	??___flmul+2
  3958  05C1  01AB               	clrf	??___flmul+3
  3959  05C2  0828               	movf	??___flmul,w
  3960  05C3  07AE               	addwf	___flmul@grs,f
  3961  05C4  0829               	movf	??___flmul+1,w
  3962  05C5  1103               	clrz
  3963  05C6  1803               	skipnc
  3964  05C7  3E01               	addlw	1
  3965  05C8  1903               	skipnz
  3966  05C9  2DCB               	goto	u2571
  3967  05CA  07AF               	addwf	___flmul@grs+1,f
  3968  05CB                     u2571:
  3969  05CB  082A               	movf	??___flmul+2,w
  3970  05CC  1103               	clrz
  3971  05CD  1803               	skipnc
  3972  05CE  3E01               	addlw	1
  3973  05CF  1903               	skipnz
  3974  05D0  2DD2               	goto	u2572
  3975  05D1  07B0               	addwf	___flmul@grs+2,f
  3976  05D2                     u2572:
  3977  05D2  082B               	movf	??___flmul+3,w
  3978  05D3  1103               	clrz
  3979  05D4  1803               	skipnc
  3980  05D5  3E01               	addlw	1
  3981  05D6  1903               	skipnz
  3982  05D7  2DD9               	goto	u2573
  3983  05D8  07B1               	addwf	___flmul@grs+3,f
  3984  05D9                     u2573:
  3985  05D9                     l2075:
  3986  05D9  0820               	movf	___flmul@b,w
  3987  05DA  00A8               	movwf	??___flmul
  3988  05DB  0828               	movf	??___flmul,w
  3989  05DC  00F0               	movwf	__Umul8_16@multiplicand
  3990  05DD  0825               	movf	___flmul@a+1,w
  3991  05DE  120A  158A  23B0  120A  118A  	fcall	__Umul8_16
  3992  05E3  0871               	movf	?__Umul8_16+1,w
  3993  05E4  1283               	bcf	3,5	;RP0=0, select bank0
  3994  05E5  1303               	bcf	3,6	;RP1=0, select bank0
  3995  05E6  00B9               	movwf	___flmul@temp+1
  3996  05E7  0870               	movf	?__Umul8_16,w
  3997  05E8  00B8               	movwf	___flmul@temp
  3998  05E9                     l2077:
  3999  05E9  0838               	movf	___flmul@temp,w
  4000  05EA  00A8               	movwf	??___flmul
  4001  05EB  0839               	movf	___flmul@temp+1,w
  4002  05EC  00A9               	movwf	??___flmul+1
  4003  05ED  01AA               	clrf	??___flmul+2
  4004  05EE  01AB               	clrf	??___flmul+3
  4005  05EF  0828               	movf	??___flmul,w
  4006  05F0  07AE               	addwf	___flmul@grs,f
  4007  05F1  0829               	movf	??___flmul+1,w
  4008  05F2  1103               	clrz
  4009  05F3  1803               	skipnc
  4010  05F4  3E01               	addlw	1
  4011  05F5  1903               	skipnz
  4012  05F6  2DF8               	goto	u2581
  4013  05F7  07AF               	addwf	___flmul@grs+1,f
  4014  05F8                     u2581:
  4015  05F8  082A               	movf	??___flmul+2,w
  4016  05F9  1103               	clrz
  4017  05FA  1803               	skipnc
  4018  05FB  3E01               	addlw	1
  4019  05FC  1903               	skipnz
  4020  05FD  2DFF               	goto	u2582
  4021  05FE  07B0               	addwf	___flmul@grs+2,f
  4022  05FF                     u2582:
  4023  05FF  082B               	movf	??___flmul+3,w
  4024  0600  1103               	clrz
  4025  0601  1803               	skipnc
  4026  0602  3E01               	addlw	1
  4027  0603  1903               	skipnz
  4028  0604  2E06               	goto	u2583
  4029  0605  07B1               	addwf	___flmul@grs+3,f
  4030  0606                     u2583:
  4031  0606                     l2079:
  4032  0606  3008               	movlw	8
  4033  0607  00A8               	movwf	??___flmul
  4034  0608                     u2595:
  4035  0608  1003               	clrc
  4036  0609  0DAE               	rlf	___flmul@grs,f
  4037  060A  0DAF               	rlf	___flmul@grs+1,f
  4038  060B  0DB0               	rlf	___flmul@grs+2,f
  4039  060C  0DB1               	rlf	___flmul@grs+3,f
  4040  060D  0BA8               	decfsz	??___flmul,f
  4041  060E  2E08               	goto	u2595
  4042  060F  0820               	movf	___flmul@b,w
  4043  0610  00A8               	movwf	??___flmul
  4044  0611  0828               	movf	??___flmul,w
  4045  0612  00F0               	movwf	__Umul8_16@multiplicand
  4046  0613  0824               	movf	___flmul@a,w
  4047  0614  120A  158A  23B0  120A  118A  	fcall	__Umul8_16
  4048  0619  0871               	movf	?__Umul8_16+1,w
  4049  061A  1283               	bcf	3,5	;RP0=0, select bank0
  4050  061B  1303               	bcf	3,6	;RP1=0, select bank0
  4051  061C  00B9               	movwf	___flmul@temp+1
  4052  061D  0870               	movf	?__Umul8_16,w
  4053  061E  00B8               	movwf	___flmul@temp
  4054  061F                     l2081:
  4055  061F  0838               	movf	___flmul@temp,w
  4056  0620  00A8               	movwf	??___flmul
  4057  0621  0839               	movf	___flmul@temp+1,w
  4058  0622  00A9               	movwf	??___flmul+1
  4059  0623  01AA               	clrf	??___flmul+2
  4060  0624  01AB               	clrf	??___flmul+3
  4061  0625  0828               	movf	??___flmul,w
  4062  0626  07AE               	addwf	___flmul@grs,f
  4063  0627  0829               	movf	??___flmul+1,w
  4064  0628  1103               	clrz
  4065  0629  1803               	skipnc
  4066  062A  3E01               	addlw	1
  4067  062B  1903               	skipnz
  4068  062C  2E2E               	goto	u2601
  4069  062D  07AF               	addwf	___flmul@grs+1,f
  4070  062E                     u2601:
  4071  062E  082A               	movf	??___flmul+2,w
  4072  062F  1103               	clrz
  4073  0630  1803               	skipnc
  4074  0631  3E01               	addlw	1
  4075  0632  1903               	skipnz
  4076  0633  2E35               	goto	u2602
  4077  0634  07B0               	addwf	___flmul@grs+2,f
  4078  0635                     u2602:
  4079  0635  082B               	movf	??___flmul+3,w
  4080  0636  1103               	clrz
  4081  0637  1803               	skipnc
  4082  0638  3E01               	addlw	1
  4083  0639  1903               	skipnz
  4084  063A  2E3C               	goto	u2603
  4085  063B  07B1               	addwf	___flmul@grs+3,f
  4086  063C                     u2603:
  4087  063C                     l2083:
  4088  063C  0821               	movf	___flmul@b+1,w
  4089  063D  00A8               	movwf	??___flmul
  4090  063E  0828               	movf	??___flmul,w
  4091  063F  00F0               	movwf	__Umul8_16@multiplicand
  4092  0640  0826               	movf	___flmul@a+2,w
  4093  0641  120A  158A  23B0  120A  118A  	fcall	__Umul8_16
  4094  0646  0871               	movf	?__Umul8_16+1,w
  4095  0647  1283               	bcf	3,5	;RP0=0, select bank0
  4096  0648  1303               	bcf	3,6	;RP1=0, select bank0
  4097  0649  00B9               	movwf	___flmul@temp+1
  4098  064A  0870               	movf	?__Umul8_16,w
  4099  064B  00B8               	movwf	___flmul@temp
  4100  064C  0838               	movf	___flmul@temp,w
  4101  064D  00A8               	movwf	??___flmul
  4102  064E  0839               	movf	___flmul@temp+1,w
  4103  064F  00A9               	movwf	??___flmul+1
  4104  0650  01AA               	clrf	??___flmul+2
  4105  0651  01AB               	clrf	??___flmul+3
  4106  0652  0828               	movf	??___flmul,w
  4107  0653  07B4               	addwf	___flmul@prod,f
  4108  0654  0829               	movf	??___flmul+1,w
  4109  0655  1103               	clrz
  4110  0656  1803               	skipnc
  4111  0657  3E01               	addlw	1
  4112  0658  1903               	skipnz
  4113  0659  2E5B               	goto	u2611
  4114  065A  07B5               	addwf	___flmul@prod+1,f
  4115  065B                     u2611:
  4116  065B  082A               	movf	??___flmul+2,w
  4117  065C  1103               	clrz
  4118  065D  1803               	skipnc
  4119  065E  3E01               	addlw	1
  4120  065F  1903               	skipnz
  4121  0660  2E62               	goto	u2612
  4122  0661  07B6               	addwf	___flmul@prod+2,f
  4123  0662                     u2612:
  4124  0662  082B               	movf	??___flmul+3,w
  4125  0663  1103               	clrz
  4126  0664  1803               	skipnc
  4127  0665  3E01               	addlw	1
  4128  0666  1903               	skipnz
  4129  0667  2E69               	goto	u2613
  4130  0668  07B7               	addwf	___flmul@prod+3,f
  4131  0669                     u2613:
  4132  0669                     l2085:
  4133  0669  0822               	movf	___flmul@b+2,w
  4134  066A  00A8               	movwf	??___flmul
  4135  066B  0828               	movf	??___flmul,w
  4136  066C  00F0               	movwf	__Umul8_16@multiplicand
  4137  066D  0825               	movf	___flmul@a+1,w
  4138  066E  120A  158A  23B0  120A  118A  	fcall	__Umul8_16
  4139  0673  0871               	movf	?__Umul8_16+1,w
  4140  0674  1283               	bcf	3,5	;RP0=0, select bank0
  4141  0675  1303               	bcf	3,6	;RP1=0, select bank0
  4142  0676  00B9               	movwf	___flmul@temp+1
  4143  0677  0870               	movf	?__Umul8_16,w
  4144  0678  00B8               	movwf	___flmul@temp
  4145  0679                     l2087:
  4146  0679  0838               	movf	___flmul@temp,w
  4147  067A  00A8               	movwf	??___flmul
  4148  067B  0839               	movf	___flmul@temp+1,w
  4149  067C  00A9               	movwf	??___flmul+1
  4150  067D  01AA               	clrf	??___flmul+2
  4151  067E  01AB               	clrf	??___flmul+3
  4152  067F  0828               	movf	??___flmul,w
  4153  0680  07B4               	addwf	___flmul@prod,f
  4154  0681  0829               	movf	??___flmul+1,w
  4155  0682  1103               	clrz
  4156  0683  1803               	skipnc
  4157  0684  3E01               	addlw	1
  4158  0685  1903               	skipnz
  4159  0686  2E88               	goto	u2621
  4160  0687  07B5               	addwf	___flmul@prod+1,f
  4161  0688                     u2621:
  4162  0688  082A               	movf	??___flmul+2,w
  4163  0689  1103               	clrz
  4164  068A  1803               	skipnc
  4165  068B  3E01               	addlw	1
  4166  068C  1903               	skipnz
  4167  068D  2E8F               	goto	u2622
  4168  068E  07B6               	addwf	___flmul@prod+2,f
  4169  068F                     u2622:
  4170  068F  082B               	movf	??___flmul+3,w
  4171  0690  1103               	clrz
  4172  0691  1803               	skipnc
  4173  0692  3E01               	addlw	1
  4174  0693  1903               	skipnz
  4175  0694  2E96               	goto	u2623
  4176  0695  07B7               	addwf	___flmul@prod+3,f
  4177  0696                     u2623:
  4178  0696  0822               	movf	___flmul@b+2,w
  4179  0697  00A8               	movwf	??___flmul
  4180  0698  0828               	movf	??___flmul,w
  4181  0699  00F0               	movwf	__Umul8_16@multiplicand
  4182  069A  0826               	movf	___flmul@a+2,w
  4183  069B  120A  158A  23B0  120A  118A  	fcall	__Umul8_16
  4184  06A0  0871               	movf	?__Umul8_16+1,w
  4185  06A1  1283               	bcf	3,5	;RP0=0, select bank0
  4186  06A2  1303               	bcf	3,6	;RP1=0, select bank0
  4187  06A3  00B9               	movwf	___flmul@temp+1
  4188  06A4  0870               	movf	?__Umul8_16,w
  4189  06A5  00B8               	movwf	___flmul@temp
  4190  06A6                     l2089:
  4191  06A6  0838               	movf	___flmul@temp,w
  4192  06A7  00A8               	movwf	??___flmul
  4193  06A8  0839               	movf	___flmul@temp+1,w
  4194  06A9  00A9               	movwf	??___flmul+1
  4195  06AA  01AA               	clrf	??___flmul+2
  4196  06AB  01AB               	clrf	??___flmul+3
  4197  06AC  3008               	movlw	8
  4198  06AD                     u2635:
  4199  06AD  1003               	clrc
  4200  06AE  0DA8               	rlf	??___flmul,f
  4201  06AF  0DA9               	rlf	??___flmul+1,f
  4202  06B0  0DAA               	rlf	??___flmul+2,f
  4203  06B1  0DAB               	rlf	??___flmul+3,f
  4204  06B2                     u2630:
  4205  06B2  3EFF               	addlw	-1
  4206  06B3  1D03               	skipz
  4207  06B4  2EAD               	goto	u2635
  4208  06B5  0828               	movf	??___flmul,w
  4209  06B6  07B4               	addwf	___flmul@prod,f
  4210  06B7  0829               	movf	??___flmul+1,w
  4211  06B8  1103               	clrz
  4212  06B9  1803               	skipnc
  4213  06BA  3E01               	addlw	1
  4214  06BB  1903               	skipnz
  4215  06BC  2EBE               	goto	u2641
  4216  06BD  07B5               	addwf	___flmul@prod+1,f
  4217  06BE                     u2641:
  4218  06BE  082A               	movf	??___flmul+2,w
  4219  06BF  1103               	clrz
  4220  06C0  1803               	skipnc
  4221  06C1  3E01               	addlw	1
  4222  06C2  1903               	skipnz
  4223  06C3  2EC5               	goto	u2642
  4224  06C4  07B6               	addwf	___flmul@prod+2,f
  4225  06C5                     u2642:
  4226  06C5  082B               	movf	??___flmul+3,w
  4227  06C6  1103               	clrz
  4228  06C7  1803               	skipnc
  4229  06C8  3E01               	addlw	1
  4230  06C9  1903               	skipnz
  4231  06CA  2ECC               	goto	u2643
  4232  06CB  07B7               	addwf	___flmul@prod+3,f
  4233  06CC                     u2643:
  4234  06CC                     l2091:
  4235  06CC  082E               	movf	___flmul@grs,w
  4236  06CD  00A8               	movwf	??___flmul
  4237  06CE  082F               	movf	___flmul@grs+1,w
  4238  06CF  00A9               	movwf	??___flmul+1
  4239  06D0  0830               	movf	___flmul@grs+2,w
  4240  06D1  00AA               	movwf	??___flmul+2
  4241  06D2  0831               	movf	___flmul@grs+3,w
  4242  06D3  00AB               	movwf	??___flmul+3
  4243  06D4  3018               	movlw	24
  4244  06D5                     u2655:
  4245  06D5  1003               	clrc
  4246  06D6  0CAB               	rrf	??___flmul+3,f
  4247  06D7  0CAA               	rrf	??___flmul+2,f
  4248  06D8  0CA9               	rrf	??___flmul+1,f
  4249  06D9  0CA8               	rrf	??___flmul,f
  4250  06DA                     u2650:
  4251  06DA  3EFF               	addlw	-1
  4252  06DB  1D03               	skipz
  4253  06DC  2ED5               	goto	u2655
  4254  06DD  0828               	movf	??___flmul,w
  4255  06DE  07B4               	addwf	___flmul@prod,f
  4256  06DF  0829               	movf	??___flmul+1,w
  4257  06E0  1103               	clrz
  4258  06E1  1803               	skipnc
  4259  06E2  3E01               	addlw	1
  4260  06E3  1903               	skipnz
  4261  06E4  2EE6               	goto	u2661
  4262  06E5  07B5               	addwf	___flmul@prod+1,f
  4263  06E6                     u2661:
  4264  06E6  082A               	movf	??___flmul+2,w
  4265  06E7  1103               	clrz
  4266  06E8  1803               	skipnc
  4267  06E9  3E01               	addlw	1
  4268  06EA  1903               	skipnz
  4269  06EB  2EED               	goto	u2662
  4270  06EC  07B6               	addwf	___flmul@prod+2,f
  4271  06ED                     u2662:
  4272  06ED  082B               	movf	??___flmul+3,w
  4273  06EE  1103               	clrz
  4274  06EF  1803               	skipnc
  4275  06F0  3E01               	addlw	1
  4276  06F1  1903               	skipnz
  4277  06F2  2EF4               	goto	u2663
  4278  06F3  07B7               	addwf	___flmul@prod+3,f
  4279  06F4                     u2663:
  4280  06F4                     l2093:
  4281  06F4  3008               	movlw	8
  4282  06F5  00A8               	movwf	??___flmul
  4283  06F6                     u2675:
  4284  06F6  1003               	clrc
  4285  06F7  0DAE               	rlf	___flmul@grs,f
  4286  06F8  0DAF               	rlf	___flmul@grs+1,f
  4287  06F9  0DB0               	rlf	___flmul@grs+2,f
  4288  06FA  0DB1               	rlf	___flmul@grs+3,f
  4289  06FB  0BA8               	decfsz	??___flmul,f
  4290  06FC  2EF6               	goto	u2675
  4291  06FD                     l2095:
  4292  06FD  0833               	movf	___flmul@bexp,w
  4293  06FE  0732               	addwf	___flmul@aexp,w
  4294  06FF  00A8               	movwf	??___flmul
  4295  0700  01A9               	clrf	??___flmul+1
  4296  0701  0DA9               	rlf	??___flmul+1,f
  4297  0702  0828               	movf	??___flmul,w
  4298  0703  3E82               	addlw	130
  4299  0704  00B8               	movwf	___flmul@temp
  4300  0705  0829               	movf	??___flmul+1,w
  4301  0706  1803               	skipnc
  4302  0707  3E01               	addlw	1
  4303  0708  3EFF               	addlw	255
  4304  0709  00B9               	movwf	___flmul@temp+1
  4305  070A  2F28               	goto	l2107
  4306  070B                     l2097:
  4307  070B  3001               	movlw	1
  4308  070C  00A8               	movwf	??___flmul
  4309  070D                     u2685:
  4310  070D  1003               	clrc
  4311  070E  0DB4               	rlf	___flmul@prod,f
  4312  070F  0DB5               	rlf	___flmul@prod+1,f
  4313  0710  0DB6               	rlf	___flmul@prod+2,f
  4314  0711  0DB7               	rlf	___flmul@prod+3,f
  4315  0712  0BA8               	decfsz	??___flmul,f
  4316  0713  2F0D               	goto	u2685
  4317  0714                     l2099:
  4318  0714  1FB1               	btfss	___flmul@grs+3,7
  4319  0715  2F17               	goto	u2691
  4320  0716  2F18               	goto	u2690
  4321  0717                     u2691:
  4322  0717  2F19               	goto	l2103
  4323  0718                     u2690:
  4324  0718                     l2101:
  4325  0718  1434               	bsf	___flmul@prod,0
  4326  0719                     l2103:
  4327  0719  3001               	movlw	1
  4328  071A  00A8               	movwf	??___flmul
  4329  071B                     u2705:
  4330  071B  1003               	clrc
  4331  071C  0DAE               	rlf	___flmul@grs,f
  4332  071D  0DAF               	rlf	___flmul@grs+1,f
  4333  071E  0DB0               	rlf	___flmul@grs+2,f
  4334  071F  0DB1               	rlf	___flmul@grs+3,f
  4335  0720  0BA8               	decfsz	??___flmul,f
  4336  0721  2F1B               	goto	u2705
  4337  0722                     l2105:
  4338  0722  30FF               	movlw	255
  4339  0723  07B8               	addwf	___flmul@temp,f
  4340  0724  1803               	skipnc
  4341  0725  0AB9               	incf	___flmul@temp+1,f
  4342  0726  30FF               	movlw	255
  4343  0727  07B9               	addwf	___flmul@temp+1,f
  4344  0728                     l2107:
  4345  0728  1FB6               	btfss	___flmul@prod+2,7
  4346  0729  2F2B               	goto	u2711
  4347  072A  2F2C               	goto	u2710
  4348  072B                     u2711:
  4349  072B  2F0B               	goto	l2097
  4350  072C                     u2710:
  4351  072C                     l2109:
  4352  072C  01B2               	clrf	___flmul@aexp
  4353  072D                     l2111:
  4354  072D  1FB1               	btfss	___flmul@grs+3,7
  4355  072E  2F30               	goto	u2721
  4356  072F  2F31               	goto	u2720
  4357  0730                     u2721:
  4358  0730  2F4D               	goto	l2119
  4359  0731                     u2720:
  4360  0731                     l2113:
  4361  0731  30FF               	movlw	255
  4362  0732  052E               	andwf	___flmul@grs,w
  4363  0733  00A8               	movwf	??___flmul
  4364  0734  30FF               	movlw	255
  4365  0735  052F               	andwf	___flmul@grs+1,w
  4366  0736  00A9               	movwf	??___flmul+1
  4367  0737  30FF               	movlw	255
  4368  0738  0530               	andwf	___flmul@grs+2,w
  4369  0739  00AA               	movwf	??___flmul+2
  4370  073A  307F               	movlw	127
  4371  073B  0531               	andwf	___flmul@grs+3,w
  4372  073C  00AB               	movwf	??___flmul+3
  4373  073D  082B               	movf	??___flmul+3,w
  4374  073E  042A               	iorwf	??___flmul+2,w
  4375  073F  0429               	iorwf	??___flmul+1,w
  4376  0740  0428               	iorwf	??___flmul,w
  4377  0741  1903               	skipnz
  4378  0742  2F44               	goto	u2731
  4379  0743  2F45               	goto	u2730
  4380  0744                     u2731:
  4381  0744  2F48               	goto	l702
  4382  0745                     u2730:
  4383  0745                     l2115:
  4384  0745  01B2               	clrf	___flmul@aexp
  4385  0746  0AB2               	incf	___flmul@aexp,f
  4386  0747  2F4D               	goto	l2119
  4387  0748                     l702:
  4388  0748  1C34               	btfss	___flmul@prod,0
  4389  0749  2F4B               	goto	u2741
  4390  074A  2F4C               	goto	u2740
  4391  074B                     u2741:
  4392  074B  2F4D               	goto	l2119
  4393  074C                     u2740:
  4394  074C  2F45               	goto	l2115
  4395  074D                     l2119:
  4396  074D  0832               	movf	___flmul@aexp,w
  4397  074E  1903               	btfsc	3,2
  4398  074F  2F51               	goto	u2751
  4399  0750  2F52               	goto	u2750
  4400  0751                     u2751:
  4401  0751  2F83               	goto	l2129
  4402  0752                     u2750:
  4403  0752                     l2121:
  4404  0752  3001               	movlw	1
  4405  0753  07B4               	addwf	___flmul@prod,f
  4406  0754  3000               	movlw	0
  4407  0755  1803               	skipnc
  4408  0756  3001               	movlw	1
  4409  0757  07B5               	addwf	___flmul@prod+1,f
  4410  0758  3000               	movlw	0
  4411  0759  1803               	skipnc
  4412  075A  3001               	movlw	1
  4413  075B  07B6               	addwf	___flmul@prod+2,f
  4414  075C  3000               	movlw	0
  4415  075D  1803               	skipnc
  4416  075E  3001               	movlw	1
  4417  075F  07B7               	addwf	___flmul@prod+3,f
  4418  0760                     l2123:
  4419  0760  1C37               	btfss	___flmul@prod+3,0
  4420  0761  2F63               	goto	u2761
  4421  0762  2F64               	goto	u2760
  4422  0763                     u2761:
  4423  0763  2F83               	goto	l2129
  4424  0764                     u2760:
  4425  0764                     l2125:
  4426  0764  0834               	movf	___flmul@prod,w
  4427  0765  00A8               	movwf	??___flmul
  4428  0766  0835               	movf	___flmul@prod+1,w
  4429  0767  00A9               	movwf	??___flmul+1
  4430  0768  0836               	movf	___flmul@prod+2,w
  4431  0769  00AA               	movwf	??___flmul+2
  4432  076A  0837               	movf	___flmul@prod+3,w
  4433  076B  00AB               	movwf	??___flmul+3
  4434  076C  3001               	movlw	1
  4435  076D  00AC               	movwf	??___flmul+4
  4436  076E                     u2775:
  4437  076E  0D2B               	rlf	??___flmul+3,w
  4438  076F  0CAB               	rrf	??___flmul+3,f
  4439  0770  0CAA               	rrf	??___flmul+2,f
  4440  0771  0CA9               	rrf	??___flmul+1,f
  4441  0772  0CA8               	rrf	??___flmul,f
  4442  0773                     u2770:
  4443  0773  0BAC               	decfsz	??___flmul+4,f
  4444  0774  2F6E               	goto	u2775
  4445  0775  082B               	movf	??___flmul+3,w
  4446  0776  00B7               	movwf	___flmul@prod+3
  4447  0777  082A               	movf	??___flmul+2,w
  4448  0778  00B6               	movwf	___flmul@prod+2
  4449  0779  0829               	movf	??___flmul+1,w
  4450  077A  00B5               	movwf	___flmul@prod+1
  4451  077B  0828               	movf	??___flmul,w
  4452  077C  00B4               	movwf	___flmul@prod
  4453  077D                     l2127:
  4454  077D  3001               	movlw	1
  4455  077E  07B8               	addwf	___flmul@temp,f
  4456  077F  1803               	skipnc
  4457  0780  0AB9               	incf	___flmul@temp+1,f
  4458  0781  3000               	movlw	0
  4459  0782  07B9               	addwf	___flmul@temp+1,f
  4460  0783                     l2129:
  4461  0783  0839               	movf	___flmul@temp+1,w
  4462  0784  3A80               	xorlw	128
  4463  0785  00FF               	movwf	btemp+1
  4464  0786  3080               	movlw	128
  4465  0787  027F               	subwf	btemp+1,w
  4466  0788  1D03               	skipz
  4467  0789  2F8C               	goto	u2785
  4468  078A  30FF               	movlw	255
  4469  078B  0238               	subwf	___flmul@temp,w
  4470  078C                     u2785:
  4471  078C  1C03               	skipc
  4472  078D  2F8F               	goto	u2781
  4473  078E  2F90               	goto	u2780
  4474  078F                     u2781:
  4475  078F  2F9B               	goto	l2133
  4476  0790                     u2780:
  4477  0790                     l2131:
  4478  0790  307F               	movlw	127
  4479  0791  1283               	bcf	3,5	;RP0=0, select bank0
  4480  0792  1303               	bcf	3,6	;RP1=0, select bank0
  4481  0793  00B7               	movwf	___flmul@prod+3
  4482  0794  3080               	movlw	128
  4483  0795  00B6               	movwf	___flmul@prod+2
  4484  0796  3000               	movlw	0
  4485  0797  00B5               	movwf	___flmul@prod+1
  4486  0798  3000               	movlw	0
  4487  0799  00B4               	movwf	___flmul@prod
  4488  079A  2FD0               	goto	l708
  4489  079B                     l2133:
  4490  079B  1283               	bcf	3,5	;RP0=0, select bank0
  4491  079C  1303               	bcf	3,6	;RP1=0, select bank0
  4492  079D  0839               	movf	___flmul@temp+1,w
  4493  079E  3A80               	xorlw	128
  4494  079F  00FF               	movwf	btemp+1
  4495  07A0  3080               	movlw	128
  4496  07A1  027F               	subwf	btemp+1,w
  4497  07A2  1D03               	skipz
  4498  07A3  2FA6               	goto	u2795
  4499  07A4  3001               	movlw	1
  4500  07A5  0238               	subwf	___flmul@temp,w
  4501  07A6                     u2795:
  4502  07A6  1803               	skipnc
  4503  07A7  2FA9               	goto	u2791
  4504  07A8  2FAA               	goto	u2790
  4505  07A9                     u2791:
  4506  07A9  2FB6               	goto	l2139
  4507  07AA                     u2790:
  4508  07AA                     l2135:
  4509  07AA  3000               	movlw	0
  4510  07AB  1283               	bcf	3,5	;RP0=0, select bank0
  4511  07AC  1303               	bcf	3,6	;RP1=0, select bank0
  4512  07AD  00B7               	movwf	___flmul@prod+3
  4513  07AE  3000               	movlw	0
  4514  07AF  00B6               	movwf	___flmul@prod+2
  4515  07B0  3000               	movlw	0
  4516  07B1  00B5               	movwf	___flmul@prod+1
  4517  07B2  3000               	movlw	0
  4518  07B3  00B4               	movwf	___flmul@prod
  4519  07B4                     l2137:
  4520  07B4  01AD               	clrf	___flmul@sign
  4521  07B5  2FD0               	goto	l708
  4522  07B6                     l2139:
  4523  07B6  1283               	bcf	3,5	;RP0=0, select bank0
  4524  07B7  1303               	bcf	3,6	;RP1=0, select bank0
  4525  07B8  0838               	movf	___flmul@temp,w
  4526  07B9  00A8               	movwf	??___flmul
  4527  07BA  0828               	movf	??___flmul,w
  4528  07BB  00B3               	movwf	___flmul@bexp
  4529  07BC  30FF               	movlw	255
  4530  07BD  05B4               	andwf	___flmul@prod,f
  4531  07BE  30FF               	movlw	255
  4532  07BF  05B5               	andwf	___flmul@prod+1,f
  4533  07C0  307F               	movlw	127
  4534  07C1  05B6               	andwf	___flmul@prod+2,f
  4535  07C2  3000               	movlw	0
  4536  07C3  05B7               	andwf	___flmul@prod+3,f
  4537  07C4                     l2141:
  4538  07C4  1C33               	btfss	___flmul@bexp,0
  4539  07C5  2FC7               	goto	u2801
  4540  07C6  2FC8               	goto	u2800
  4541  07C7                     u2801:
  4542  07C7  2FC9               	goto	l2145
  4543  07C8                     u2800:
  4544  07C8                     l2143:
  4545  07C8  17B6               	bsf	___flmul@prod+2,7
  4546  07C9                     l2145:
  4547  07C9  0833               	movf	___flmul@bexp,w
  4548  07CA  00A8               	movwf	??___flmul
  4549  07CB  1003               	clrc
  4550  07CC  0C28               	rrf	??___flmul,w
  4551  07CD  00A9               	movwf	??___flmul+1
  4552  07CE  0829               	movf	??___flmul+1,w
  4553  07CF  00B7               	movwf	___flmul@prod+3
  4554  07D0                     l708:
  4555  07D0  082D               	movf	___flmul@sign,w
  4556  07D1  00A8               	movwf	??___flmul
  4557  07D2  0828               	movf	??___flmul,w
  4558  07D3  04B7               	iorwf	___flmul@prod+3,f
  4559  07D4                     l2147:
  4560  07D4  0837               	movf	___flmul@prod+3,w
  4561  07D5  00A3               	movwf	?___flmul+3
  4562  07D6  0836               	movf	___flmul@prod+2,w
  4563  07D7  00A2               	movwf	?___flmul+2
  4564  07D8  0835               	movf	___flmul@prod+1,w
  4565  07D9  00A1               	movwf	?___flmul+1
  4566  07DA  0834               	movf	___flmul@prod,w
  4567  07DB  00A0               	movwf	?___flmul
  4568  07DC                     l696:
  4569  07DC  0008               	return
  4570  07DD                     __end_of___flmul:
  4571                           
  4572                           	psect	text10
  4573  0BB0                     __ptext10:	
  4574 ;; *************** function __Umul8_16 *****************
  4575 ;; Defined at:
  4576 ;;		line 4 in file "C:\Program Files\Microchip\xc8\v2.31\pic\sources\c90\common\Umul8_16.c"
  4577 ;; Parameters:    Size  Location     Type
  4578 ;;  multiplier      1    wreg     unsigned char 
  4579 ;;  multiplicand    1    0[COMMON] unsigned char 
  4580 ;; Auto vars:     Size  Location     Type
  4581 ;;  multiplier      1    8[COMMON] unsigned char 
  4582 ;;  word_mpld       2    6[COMMON] unsigned int 
  4583 ;;  product         2    4[COMMON] unsigned int 
  4584 ;; Return value:  Size  Location     Type
  4585 ;;                  2    0[COMMON] unsigned int 
  4586 ;; Registers used:
  4587 ;;		wreg, status,2, status,0
  4588 ;; Tracked objects:
  4589 ;;		On entry : 0/0
  4590 ;;		On exit  : 0/0
  4591 ;;		Unchanged: 0/0
  4592 ;; Data sizes:     COMMON   BANK0   BANK1   BANK3   BANK2
  4593 ;;      Params:         2       0       0       0       0
  4594 ;;      Locals:         5       0       0       0       0
  4595 ;;      Temps:          2       0       0       0       0
  4596 ;;      Totals:         9       0       0       0       0
  4597 ;;Total ram usage:        9 bytes
  4598 ;; Hardware stack levels used:    1
  4599 ;; This function calls:
  4600 ;;		Nothing
  4601 ;; This function is called by:
  4602 ;;		___flmul
  4603 ;; This function uses a non-reentrant model
  4604 ;;
  4605                           
  4606                           
  4607                           ;psect for function __Umul8_16
  4608  0BB0                     __Umul8_16:
  4609                           
  4610                           ;incstack = 0
  4611                           ; Regs used in __Umul8_16: [wreg+status,2+status,0]
  4612                           ;__Umul8_16@multiplier stored from wreg
  4613  0BB0  00F8               	movwf	__Umul8_16@multiplier
  4614  0BB1                     l1921:
  4615  0BB1  01F4               	clrf	__Umul8_16@product
  4616  0BB2  01F5               	clrf	__Umul8_16@product+1
  4617  0BB3                     l1923:
  4618  0BB3  0870               	movf	__Umul8_16@multiplicand,w
  4619  0BB4  00F2               	movwf	??__Umul8_16
  4620  0BB5  01F3               	clrf	??__Umul8_16+1
  4621  0BB6  0872               	movf	??__Umul8_16,w
  4622  0BB7  00F6               	movwf	__Umul8_16@word_mpld
  4623  0BB8  0873               	movf	??__Umul8_16+1,w
  4624  0BB9  00F7               	movwf	__Umul8_16@word_mpld+1
  4625  0BBA                     l1925:
  4626  0BBA  1C78               	btfss	__Umul8_16@multiplier,0
  4627  0BBB  2BBD               	goto	u2261
  4628  0BBC  2BBE               	goto	u2260
  4629  0BBD                     u2261:
  4630  0BBD  2BC4               	goto	l715
  4631  0BBE                     u2260:
  4632  0BBE                     l1927:
  4633  0BBE  0876               	movf	__Umul8_16@word_mpld,w
  4634  0BBF  07F4               	addwf	__Umul8_16@product,f
  4635  0BC0  1803               	skipnc
  4636  0BC1  0AF5               	incf	__Umul8_16@product+1,f
  4637  0BC2  0877               	movf	__Umul8_16@word_mpld+1,w
  4638  0BC3  07F5               	addwf	__Umul8_16@product+1,f
  4639  0BC4                     l715:
  4640  0BC4  3001               	movlw	1
  4641  0BC5                     u2275:
  4642  0BC5  1003               	clrc
  4643  0BC6  0DF6               	rlf	__Umul8_16@word_mpld,f
  4644  0BC7  0DF7               	rlf	__Umul8_16@word_mpld+1,f
  4645  0BC8  3EFF               	addlw	-1
  4646  0BC9  1D03               	skipz
  4647  0BCA  2BC5               	goto	u2275
  4648  0BCB  1003               	clrc
  4649  0BCC  0CF8               	rrf	__Umul8_16@multiplier,f
  4650  0BCD                     l1929:
  4651  0BCD  0878               	movf	__Umul8_16@multiplier,w
  4652  0BCE  1D03               	btfss	3,2
  4653  0BCF  2BD1               	goto	u2281
  4654  0BD0  2BD2               	goto	u2280
  4655  0BD1                     u2281:
  4656  0BD1  2BBA               	goto	l1925
  4657  0BD2                     u2280:
  4658  0BD2                     l1931:
  4659  0BD2  0875               	movf	__Umul8_16@product+1,w
  4660  0BD3  00F1               	movwf	?__Umul8_16+1
  4661  0BD4  0874               	movf	__Umul8_16@product,w
  4662  0BD5  00F0               	movwf	?__Umul8_16
  4663  0BD6                     l717:
  4664  0BD6  0008               	return
  4665  0BD7                     __end_of__Umul8_16:
  4666                           
  4667                           	psect	text11
  4668  0C61                     __ptext11:	
  4669 ;; *************** function ___awmod *****************
  4670 ;; Defined at:
  4671 ;;		line 5 in file "C:\Program Files\Microchip\xc8\v2.31\pic\sources\c90\common\awmod.c"
  4672 ;; Parameters:    Size  Location     Type
  4673 ;;  divisor         2    0[COMMON] int 
  4674 ;;  dividend        2    2[COMMON] int 
  4675 ;; Auto vars:     Size  Location     Type
  4676 ;;  sign            1    6[COMMON] unsigned char 
  4677 ;;  counter         1    5[COMMON] unsigned char 
  4678 ;; Return value:  Size  Location     Type
  4679 ;;                  2    0[COMMON] int 
  4680 ;; Registers used:
  4681 ;;		wreg, status,2, status,0
  4682 ;; Tracked objects:
  4683 ;;		On entry : 0/0
  4684 ;;		On exit  : 0/0
  4685 ;;		Unchanged: 0/0
  4686 ;; Data sizes:     COMMON   BANK0   BANK1   BANK3   BANK2
  4687 ;;      Params:         4       0       0       0       0
  4688 ;;      Locals:         2       0       0       0       0
  4689 ;;      Temps:          1       0       0       0       0
  4690 ;;      Totals:         7       0       0       0       0
  4691 ;;Total ram usage:        7 bytes
  4692 ;; Hardware stack levels used:    1
  4693 ;; This function calls:
  4694 ;;		Nothing
  4695 ;; This function is called by:
  4696 ;;		_main
  4697 ;; This function uses a non-reentrant model
  4698 ;;
  4699                           
  4700                           
  4701                           ;psect for function ___awmod
  4702  0C61                     ___awmod:
  4703  0C61                     l2319:	
  4704                           ;incstack = 0
  4705                           ; Regs used in ___awmod: [wreg+status,2+status,0]
  4706                           
  4707  0C61  01F6               	clrf	___awmod@sign
  4708  0C62                     l2321:
  4709  0C62  1FF3               	btfss	___awmod@dividend+1,7
  4710  0C63  2C65               	goto	u3061
  4711  0C64  2C66               	goto	u3060
  4712  0C65                     u3061:
  4713  0C65  2C6D               	goto	l2327
  4714  0C66                     u3060:
  4715  0C66                     l2323:
  4716  0C66  09F2               	comf	___awmod@dividend,f
  4717  0C67  09F3               	comf	___awmod@dividend+1,f
  4718  0C68  0AF2               	incf	___awmod@dividend,f
  4719  0C69  1903               	skipnz
  4720  0C6A  0AF3               	incf	___awmod@dividend+1,f
  4721  0C6B                     l2325:
  4722  0C6B  01F6               	clrf	___awmod@sign
  4723  0C6C  0AF6               	incf	___awmod@sign,f
  4724  0C6D                     l2327:
  4725  0C6D  1FF1               	btfss	___awmod@divisor+1,7
  4726  0C6E  2C70               	goto	u3071
  4727  0C6F  2C71               	goto	u3070
  4728  0C70                     u3071:
  4729  0C70  2C76               	goto	l2331
  4730  0C71                     u3070:
  4731  0C71                     l2329:
  4732  0C71  09F0               	comf	___awmod@divisor,f
  4733  0C72  09F1               	comf	___awmod@divisor+1,f
  4734  0C73  0AF0               	incf	___awmod@divisor,f
  4735  0C74  1903               	skipnz
  4736  0C75  0AF1               	incf	___awmod@divisor+1,f
  4737  0C76                     l2331:
  4738  0C76  0870               	movf	___awmod@divisor,w
  4739  0C77  0471               	iorwf	___awmod@divisor+1,w
  4740  0C78  1903               	btfsc	3,2
  4741  0C79  2C7B               	goto	u3081
  4742  0C7A  2C7C               	goto	u3080
  4743  0C7B                     u3081:
  4744  0C7B  2CAB               	goto	l2349
  4745  0C7C                     u3080:
  4746  0C7C                     l2333:
  4747  0C7C  01F5               	clrf	___awmod@counter
  4748  0C7D  0AF5               	incf	___awmod@counter,f
  4749  0C7E  2C8A               	goto	l2339
  4750  0C7F                     l2335:
  4751  0C7F  3001               	movlw	1
  4752  0C80                     u3095:
  4753  0C80  1003               	clrc
  4754  0C81  0DF0               	rlf	___awmod@divisor,f
  4755  0C82  0DF1               	rlf	___awmod@divisor+1,f
  4756  0C83  3EFF               	addlw	-1
  4757  0C84  1D03               	skipz
  4758  0C85  2C80               	goto	u3095
  4759  0C86                     l2337:
  4760  0C86  3001               	movlw	1
  4761  0C87  00F4               	movwf	??___awmod
  4762  0C88  0874               	movf	??___awmod,w
  4763  0C89  07F5               	addwf	___awmod@counter,f
  4764  0C8A                     l2339:
  4765  0C8A  1FF1               	btfss	___awmod@divisor+1,7
  4766  0C8B  2C8D               	goto	u3101
  4767  0C8C  2C8E               	goto	u3100
  4768  0C8D                     u3101:
  4769  0C8D  2C7F               	goto	l2335
  4770  0C8E                     u3100:
  4771  0C8E                     l2341:
  4772  0C8E  0871               	movf	___awmod@divisor+1,w
  4773  0C8F  0273               	subwf	___awmod@dividend+1,w
  4774  0C90  1D03               	skipz
  4775  0C91  2C94               	goto	u3115
  4776  0C92  0870               	movf	___awmod@divisor,w
  4777  0C93  0272               	subwf	___awmod@dividend,w
  4778  0C94                     u3115:
  4779  0C94  1C03               	skipc
  4780  0C95  2C97               	goto	u3111
  4781  0C96  2C98               	goto	u3110
  4782  0C97                     u3111:
  4783  0C97  2C9E               	goto	l2345
  4784  0C98                     u3110:
  4785  0C98                     l2343:
  4786  0C98  0870               	movf	___awmod@divisor,w
  4787  0C99  02F2               	subwf	___awmod@dividend,f
  4788  0C9A  0871               	movf	___awmod@divisor+1,w
  4789  0C9B  1C03               	skipc
  4790  0C9C  03F3               	decf	___awmod@dividend+1,f
  4791  0C9D  02F3               	subwf	___awmod@dividend+1,f
  4792  0C9E                     l2345:
  4793  0C9E  3001               	movlw	1
  4794  0C9F                     u3125:
  4795  0C9F  1003               	clrc
  4796  0CA0  0CF1               	rrf	___awmod@divisor+1,f
  4797  0CA1  0CF0               	rrf	___awmod@divisor,f
  4798  0CA2  3EFF               	addlw	-1
  4799  0CA3  1D03               	skipz
  4800  0CA4  2C9F               	goto	u3125
  4801  0CA5                     l2347:
  4802  0CA5  3001               	movlw	1
  4803  0CA6  02F5               	subwf	___awmod@counter,f
  4804  0CA7  1D03               	btfss	3,2
  4805  0CA8  2CAA               	goto	u3131
  4806  0CA9  2CAB               	goto	u3130
  4807  0CAA                     u3131:
  4808  0CAA  2C8E               	goto	l2341
  4809  0CAB                     u3130:
  4810  0CAB                     l2349:
  4811  0CAB  0876               	movf	___awmod@sign,w
  4812  0CAC  1903               	btfsc	3,2
  4813  0CAD  2CAF               	goto	u3141
  4814  0CAE  2CB0               	goto	u3140
  4815  0CAF                     u3141:
  4816  0CAF  2CB5               	goto	l2353
  4817  0CB0                     u3140:
  4818  0CB0                     l2351:
  4819  0CB0  09F2               	comf	___awmod@dividend,f
  4820  0CB1  09F3               	comf	___awmod@dividend+1,f
  4821  0CB2  0AF2               	incf	___awmod@dividend,f
  4822  0CB3  1903               	skipnz
  4823  0CB4  0AF3               	incf	___awmod@dividend+1,f
  4824  0CB5                     l2353:
  4825  0CB5  0873               	movf	___awmod@dividend+1,w
  4826  0CB6  00F1               	movwf	?___awmod+1
  4827  0CB7  0872               	movf	___awmod@dividend,w
  4828  0CB8  00F0               	movwf	?___awmod
  4829  0CB9                     l473:
  4830  0CB9  0008               	return
  4831  0CBA                     __end_of___awmod:
  4832                           
  4833                           	psect	text12
  4834  0B1A                     __ptext12:	
  4835 ;; *************** function _MasterStop_I2C *****************
  4836 ;; Defined at:
  4837 ;;		line 34 in file "I2C.c"
  4838 ;; Parameters:    Size  Location     Type
  4839 ;;		None
  4840 ;; Auto vars:     Size  Location     Type
  4841 ;;		None
  4842 ;; Return value:  Size  Location     Type
  4843 ;;                  1    wreg      void 
  4844 ;; Registers used:
  4845 ;;		wreg, status,2, status,0, pclath, cstack
  4846 ;; Tracked objects:
  4847 ;;		On entry : 0/0
  4848 ;;		On exit  : 0/0
  4849 ;;		Unchanged: 0/0
  4850 ;; Data sizes:     COMMON   BANK0   BANK1   BANK3   BANK2
  4851 ;;      Params:         0       0       0       0       0
  4852 ;;      Locals:         0       0       0       0       0
  4853 ;;      Temps:          0       0       0       0       0
  4854 ;;      Totals:         0       0       0       0       0
  4855 ;;Total ram usage:        0 bytes
  4856 ;; Hardware stack levels used:    1
  4857 ;; Hardware stack levels required when called:    1
  4858 ;; This function calls:
  4859 ;;		_waitCondition
  4860 ;; This function is called by:
  4861 ;;		_main
  4862 ;; This function uses a non-reentrant model
  4863 ;;
  4864                           
  4865                           
  4866                           ;psect for function _MasterStop_I2C
  4867  0B1A                     _MasterStop_I2C:
  4868  0B1A                     l2221:	
  4869                           ;incstack = 0
  4870                           ; Regs used in _MasterStop_I2C: [wreg+status,2+status,0+pclath+cstack]
  4871                           
  4872                           
  4873                           ;I2C.c: 35:     waitCondition();
  4874  0B1A  120A  158A  232E  120A  158A  	fcall	_waitCondition
  4875  0B1F                     l2223:
  4876                           
  4877                           ;I2C.c: 36:     SSPCON2bits.PEN = 1;
  4878  0B1F  1683               	bsf	3,5	;RP0=1, select bank1
  4879  0B20  1303               	bcf	3,6	;RP1=0, select bank1
  4880  0B21  1511               	bsf	17,2	;volatile
  4881  0B22                     l165:
  4882  0B22  0008               	return
  4883  0B23                     __end_of_MasterStop_I2C:
  4884                           
  4885                           	psect	text13
  4886  0B11                     __ptext13:	
  4887 ;; *************** function _MasterStart_I2C *****************
  4888 ;; Defined at:
  4889 ;;		line 29 in file "I2C.c"
  4890 ;; Parameters:    Size  Location     Type
  4891 ;;		None
  4892 ;; Auto vars:     Size  Location     Type
  4893 ;;		None
  4894 ;; Return value:  Size  Location     Type
  4895 ;;                  1    wreg      void 
  4896 ;; Registers used:
  4897 ;;		wreg, status,2, status,0, pclath, cstack
  4898 ;; Tracked objects:
  4899 ;;		On entry : 0/0
  4900 ;;		On exit  : 0/0
  4901 ;;		Unchanged: 0/0
  4902 ;; Data sizes:     COMMON   BANK0   BANK1   BANK3   BANK2
  4903 ;;      Params:         0       0       0       0       0
  4904 ;;      Locals:         0       0       0       0       0
  4905 ;;      Temps:          0       0       0       0       0
  4906 ;;      Totals:         0       0       0       0       0
  4907 ;;Total ram usage:        0 bytes
  4908 ;; Hardware stack levels used:    1
  4909 ;; Hardware stack levels required when called:    1
  4910 ;; This function calls:
  4911 ;;		_waitCondition
  4912 ;; This function is called by:
  4913 ;;		_main
  4914 ;; This function uses a non-reentrant model
  4915 ;;
  4916                           
  4917                           
  4918                           ;psect for function _MasterStart_I2C
  4919  0B11                     _MasterStart_I2C:
  4920  0B11                     l2213:	
  4921                           ;incstack = 0
  4922                           ; Regs used in _MasterStart_I2C: [wreg+status,2+status,0+pclath+cstack]
  4923                           
  4924                           
  4925                           ;I2C.c: 30:     waitCondition();
  4926  0B11  120A  158A  232E  120A  158A  	fcall	_waitCondition
  4927  0B16                     l2215:
  4928                           
  4929                           ;I2C.c: 31:     SSPCON2bits.SEN = 1;
  4930  0B16  1683               	bsf	3,5	;RP0=1, select bank1
  4931  0B17  1303               	bcf	3,6	;RP1=0, select bank1
  4932  0B18  1411               	bsf	17,0	;volatile
  4933  0B19                     l162:
  4934  0B19  0008               	return
  4935  0B1A                     __end_of_MasterStart_I2C:
  4936                           
  4937                           	psect	text14
  4938  0B23                     __ptext14:	
  4939 ;; *************** function _MasterSend_I2C *****************
  4940 ;; Defined at:
  4941 ;;		line 44 in file "I2C.c"
  4942 ;; Parameters:    Size  Location     Type
  4943 ;;  dato            1    wreg     unsigned char 
  4944 ;; Auto vars:     Size  Location     Type
  4945 ;;  dato            1    0[COMMON] unsigned char 
  4946 ;; Return value:  Size  Location     Type
  4947 ;;                  1    wreg      void 
  4948 ;; Registers used:
  4949 ;;		wreg, status,2, status,0, pclath, cstack
  4950 ;; Tracked objects:
  4951 ;;		On entry : 0/0
  4952 ;;		On exit  : 0/0
  4953 ;;		Unchanged: 0/0
  4954 ;; Data sizes:     COMMON   BANK0   BANK1   BANK3   BANK2
  4955 ;;      Params:         0       0       0       0       0
  4956 ;;      Locals:         1       0       0       0       0
  4957 ;;      Temps:          0       0       0       0       0
  4958 ;;      Totals:         1       0       0       0       0
  4959 ;;Total ram usage:        1 bytes
  4960 ;; Hardware stack levels used:    1
  4961 ;; Hardware stack levels required when called:    1
  4962 ;; This function calls:
  4963 ;;		_waitCondition
  4964 ;; This function is called by:
  4965 ;;		_main
  4966 ;; This function uses a non-reentrant model
  4967 ;;
  4968                           
  4969                           
  4970                           ;psect for function _MasterSend_I2C
  4971  0B23                     _MasterSend_I2C:
  4972                           
  4973                           ;incstack = 0
  4974                           ; Regs used in _MasterSend_I2C: [wreg+status,2+status,0+pclath+cstack]
  4975                           ;MasterSend_I2C@dato stored from wreg
  4976  0B23  00F0               	movwf	MasterSend_I2C@dato
  4977  0B24                     l2217:
  4978                           
  4979                           ;I2C.c: 45:     waitCondition();
  4980  0B24  120A  158A  232E  120A  158A  	fcall	_waitCondition
  4981  0B29                     l2219:
  4982                           
  4983                           ;I2C.c: 46:     SSPBUF = dato;
  4984  0B29  0870               	movf	MasterSend_I2C@dato,w
  4985  0B2A  1283               	bcf	3,5	;RP0=0, select bank0
  4986  0B2B  1303               	bcf	3,6	;RP1=0, select bank0
  4987  0B2C  0093               	movwf	19	;volatile
  4988  0B2D                     l171:
  4989  0B2D  0008               	return
  4990  0B2E                     __end_of_MasterSend_I2C:
  4991                           
  4992                           	psect	text15
  4993  0B08                     __ptext15:	
  4994 ;; *************** function _MasterRepeatS_I2C *****************
  4995 ;; Defined at:
  4996 ;;		line 39 in file "I2C.c"
  4997 ;; Parameters:    Size  Location     Type
  4998 ;;		None
  4999 ;; Auto vars:     Size  Location     Type
  5000 ;;		None
  5001 ;; Return value:  Size  Location     Type
  5002 ;;                  1    wreg      void 
  5003 ;; Registers used:
  5004 ;;		wreg, status,2, status,0, pclath, cstack
  5005 ;; Tracked objects:
  5006 ;;		On entry : 0/0
  5007 ;;		On exit  : 0/0
  5008 ;;		Unchanged: 0/0
  5009 ;; Data sizes:     COMMON   BANK0   BANK1   BANK3   BANK2
  5010 ;;      Params:         0       0       0       0       0
  5011 ;;      Locals:         0       0       0       0       0
  5012 ;;      Temps:          0       0       0       0       0
  5013 ;;      Totals:         0       0       0       0       0
  5014 ;;Total ram usage:        0 bytes
  5015 ;; Hardware stack levels used:    1
  5016 ;; Hardware stack levels required when called:    1
  5017 ;; This function calls:
  5018 ;;		_waitCondition
  5019 ;; This function is called by:
  5020 ;;		_main
  5021 ;; This function uses a non-reentrant model
  5022 ;;
  5023                           
  5024                           
  5025                           ;psect for function _MasterRepeatS_I2C
  5026  0B08                     _MasterRepeatS_I2C:
  5027  0B08                     l2225:	
  5028                           ;incstack = 0
  5029                           ; Regs used in _MasterRepeatS_I2C: [wreg+status,2+status,0+pclath+cstack]
  5030                           
  5031                           
  5032                           ;I2C.c: 40:     waitCondition();
  5033  0B08  120A  158A  232E  120A  158A  	fcall	_waitCondition
  5034  0B0D                     l2227:
  5035                           
  5036                           ;I2C.c: 41:     SSPCON2bits.RSEN = 1;
  5037  0B0D  1683               	bsf	3,5	;RP0=1, select bank1
  5038  0B0E  1303               	bcf	3,6	;RP1=0, select bank1
  5039  0B0F  1491               	bsf	17,1	;volatile
  5040  0B10                     l168:
  5041  0B10  0008               	return
  5042  0B11                     __end_of_MasterRepeatS_I2C:
  5043                           
  5044                           	psect	text16
  5045  0B6B                     __ptext16:	
  5046 ;; *************** function _MasterReceive_I2C *****************
  5047 ;; Defined at:
  5048 ;;		line 49 in file "I2C.c"
  5049 ;; Parameters:    Size  Location     Type
  5050 ;;  valor           1    wreg     PTR unsigned char 
  5051 ;;		 -> TempDEC(1), TempENT(1), 
  5052 ;; Auto vars:     Size  Location     Type
  5053 ;;  valor           1    1[COMMON] PTR unsigned char 
  5054 ;;		 -> TempDEC(1), TempENT(1), 
  5055 ;; Return value:  Size  Location     Type
  5056 ;;                  1    wreg      void 
  5057 ;; Registers used:
  5058 ;;		wreg, fsr0l, fsr0h, status,2, status,0, pclath, cstack
  5059 ;; Tracked objects:
  5060 ;;		On entry : 0/0
  5061 ;;		On exit  : 0/0
  5062 ;;		Unchanged: 0/0
  5063 ;; Data sizes:     COMMON   BANK0   BANK1   BANK3   BANK2
  5064 ;;      Params:         0       0       0       0       0
  5065 ;;      Locals:         1       0       0       0       0
  5066 ;;      Temps:          1       0       0       0       0
  5067 ;;      Totals:         2       0       0       0       0
  5068 ;;Total ram usage:        2 bytes
  5069 ;; Hardware stack levels used:    1
  5070 ;; Hardware stack levels required when called:    1
  5071 ;; This function calls:
  5072 ;;		_waitCondition
  5073 ;; This function is called by:
  5074 ;;		_main
  5075 ;; This function uses a non-reentrant model
  5076 ;;
  5077                           
  5078                           
  5079                           ;psect for function _MasterReceive_I2C
  5080  0B6B                     _MasterReceive_I2C:
  5081                           
  5082                           ;incstack = 0
  5083                           ; Regs used in _MasterReceive_I2C: [wreg-fsr0h+status,2+status,0+pclath+cstack]
  5084                           ;MasterReceive_I2C@valor stored from wreg
  5085  0B6B  00F1               	movwf	MasterReceive_I2C@valor
  5086  0B6C                     l2229:
  5087                           
  5088                           ;I2C.c: 50:     waitCondition();
  5089  0B6C  120A  158A  232E  120A  158A  	fcall	_waitCondition
  5090  0B71                     l2231:
  5091                           
  5092                           ;I2C.c: 51:     SSPCON2bits.RCEN = 1;
  5093  0B71  1683               	bsf	3,5	;RP0=1, select bank1
  5094  0B72  1303               	bcf	3,6	;RP1=0, select bank1
  5095  0B73  1591               	bsf	17,3	;volatile
  5096                           
  5097                           ;I2C.c: 52:     waitCondition();
  5098  0B74  120A  158A  232E  120A  158A  	fcall	_waitCondition
  5099  0B79                     l2233:
  5100                           
  5101                           ;I2C.c: 53:     *valor = SSPBUF;
  5102  0B79  1283               	bcf	3,5	;RP0=0, select bank0
  5103  0B7A  1303               	bcf	3,6	;RP1=0, select bank0
  5104  0B7B  0813               	movf	19,w	;volatile
  5105  0B7C  00F0               	movwf	??_MasterReceive_I2C
  5106  0B7D  0871               	movf	MasterReceive_I2C@valor,w
  5107  0B7E  0084               	movwf	4
  5108  0B7F  0870               	movf	??_MasterReceive_I2C,w
  5109  0B80  1383               	bcf	3,7	;select IRP bank0
  5110  0B81  0080               	movwf	0
  5111  0B82                     l2235:
  5112                           
  5113                           ;I2C.c: 54:     waitCondition();
  5114  0B82  120A  158A  232E  120A  158A  	fcall	_waitCondition
  5115  0B87                     l2237:
  5116                           
  5117                           ;I2C.c: 55:     SSPCON2bits.ACKDT = 0;
  5118  0B87  1683               	bsf	3,5	;RP0=1, select bank1
  5119  0B88  1303               	bcf	3,6	;RP1=0, select bank1
  5120  0B89  1291               	bcf	17,5	;volatile
  5121  0B8A                     l2239:
  5122                           
  5123                           ;I2C.c: 56:     SSPCON2bits.ACKEN = 1;
  5124  0B8A  1611               	bsf	17,4	;volatile
  5125  0B8B                     l174:
  5126  0B8B  0008               	return
  5127  0B8C                     __end_of_MasterReceive_I2C:
  5128                           
  5129                           	psect	text17
  5130  0B2E                     __ptext17:	
  5131 ;; *************** function _waitCondition *****************
  5132 ;; Defined at:
  5133 ;;		line 23 in file "I2C.c"
  5134 ;; Parameters:    Size  Location     Type
  5135 ;;		None
  5136 ;; Auto vars:     Size  Location     Type
  5137 ;;		None
  5138 ;; Return value:  Size  Location     Type
  5139 ;;                  1    wreg      void 
  5140 ;; Registers used:
  5141 ;;		wreg, status,2
  5142 ;; Tracked objects:
  5143 ;;		On entry : 0/0
  5144 ;;		On exit  : 0/0
  5145 ;;		Unchanged: 0/0
  5146 ;; Data sizes:     COMMON   BANK0   BANK1   BANK3   BANK2
  5147 ;;      Params:         0       0       0       0       0
  5148 ;;      Locals:         0       0       0       0       0
  5149 ;;      Temps:          0       0       0       0       0
  5150 ;;      Totals:         0       0       0       0       0
  5151 ;;Total ram usage:        0 bytes
  5152 ;; Hardware stack levels used:    1
  5153 ;; This function calls:
  5154 ;;		Nothing
  5155 ;; This function is called by:
  5156 ;;		_MasterStart_I2C
  5157 ;;		_MasterStop_I2C
  5158 ;;		_MasterRepeatS_I2C
  5159 ;;		_MasterSend_I2C
  5160 ;;		_MasterReceive_I2C
  5161 ;; This function uses a non-reentrant model
  5162 ;;
  5163                           
  5164                           
  5165                           ;psect for function _waitCondition
  5166  0B2E                     _waitCondition:
  5167  0B2E                     l1965:	
  5168                           ;incstack = 0
  5169                           ; Regs used in _waitCondition: [wreg+status,2]
  5170                           
  5171  0B2E                     l156:	
  5172                           ;I2C.c: 24:     while ((SSPSTAT & 0x04) || (SSPCON2 & 0x1F));
  5173                           
  5174  0B2E  1683               	bsf	3,5	;RP0=1, select bank1
  5175  0B2F  1303               	bcf	3,6	;RP1=0, select bank1
  5176  0B30  1914               	btfsc	20,2	;volatile
  5177  0B31  2B33               	goto	u2321
  5178  0B32  2B34               	goto	u2320
  5179  0B33                     u2321:
  5180  0B33  2B2E               	goto	l156
  5181  0B34                     u2320:
  5182  0B34                     l1967:
  5183  0B34  0811               	movf	17,w	;volatile
  5184  0B35  391F               	andlw	31
  5185  0B36  1D03               	btfss	3,2
  5186  0B37  2B39               	goto	u2331
  5187  0B38  2B3A               	goto	u2330
  5188  0B39                     u2331:
  5189  0B39  2B2E               	goto	l156
  5190  0B3A                     u2330:
  5191  0B3A                     l159:
  5192  0B3A  0008               	return
  5193  0B3B                     __end_of_waitCondition:
  5194                           
  5195                           	psect	text18
  5196  0B50                     __ptext18:	
  5197 ;; *************** function _DHT11_START *****************
  5198 ;; Defined at:
  5199 ;;		line 11 in file "DHT11.c"
  5200 ;; Parameters:    Size  Location     Type
  5201 ;;		None
  5202 ;; Auto vars:     Size  Location     Type
  5203 ;;		None
  5204 ;; Return value:  Size  Location     Type
  5205 ;;                  1    wreg      void 
  5206 ;; Registers used:
  5207 ;;		wreg
  5208 ;; Tracked objects:
  5209 ;;		On entry : 0/0
  5210 ;;		On exit  : 0/0
  5211 ;;		Unchanged: 0/0
  5212 ;; Data sizes:     COMMON   BANK0   BANK1   BANK3   BANK2
  5213 ;;      Params:         0       0       0       0       0
  5214 ;;      Locals:         0       0       0       0       0
  5215 ;;      Temps:          2       0       0       0       0
  5216 ;;      Totals:         2       0       0       0       0
  5217 ;;Total ram usage:        2 bytes
  5218 ;; Hardware stack levels used:    1
  5219 ;; This function calls:
  5220 ;;		Nothing
  5221 ;; This function is called by:
  5222 ;;		_main
  5223 ;; This function uses a non-reentrant model
  5224 ;;
  5225                           
  5226                           
  5227                           ;psect for function _DHT11_START
  5228  0B50                     _DHT11_START:
  5229  0B50                     l2263:	
  5230                           ;incstack = 0
  5231                           ; Regs used in _DHT11_START: [wreg]
  5232                           
  5233                           
  5234                           ;DHT11.c: 15:     TRISEbits.TRISE0 = 0;
  5235  0B50  1683               	bsf	3,5	;RP0=1, select bank1
  5236  0B51  1303               	bcf	3,6	;RP1=0, select bank1
  5237  0B52  1009               	bcf	9,0	;volatile
  5238                           
  5239                           ;DHT11.c: 16:     RE0 = 0;
  5240  0B53  1283               	bcf	3,5	;RP0=0, select bank0
  5241  0B54  1303               	bcf	3,6	;RP1=0, select bank0
  5242  0B55  1009               	bcf	9,0	;volatile
  5243  0B56                     l2265:
  5244                           
  5245                           ;DHT11.c: 17:     _delay((unsigned long)((25)*(8000000/4000.0)));
  5246  0B56  3041               	movlw	65
  5247  0B57  00F1               	movwf	??_DHT11_START+1
  5248  0B58  30EE               	movlw	238
  5249  0B59  00F0               	movwf	??_DHT11_START
  5250  0B5A                     u3197:
  5251  0B5A  0BF0               	decfsz	??_DHT11_START,f
  5252  0B5B  2B5A               	goto	u3197
  5253  0B5C  0BF1               	decfsz	??_DHT11_START+1,f
  5254  0B5D  2B5A               	goto	u3197
  5255  0B5E  0000               	nop
  5256  0B5F                     l2267:
  5257                           
  5258                           ;DHT11.c: 18:     RE0 = 1;
  5259  0B5F  1283               	bcf	3,5	;RP0=0, select bank0
  5260  0B60  1303               	bcf	3,6	;RP1=0, select bank0
  5261  0B61  1409               	bsf	9,0	;volatile
  5262                           
  5263                           ;DHT11.c: 19:     _delay((unsigned long)((25)*(8000000/4000000.0)));
  5264  0B62  3010               	movlw	16
  5265  0B63  00F0               	movwf	??_DHT11_START
  5266  0B64                     u3207:
  5267  0B64  0BF0               	decfsz	??_DHT11_START,f
  5268  0B65  2B64               	goto	u3207
  5269  0B66  0000               	nop
  5270  0B67                     l2269:
  5271                           
  5272                           ;DHT11.c: 20:     TRISEbits.TRISE0 = 1;
  5273  0B67  1683               	bsf	3,5	;RP0=1, select bank1
  5274  0B68  1303               	bcf	3,6	;RP1=0, select bank1
  5275  0B69  1409               	bsf	9,0	;volatile
  5276  0B6A                     l192:
  5277  0B6A  0008               	return
  5278  0B6B                     __end_of_DHT11_START:
  5279                           
  5280                           	psect	text19
  5281  0C2C                     __ptext19:	
  5282 ;; *************** function _DHT11_ReadData *****************
  5283 ;; Defined at:
  5284 ;;		line 45 in file "DHT11.c"
  5285 ;; Parameters:    Size  Location     Type
  5286 ;;  datos           1    wreg     PTR unsigned char 
  5287 ;;		 -> CHECKSUM(1), dummyT1(1), Temp1(1), dummyHum1(1), 
  5288 ;;		 -> Hum1(1), 
  5289 ;; Auto vars:     Size  Location     Type
  5290 ;;  datos           1    3[COMMON] PTR unsigned char 
  5291 ;;		 -> CHECKSUM(1), dummyT1(1), Temp1(1), dummyHum1(1), 
  5292 ;;		 -> Hum1(1), 
  5293 ;;  i               1    2[COMMON] unsigned char 
  5294 ;; Return value:  Size  Location     Type
  5295 ;;                  1    wreg      void 
  5296 ;; Registers used:
  5297 ;;		wreg, fsr0l, fsr0h, status,2, status,0
  5298 ;; Tracked objects:
  5299 ;;		On entry : 0/0
  5300 ;;		On exit  : 0/0
  5301 ;;		Unchanged: 0/0
  5302 ;; Data sizes:     COMMON   BANK0   BANK1   BANK3   BANK2
  5303 ;;      Params:         0       0       0       0       0
  5304 ;;      Locals:         2       0       0       0       0
  5305 ;;      Temps:          2       0       0       0       0
  5306 ;;      Totals:         4       0       0       0       0
  5307 ;;Total ram usage:        4 bytes
  5308 ;; Hardware stack levels used:    1
  5309 ;; This function calls:
  5310 ;;		Nothing
  5311 ;; This function is called by:
  5312 ;;		_main
  5313 ;; This function uses a non-reentrant model
  5314 ;;
  5315                           
  5316                           
  5317                           ;psect for function _DHT11_ReadData
  5318  0C2C                     _DHT11_ReadData:
  5319                           
  5320                           ;incstack = 0
  5321                           ; Regs used in _DHT11_ReadData: [wreg-fsr0h+status,2+status,0]
  5322                           ;DHT11_ReadData@datos stored from wreg
  5323  0C2C  00F3               	movwf	DHT11_ReadData@datos
  5324  0C2D                     l2301:
  5325                           
  5326                           ;DHT11.c: 46:     uint8_t i;;DHT11.c: 47:     *datos = 0;
  5327  0C2D  0873               	movf	DHT11_ReadData@datos,w
  5328  0C2E  0084               	movwf	4
  5329  0C2F  1383               	bcf	3,7	;select IRP bank0
  5330  0C30  0180               	clrf	0
  5331  0C31                     l2303:
  5332                           
  5333                           ;DHT11.c: 48:     for(i=0; i<8; i++){
  5334  0C31  01F2               	clrf	DHT11_ReadData@i
  5335  0C32                     l214:
  5336  0C32  1283               	bcf	3,5	;RP0=0, select bank0
  5337  0C33  1303               	bcf	3,6	;RP1=0, select bank0
  5338  0C34  1C09               	btfss	9,0	;volatile
  5339  0C35  2C37               	goto	u3011
  5340  0C36  2C38               	goto	u3010
  5341  0C37                     u3011:
  5342  0C37  2C32               	goto	l214
  5343  0C38                     u3010:
  5344  0C38                     l2309:
  5345                           
  5346                           ;DHT11.c: 50:         TMR1H = 0;
  5347  0C38  018F               	clrf	15	;volatile
  5348                           
  5349                           ;DHT11.c: 51:         TMR1L = 0;
  5350  0C39  018E               	clrf	14	;volatile
  5351  0C3A                     l217:	
  5352                           ;DHT11.c: 52:         while(RE0);
  5353                           
  5354  0C3A  1809               	btfsc	9,0	;volatile
  5355  0C3B  2C3D               	goto	u3021
  5356  0C3C  2C3E               	goto	u3020
  5357  0C3D                     u3021:
  5358  0C3D  2C3A               	goto	l217
  5359  0C3E                     u3020:
  5360  0C3E                     l2311:
  5361                           
  5362                           ;DHT11.c: 53:         if(TMR1L > 50)*datos |= (1 << (7-i));
  5363  0C3E  3033               	movlw	51
  5364  0C3F  020E               	subwf	14,w	;volatile
  5365  0C40  1C03               	skipc
  5366  0C41  2C43               	goto	u3031
  5367  0C42  2C44               	goto	u3030
  5368  0C43                     u3031:
  5369  0C43  2C56               	goto	l2315
  5370  0C44                     u3030:
  5371  0C44                     l2313:
  5372  0C44  3001               	movlw	1
  5373  0C45  00F0               	movwf	??_DHT11_ReadData
  5374  0C46  0872               	movf	DHT11_ReadData@i,w
  5375  0C47  3C07               	sublw	7
  5376  0C48  3E01               	addlw	1
  5377  0C49  2C4C               	goto	u3044
  5378  0C4A                     u3045:
  5379  0C4A  1003               	clrc
  5380  0C4B  0DF0               	rlf	??_DHT11_ReadData,f
  5381  0C4C                     u3044:
  5382  0C4C  3EFF               	addlw	-1
  5383  0C4D  1D03               	skipz
  5384  0C4E  2C4A               	goto	u3045
  5385  0C4F  0870               	movf	??_DHT11_ReadData,w
  5386  0C50  00F1               	movwf	??_DHT11_ReadData+1
  5387  0C51  0873               	movf	DHT11_ReadData@datos,w
  5388  0C52  0084               	movwf	4
  5389  0C53  0871               	movf	??_DHT11_ReadData+1,w
  5390  0C54  1383               	bcf	3,7	;select IRP bank0
  5391  0C55  0480               	iorwf	0,f
  5392  0C56                     l2315:
  5393                           
  5394                           ;DHT11.c: 56:     }
  5395  0C56  3001               	movlw	1
  5396  0C57  00F0               	movwf	??_DHT11_ReadData
  5397  0C58  0870               	movf	??_DHT11_ReadData,w
  5398  0C59  07F2               	addwf	DHT11_ReadData@i,f
  5399  0C5A                     l2317:
  5400  0C5A  3008               	movlw	8
  5401  0C5B  0272               	subwf	DHT11_ReadData@i,w
  5402  0C5C  1C03               	skipc
  5403  0C5D  2C5F               	goto	u3051
  5404  0C5E  2C60               	goto	u3050
  5405  0C5F                     u3051:
  5406  0C5F  2C32               	goto	l214
  5407  0C60                     u3050:
  5408  0C60                     l221:
  5409  0C60  0008               	return
  5410  0C61                     __end_of_DHT11_ReadData:
  5411                           
  5412                           	psect	text20
  5413  0C00                     __ptext20:	
  5414 ;; *************** function _DHT11_ALIVE *****************
  5415 ;; Defined at:
  5416 ;;		line 24 in file "DHT11.c"
  5417 ;; Parameters:    Size  Location     Type
  5418 ;;		None
  5419 ;; Auto vars:     Size  Location     Type
  5420 ;;		None
  5421 ;; Return value:  Size  Location     Type
  5422 ;;                  1    wreg      unsigned char 
  5423 ;; Registers used:
  5424 ;;		wreg, status,2
  5425 ;; Tracked objects:
  5426 ;;		On entry : 0/0
  5427 ;;		On exit  : 0/0
  5428 ;;		Unchanged: 0/0
  5429 ;; Data sizes:     COMMON   BANK0   BANK1   BANK3   BANK2
  5430 ;;      Params:         0       0       0       0       0
  5431 ;;      Locals:         0       0       0       0       0
  5432 ;;      Temps:          0       0       0       0       0
  5433 ;;      Totals:         0       0       0       0       0
  5434 ;;Total ram usage:        0 bytes
  5435 ;; Hardware stack levels used:    1
  5436 ;; This function calls:
  5437 ;;		Nothing
  5438 ;; This function is called by:
  5439 ;;		_main
  5440 ;; This function uses a non-reentrant model
  5441 ;;
  5442                           
  5443                           
  5444                           ;psect for function _DHT11_ALIVE
  5445  0C00                     _DHT11_ALIVE:
  5446  0C00                     l2271:	
  5447                           ;incstack = 0
  5448                           ; Regs used in _DHT11_ALIVE: [wreg+status,2]
  5449                           
  5450                           
  5451                           ;DHT11.c: 29:     TMR1H = 0;
  5452  0C00  1283               	bcf	3,5	;RP0=0, select bank0
  5453  0C01  1303               	bcf	3,6	;RP1=0, select bank0
  5454  0C02  018F               	clrf	15	;volatile
  5455                           
  5456                           ;DHT11.c: 30:     TMR1L = 0;
  5457  0C03  018E               	clrf	14	;volatile
  5458  0C04                     l2273:
  5459                           
  5460                           ;DHT11.c: 31:     T1CONbits.TMR1ON = 1;
  5461  0C04  1410               	bsf	16,0	;volatile
  5462  0C05                     l195:	
  5463                           ;DHT11.c: 32:     while(!RE0 && TMR1L < 100);
  5464                           
  5465  0C05  1809               	btfsc	9,0	;volatile
  5466  0C06  2C08               	goto	u2951
  5467  0C07  2C09               	goto	u2950
  5468  0C08                     u2951:
  5469  0C08  2C0F               	goto	l2277
  5470  0C09                     u2950:
  5471  0C09                     l2275:
  5472  0C09  3064               	movlw	100
  5473  0C0A  020E               	subwf	14,w	;volatile
  5474  0C0B  1C03               	skipc
  5475  0C0C  2C0E               	goto	u2961
  5476  0C0D  2C0F               	goto	u2960
  5477  0C0E                     u2961:
  5478  0C0E  2C05               	goto	l195
  5479  0C0F                     u2960:
  5480  0C0F                     l2277:
  5481                           
  5482                           ;DHT11.c: 34:     if(TMR1L > 99)return 0;
  5483  0C0F  3064               	movlw	100
  5484  0C10  020E               	subwf	14,w	;volatile
  5485  0C11  1C03               	skipc
  5486  0C12  2C14               	goto	u2971
  5487  0C13  2C15               	goto	u2970
  5488  0C14                     u2971:
  5489  0C14  2C17               	goto	l2285
  5490  0C15                     u2970:
  5491  0C15                     l2279:
  5492  0C15  3000               	movlw	0
  5493  0C16  2C2B               	goto	l201
  5494  0C17                     l2285:
  5495                           
  5496                           ;DHT11.c: 36:         TMR1H = 0;
  5497  0C17  018F               	clrf	15	;volatile
  5498                           
  5499                           ;DHT11.c: 37:         TMR1L = 0;
  5500  0C18  018E               	clrf	14	;volatile
  5501  0C19                     l203:	
  5502                           ;DHT11.c: 38:         while(RE0 && TMR1L < 100);
  5503                           
  5504  0C19  1C09               	btfss	9,0	;volatile
  5505  0C1A  2C1C               	goto	u2981
  5506  0C1B  2C1D               	goto	u2980
  5507  0C1C                     u2981:
  5508  0C1C  2C23               	goto	l2289
  5509  0C1D                     u2980:
  5510  0C1D                     l2287:
  5511  0C1D  3064               	movlw	100
  5512  0C1E  020E               	subwf	14,w	;volatile
  5513  0C1F  1C03               	skipc
  5514  0C20  2C22               	goto	u2991
  5515  0C21  2C23               	goto	u2990
  5516  0C22                     u2991:
  5517  0C22  2C19               	goto	l203
  5518  0C23                     u2990:
  5519  0C23                     l2289:
  5520                           
  5521                           ;DHT11.c: 40:         if(TMR1L > 99) return 0;
  5522  0C23  3064               	movlw	100
  5523  0C24  020E               	subwf	14,w	;volatile
  5524  0C25  1C03               	skipc
  5525  0C26  2C28               	goto	u3001
  5526  0C27  2C29               	goto	u3000
  5527  0C28                     u3001:
  5528  0C28  2C2A               	goto	l2297
  5529  0C29                     u3000:
  5530  0C29  2C15               	goto	l2279
  5531  0C2A                     l2297:
  5532  0C2A  3001               	movlw	1
  5533  0C2B                     l201:
  5534  0C2B  0008               	return
  5535  0C2C                     __end_of_DHT11_ALIVE:
  5536                           
  5537                           	psect	text21
  5538  0BD7                     __ptext21:	
  5539 ;; *************** function _CONFIG *****************
  5540 ;; Defined at:
  5541 ;;		line 136 in file "main.c"
  5542 ;; Parameters:    Size  Location     Type
  5543 ;;		None
  5544 ;; Auto vars:     Size  Location     Type
  5545 ;;		None
  5546 ;; Return value:  Size  Location     Type
  5547 ;;                  1    wreg      void 
  5548 ;; Registers used:
  5549 ;;		wreg, status,2, status,0, pclath, cstack
  5550 ;; Tracked objects:
  5551 ;;		On entry : 0/0
  5552 ;;		On exit  : 0/0
  5553 ;;		Unchanged: 0/0
  5554 ;; Data sizes:     COMMON   BANK0   BANK1   BANK3   BANK2
  5555 ;;      Params:         0       0       0       0       0
  5556 ;;      Locals:         0       0       0       0       0
  5557 ;;      Temps:          0       0       0       0       0
  5558 ;;      Totals:         0       0       0       0       0
  5559 ;;Total ram usage:        0 bytes
  5560 ;; Hardware stack levels used:    1
  5561 ;; Hardware stack levels required when called:    2
  5562 ;; This function calls:
  5563 ;;		_MasterInit_I2C
  5564 ;; This function is called by:
  5565 ;;		_main
  5566 ;; This function uses a non-reentrant model
  5567 ;;
  5568                           
  5569                           
  5570                           ;psect for function _CONFIG
  5571  0BD7                     _CONFIG:
  5572  0BD7                     l2195:	
  5573                           ;incstack = 0
  5574                           ; Regs used in _CONFIG: [wreg+status,2+status,0+pclath+cstack]
  5575                           
  5576                           
  5577                           ;main.c: 137:     ANSEL = 0X00;
  5578  0BD7  1683               	bsf	3,5	;RP0=1, select bank3
  5579  0BD8  1703               	bsf	3,6	;RP1=1, select bank3
  5580  0BD9  0188               	clrf	8	;volatile
  5581                           
  5582                           ;main.c: 138:     ANSELH = 0X00;
  5583  0BDA  0189               	clrf	9	;volatile
  5584                           
  5585                           ;main.c: 139:     TRISA = 0X00;
  5586  0BDB  1683               	bsf	3,5	;RP0=1, select bank1
  5587  0BDC  1303               	bcf	3,6	;RP1=0, select bank1
  5588  0BDD  0185               	clrf	5	;volatile
  5589                           
  5590                           ;main.c: 140:     TRISB = 0X00;
  5591  0BDE  0186               	clrf	6	;volatile
  5592                           
  5593                           ;main.c: 141:     TRISD = 0X00;
  5594  0BDF  0188               	clrf	8	;volatile
  5595  0BE0                     l2197:
  5596                           
  5597                           ;main.c: 142:     TRISEbits.TRISE1 = 0;
  5598  0BE0  1089               	bcf	9,1	;volatile
  5599  0BE1                     l2199:
  5600                           
  5601                           ;main.c: 143:     TRISEbits.TRISE2 = 0;
  5602  0BE1  1109               	bcf	9,2	;volatile
  5603                           
  5604                           ;main.c: 144:     PORTA = 0X00;
  5605  0BE2  1283               	bcf	3,5	;RP0=0, select bank0
  5606  0BE3  1303               	bcf	3,6	;RP1=0, select bank0
  5607  0BE4  0185               	clrf	5	;volatile
  5608                           
  5609                           ;main.c: 145:     PORTB = 0X00;
  5610  0BE5  0186               	clrf	6	;volatile
  5611                           
  5612                           ;main.c: 146:     PORTD = 0X00;
  5613  0BE6  0188               	clrf	8	;volatile
  5614  0BE7                     l2201:
  5615                           
  5616                           ;main.c: 149:     OSCCONbits.IRCF = 0b111;
  5617  0BE7  3070               	movlw	112
  5618  0BE8  1683               	bsf	3,5	;RP0=1, select bank1
  5619  0BE9  1303               	bcf	3,6	;RP1=0, select bank1
  5620  0BEA  048F               	iorwf	15,f	;volatile
  5621  0BEB                     l2203:
  5622                           
  5623                           ;main.c: 150:     OSCCONbits.SCS = 0b1;
  5624  0BEB  140F               	bsf	15,0	;volatile
  5625  0BEC                     l2205:
  5626                           
  5627                           ;main.c: 153:     T1CON = 0X10;
  5628  0BEC  3010               	movlw	16
  5629  0BED  1283               	bcf	3,5	;RP0=0, select bank0
  5630  0BEE  1303               	bcf	3,6	;RP1=0, select bank0
  5631  0BEF  0090               	movwf	16	;volatile
  5632  0BF0                     l2207:
  5633                           
  5634                           ;main.c: 154:     TMR1H = 0;
  5635  0BF0  018F               	clrf	15	;volatile
  5636  0BF1                     l2209:
  5637                           
  5638                           ;main.c: 155:     TMR1L = 0;
  5639  0BF1  018E               	clrf	14	;volatile
  5640  0BF2                     l2211:
  5641                           
  5642                           ;main.c: 156:     MasterInit_I2C(100000);
  5643  0BF2  3000               	movlw	0
  5644  0BF3  00A3               	movwf	MasterInit_I2C@frec+3
  5645  0BF4  3001               	movlw	1
  5646  0BF5  00A2               	movwf	MasterInit_I2C@frec+2
  5647  0BF6  3086               	movlw	134
  5648  0BF7  00A1               	movwf	MasterInit_I2C@frec+1
  5649  0BF8  30A0               	movlw	160
  5650  0BF9  00A0               	movwf	MasterInit_I2C@frec
  5651  0BFA  120A  118A  2005  120A  158A  	fcall	_MasterInit_I2C
  5652  0BFF                     l91:
  5653  0BFF  0008               	return
  5654  0C00                     __end_of_CONFIG:
  5655                           
  5656                           	psect	text22
  5657  0005                     __ptext22:	
  5658 ;; *************** function _MasterInit_I2C *****************
  5659 ;; Defined at:
  5660 ;;		line 13 in file "I2C.c"
  5661 ;; Parameters:    Size  Location     Type
  5662 ;;  frec            4    0[BANK0 ] unsigned long 
  5663 ;; Auto vars:     Size  Location     Type
  5664 ;;		None
  5665 ;; Return value:  Size  Location     Type
  5666 ;;                  1    wreg      void 
  5667 ;; Registers used:
  5668 ;;		wreg, status,2, status,0, pclath, cstack
  5669 ;; Tracked objects:
  5670 ;;		On entry : 0/0
  5671 ;;		On exit  : 0/0
  5672 ;;		Unchanged: 0/0
  5673 ;; Data sizes:     COMMON   BANK0   BANK1   BANK3   BANK2
  5674 ;;      Params:         0       4       0       0       0
  5675 ;;      Locals:         0       0       0       0       0
  5676 ;;      Temps:          0       4       0       0       0
  5677 ;;      Totals:         0       8       0       0       0
  5678 ;;Total ram usage:        8 bytes
  5679 ;; Hardware stack levels used:    1
  5680 ;; Hardware stack levels required when called:    1
  5681 ;; This function calls:
  5682 ;;		___lldiv
  5683 ;; This function is called by:
  5684 ;;		_CONFIG
  5685 ;; This function uses a non-reentrant model
  5686 ;;
  5687                           
  5688                           
  5689                           ;psect for function _MasterInit_I2C
  5690  0005                     _MasterInit_I2C:
  5691  0005                     l1935:	
  5692                           ;incstack = 0
  5693                           ; Regs used in _MasterInit_I2C: [wreg+status,2+status,0+pclath+cstack]
  5694                           
  5695                           
  5696                           ;I2C.c: 14:     SSPCON = 0X28;
  5697  0005  3028               	movlw	40
  5698  0006  1283               	bcf	3,5	;RP0=0, select bank0
  5699  0007  1303               	bcf	3,6	;RP1=0, select bank0
  5700  0008  0094               	movwf	20	;volatile
  5701  0009                     l1937:
  5702                           
  5703                           ;I2C.c: 15:     SSPCON2 = 0X00;
  5704  0009  1683               	bsf	3,5	;RP0=1, select bank1
  5705  000A  1303               	bcf	3,6	;RP1=0, select bank1
  5706  000B  0191               	clrf	17	;volatile
  5707  000C                     l1939:
  5708                           
  5709                           ;I2C.c: 16:     SSPSTAT = 0X80;
  5710  000C  3080               	movlw	128
  5711  000D  0094               	movwf	20	;volatile
  5712  000E                     l1941:
  5713                           
  5714                           ;I2C.c: 17:     SSPADD = (8000000/(4*frec))-1;
  5715  000E  1283               	bcf	3,5	;RP0=0, select bank0
  5716  000F  1303               	bcf	3,6	;RP1=0, select bank0
  5717  0010  0820               	movf	MasterInit_I2C@frec,w
  5718  0011  00A4               	movwf	??_MasterInit_I2C
  5719  0012  0821               	movf	MasterInit_I2C@frec+1,w
  5720  0013  00A5               	movwf	??_MasterInit_I2C+1
  5721  0014  0822               	movf	MasterInit_I2C@frec+2,w
  5722  0015  00A6               	movwf	??_MasterInit_I2C+2
  5723  0016  0823               	movf	MasterInit_I2C@frec+3,w
  5724  0017  00A7               	movwf	??_MasterInit_I2C+3
  5725  0018  3002               	movlw	2
  5726  0019                     u2295:
  5727  0019  1003               	clrc
  5728  001A  0DA4               	rlf	??_MasterInit_I2C,f
  5729  001B  0DA5               	rlf	??_MasterInit_I2C+1,f
  5730  001C  0DA6               	rlf	??_MasterInit_I2C+2,f
  5731  001D  0DA7               	rlf	??_MasterInit_I2C+3,f
  5732  001E                     u2290:
  5733  001E  3EFF               	addlw	-1
  5734  001F  1D03               	skipz
  5735  0020  2819               	goto	u2295
  5736  0021  0827               	movf	??_MasterInit_I2C+3,w
  5737  0022  00F3               	movwf	___lldiv@divisor+3
  5738  0023  0826               	movf	??_MasterInit_I2C+2,w
  5739  0024  00F2               	movwf	___lldiv@divisor+2
  5740  0025  0825               	movf	??_MasterInit_I2C+1,w
  5741  0026  00F1               	movwf	___lldiv@divisor+1
  5742  0027  0824               	movf	??_MasterInit_I2C,w
  5743  0028  00F0               	movwf	___lldiv@divisor
  5744  0029  3000               	movlw	0
  5745  002A  00F7               	movwf	___lldiv@dividend+3
  5746  002B  307A               	movlw	122
  5747  002C  00F6               	movwf	___lldiv@dividend+2
  5748  002D  3012               	movlw	18
  5749  002E  00F5               	movwf	___lldiv@dividend+1
  5750  002F  3000               	movlw	0
  5751  0030  00F4               	movwf	___lldiv@dividend
  5752  0031  120A  158A  24BA  120A  118A  	fcall	___lldiv
  5753  0036  0870               	movf	?___lldiv,w
  5754  0037  3EFF               	addlw	255
  5755  0038  1683               	bsf	3,5	;RP0=1, select bank1
  5756  0039  1303               	bcf	3,6	;RP1=0, select bank1
  5757  003A  0093               	movwf	19	;volatile
  5758  003B                     l1943:
  5759                           
  5760                           ;I2C.c: 19:     TRISCbits.TRISC3 = 1;
  5761  003B  1587               	bsf	7,3	;volatile
  5762  003C                     l1945:
  5763                           
  5764                           ;I2C.c: 20:     TRISCbits.TRISC4 = 1;
  5765  003C  1607               	bsf	7,4	;volatile
  5766  003D                     l153:
  5767  003D  0008               	return
  5768  003E                     __end_of_MasterInit_I2C:
  5769                           
  5770                           	psect	text23
  5771  0CBA                     __ptext23:	
  5772 ;; *************** function ___lldiv *****************
  5773 ;; Defined at:
  5774 ;;		line 5 in file "C:\Program Files\Microchip\xc8\v2.31\pic\sources\c90\common\__lldiv.c"
  5775 ;; Parameters:    Size  Location     Type
  5776 ;;  divisor         4    0[COMMON] unsigned long 
  5777 ;;  dividend        4    4[COMMON] unsigned long 
  5778 ;; Auto vars:     Size  Location     Type
  5779 ;;  quotient        4    9[COMMON] unsigned long 
  5780 ;;  counter         1   13[COMMON] unsigned char 
  5781 ;; Return value:  Size  Location     Type
  5782 ;;                  4    0[COMMON] unsigned long 
  5783 ;; Registers used:
  5784 ;;		wreg, status,2, status,0
  5785 ;; Tracked objects:
  5786 ;;		On entry : 0/0
  5787 ;;		On exit  : 0/0
  5788 ;;		Unchanged: 0/0
  5789 ;; Data sizes:     COMMON   BANK0   BANK1   BANK3   BANK2
  5790 ;;      Params:         8       0       0       0       0
  5791 ;;      Locals:         5       0       0       0       0
  5792 ;;      Temps:          1       0       0       0       0
  5793 ;;      Totals:        14       0       0       0       0
  5794 ;;Total ram usage:       14 bytes
  5795 ;; Hardware stack levels used:    1
  5796 ;; This function calls:
  5797 ;;		Nothing
  5798 ;; This function is called by:
  5799 ;;		_MasterInit_I2C
  5800 ;; This function uses a non-reentrant model
  5801 ;;
  5802                           
  5803                           
  5804                           ;psect for function ___lldiv
  5805  0CBA                     ___lldiv:
  5806  0CBA                     l1659:	
  5807                           ;incstack = 0
  5808                           ; Regs used in ___lldiv: [wreg+status,2+status,0]
  5809                           
  5810  0CBA  3000               	movlw	0
  5811  0CBB  00FC               	movwf	___lldiv@quotient+3
  5812  0CBC  3000               	movlw	0
  5813  0CBD  00FB               	movwf	___lldiv@quotient+2
  5814  0CBE  3000               	movlw	0
  5815  0CBF  00FA               	movwf	___lldiv@quotient+1
  5816  0CC0  3000               	movlw	0
  5817  0CC1  00F9               	movwf	___lldiv@quotient
  5818  0CC2  0873               	movf	___lldiv@divisor+3,w
  5819  0CC3  0472               	iorwf	___lldiv@divisor+2,w
  5820  0CC4  0471               	iorwf	___lldiv@divisor+1,w
  5821  0CC5  0470               	iorwf	___lldiv@divisor,w
  5822  0CC6  1903               	skipnz
  5823  0CC7  2CC9               	goto	u1631
  5824  0CC8  2CCA               	goto	u1630
  5825  0CC9                     u1631:
  5826  0CC9  2D17               	goto	l1679
  5827  0CCA                     u1630:
  5828  0CCA                     l1661:
  5829  0CCA  01FD               	clrf	___lldiv@counter
  5830  0CCB  0AFD               	incf	___lldiv@counter,f
  5831  0CCC  2CDA               	goto	l1665
  5832  0CCD                     l1663:
  5833  0CCD  3001               	movlw	1
  5834  0CCE  00F8               	movwf	??___lldiv
  5835  0CCF                     u1645:
  5836  0CCF  1003               	clrc
  5837  0CD0  0DF0               	rlf	___lldiv@divisor,f
  5838  0CD1  0DF1               	rlf	___lldiv@divisor+1,f
  5839  0CD2  0DF2               	rlf	___lldiv@divisor+2,f
  5840  0CD3  0DF3               	rlf	___lldiv@divisor+3,f
  5841  0CD4  0BF8               	decfsz	??___lldiv,f
  5842  0CD5  2CCF               	goto	u1645
  5843  0CD6  3001               	movlw	1
  5844  0CD7  00F8               	movwf	??___lldiv
  5845  0CD8  0878               	movf	??___lldiv,w
  5846  0CD9  07FD               	addwf	___lldiv@counter,f
  5847  0CDA                     l1665:
  5848  0CDA  1FF3               	btfss	___lldiv@divisor+3,7
  5849  0CDB  2CDD               	goto	u1651
  5850  0CDC  2CDE               	goto	u1650
  5851  0CDD                     u1651:
  5852  0CDD  2CCD               	goto	l1663
  5853  0CDE                     u1650:
  5854  0CDE                     l1667:
  5855  0CDE  3001               	movlw	1
  5856  0CDF  00F8               	movwf	??___lldiv
  5857  0CE0                     u1665:
  5858  0CE0  1003               	clrc
  5859  0CE1  0DF9               	rlf	___lldiv@quotient,f
  5860  0CE2  0DFA               	rlf	___lldiv@quotient+1,f
  5861  0CE3  0DFB               	rlf	___lldiv@quotient+2,f
  5862  0CE4  0DFC               	rlf	___lldiv@quotient+3,f
  5863  0CE5  0BF8               	decfsz	??___lldiv,f
  5864  0CE6  2CE0               	goto	u1665
  5865  0CE7                     l1669:
  5866  0CE7  0873               	movf	___lldiv@divisor+3,w
  5867  0CE8  0277               	subwf	___lldiv@dividend+3,w
  5868  0CE9  1D03               	skipz
  5869  0CEA  2CF5               	goto	u1675
  5870  0CEB  0872               	movf	___lldiv@divisor+2,w
  5871  0CEC  0276               	subwf	___lldiv@dividend+2,w
  5872  0CED  1D03               	skipz
  5873  0CEE  2CF5               	goto	u1675
  5874  0CEF  0871               	movf	___lldiv@divisor+1,w
  5875  0CF0  0275               	subwf	___lldiv@dividend+1,w
  5876  0CF1  1D03               	skipz
  5877  0CF2  2CF5               	goto	u1675
  5878  0CF3  0870               	movf	___lldiv@divisor,w
  5879  0CF4  0274               	subwf	___lldiv@dividend,w
  5880  0CF5                     u1675:
  5881  0CF5  1C03               	skipc
  5882  0CF6  2CF8               	goto	u1671
  5883  0CF7  2CF9               	goto	u1670
  5884  0CF8                     u1671:
  5885  0CF8  2D08               	goto	l1675
  5886  0CF9                     u1670:
  5887  0CF9                     l1671:
  5888  0CF9  0870               	movf	___lldiv@divisor,w
  5889  0CFA  02F4               	subwf	___lldiv@dividend,f
  5890  0CFB  0871               	movf	___lldiv@divisor+1,w
  5891  0CFC  1C03               	skipc
  5892  0CFD  0F71               	incfsz	___lldiv@divisor+1,w
  5893  0CFE  02F5               	subwf	___lldiv@dividend+1,f
  5894  0CFF  0872               	movf	___lldiv@divisor+2,w
  5895  0D00  1C03               	skipc
  5896  0D01  0F72               	incfsz	___lldiv@divisor+2,w
  5897  0D02  02F6               	subwf	___lldiv@dividend+2,f
  5898  0D03  0873               	movf	___lldiv@divisor+3,w
  5899  0D04  1C03               	skipc
  5900  0D05  0F73               	incfsz	___lldiv@divisor+3,w
  5901  0D06  02F7               	subwf	___lldiv@dividend+3,f
  5902  0D07                     l1673:
  5903  0D07  1479               	bsf	___lldiv@quotient,0
  5904  0D08                     l1675:
  5905  0D08  3001               	movlw	1
  5906  0D09                     u1685:
  5907  0D09  1003               	clrc
  5908  0D0A  0CF3               	rrf	___lldiv@divisor+3,f
  5909  0D0B  0CF2               	rrf	___lldiv@divisor+2,f
  5910  0D0C  0CF1               	rrf	___lldiv@divisor+1,f
  5911  0D0D  0CF0               	rrf	___lldiv@divisor,f
  5912  0D0E  3EFF               	addlw	-1
  5913  0D0F  1D03               	skipz
  5914  0D10  2D09               	goto	u1685
  5915  0D11                     l1677:
  5916  0D11  3001               	movlw	1
  5917  0D12  02FD               	subwf	___lldiv@counter,f
  5918  0D13  1D03               	btfss	3,2
  5919  0D14  2D16               	goto	u1691
  5920  0D15  2D17               	goto	u1690
  5921  0D16                     u1691:
  5922  0D16  2CDE               	goto	l1667
  5923  0D17                     u1690:
  5924  0D17                     l1679:
  5925  0D17  087C               	movf	___lldiv@quotient+3,w
  5926  0D18  00F3               	movwf	?___lldiv+3
  5927  0D19  087B               	movf	___lldiv@quotient+2,w
  5928  0D1A  00F2               	movwf	?___lldiv+2
  5929  0D1B  087A               	movf	___lldiv@quotient+1,w
  5930  0D1C  00F1               	movwf	?___lldiv+1
  5931  0D1D  0879               	movf	___lldiv@quotient,w
  5932  0D1E  00F0               	movwf	?___lldiv
  5933  0D1F                     l343:
  5934  0D1F  0008               	return
  5935  0D20                     __end_of___lldiv:
  5936  007E                     btemp	set	126	;btemp
  5937  007E                     wtemp0	set	126
  5938                           
  5939                           	psect	config
  5940                           
  5941                           ;Config register CONFIG1 @ 0x2007
  5942                           ;	Oscillator Selection bits
  5943                           ;	FOSC = INTRC_NOCLKOUT, INTOSCIO oscillator: I/O function on RA6/OSC2/CLKOUT pin, I/O f
      +                          unction on RA7/OSC1/CLKIN
  5944                           ;	Watchdog Timer Enable bit
  5945                           ;	WDTE = OFF, WDT disabled and can be enabled by SWDTEN bit of the WDTCON register
  5946                           ;	Power-up Timer Enable bit
  5947                           ;	PWRTE = OFF, PWRT disabled
  5948                           ;	RE3/MCLR pin function select bit
  5949                           ;	MCLRE = ON, RE3/MCLR pin function is MCLR
  5950                           ;	Code Protection bit
  5951                           ;	CP = OFF, Program memory code protection is disabled
  5952                           ;	Data Code Protection bit
  5953                           ;	CPD = OFF, Data memory code protection is disabled
  5954                           ;	Brown Out Reset Selection bits
  5955                           ;	BOREN = OFF, BOR disabled
  5956                           ;	Internal External Switchover bit
  5957                           ;	IESO = OFF, Internal/External Switchover mode is disabled
  5958                           ;	Fail-Safe Clock Monitor Enabled bit
  5959                           ;	FCMEN = OFF, Fail-Safe Clock Monitor is disabled
  5960                           ;	Low Voltage Programming Enable bit
  5961                           ;	LVP = OFF, RB3 pin has digital I/O, HV on MCLR must be used for programming
  5962                           ;	In-Circuit Debugger Mode bit
  5963                           ;	DEBUG = 0x1, unprogrammed default
  5964  2007                     	org	8199
  5965  2007  20F4               	dw	8436
  5966                           
  5967                           ;Config register CONFIG2 @ 0x2008
  5968                           ;	Brown-out Reset Selection bit
  5969                           ;	BOR4V = BOR40V, Brown-out Reset set to 4.0V
  5970                           ;	Flash Program Memory Self Write Enable bits
  5971                           ;	WRT = OFF, Write protection off
  5972  2008                     	org	8200
  5973  2008  3FFF               	dw	16383

Data Sizes:
    Strings     0
    Constant    0
    Data        1
    BSS         21
    Persistent  0
    Stack       0

Auto Spaces:
    Space          Size  Autos    Used
    COMMON           14     14      14
    BANK0            80     64      80
    BANK1            80      0       6
    BANK3            96      0       0
    BANK2            96      0       0

Pointer List with Targets:

    DHT11_ReadData@datos	PTR unsigned char  size(1) Largest target is 1
		 -> CHECKSUM(BANK0[1]), dummyT1(BANK0[1]), Temp1(BANK0[1]), dummyHum1(BANK0[1]), 
		 -> Hum1(BANK0[1]), 

    MasterReceive_I2C@valor	PTR unsigned char  size(1) Largest target is 1
		 -> TempDEC(BANK0[1]), TempENT(BANK0[1]), 

    divisiondecimal@cent	PTR unsigned char  size(1) Largest target is 2
		 -> floToChar@digdecimal(BANK0[2]), 

    divisiondecimal@dec	PTR unsigned char  size(1) Largest target is 2
		 -> floToChar@digdecimal(BANK0[2]), 

    divisiondecimal@un	PTR unsigned char  size(1) Largest target is 2
		 -> floToChar@digdecimal(BANK0[2]), 

    floToChar@salida	PTR unsigned char  size(1) Largest target is 6
		 -> TEMPdig(BANK1[6]), 


Critical Paths under _main in COMMON

    _main->___xxtofl
    _floToChar->___xxtofl
    _floToChar->_divisiondecimal
    _divisiondecimal->___awdiv
    ___flsub->___xxtofl
    ___flmul->___xxtofl
    _MasterInit_I2C->___lldiv

Critical Paths under _main in BANK0

    _main->_floToChar
    _floToChar->___fltol
    ___fltol->___flmul
    ___flsub->___fladd
    _CONFIG->_MasterInit_I2C

Critical Paths under _main in BANK1

    None.

Critical Paths under _main in BANK3

    None.

Critical Paths under _main in BANK2

    None.

Call Graph Tables:

 ---------------------------------------------------------------------------------
 (Depth) Function   	        Calls       Base Space   Used Autos Params    Refs
 ---------------------------------------------------------------------------------
 (0) _main                                                10    10      0   13315
                                             54 BANK0     10    10      0
                             _CONFIG
                        _DHT11_ALIVE
                     _DHT11_ReadData
                        _DHT11_START
                  _MasterReceive_I2C
                  _MasterRepeatS_I2C
                     _MasterSend_I2C
                    _MasterStart_I2C
                     _MasterStop_I2C
                            ___awdiv
                            ___awmod
                            ___flmul
                           ___xxtofl
                          _floToChar
 ---------------------------------------------------------------------------------
 (1) _floToChar                                           17    12      5    8269
                                             37 BANK0     17    12      5
                            ___flmul
                            ___flsub
                            ___fltol
                           ___xxtofl
                    _divisiondecimal
 ---------------------------------------------------------------------------------
 (2) _divisiondecimal                                      8     5      3    1811
                                              9 COMMON     5     2      3
                                              0 BANK0      3     3      0
                            ___awdiv
                             ___bmul
 ---------------------------------------------------------------------------------
 (3) ___bmul                                               4     3      1     244
                                              0 COMMON     4     3      1
 ---------------------------------------------------------------------------------
 (3) ___awdiv                                              9     5      4     756
                                              0 COMMON     9     5      4
 ---------------------------------------------------------------------------------
 (2) ___xxtofl                                            14    10      4     474
                                              0 COMMON    14    10      4
 ---------------------------------------------------------------------------------
 (2) ___fltol                                             11     7      4     381
                                             26 BANK0     11     7      4
                            ___flmul (ARG)
 ---------------------------------------------------------------------------------
 (2) ___flsub                                              8     0      8    2333
                                              8 BANK0      8     0      8
                            ___fladd
                           ___xxtofl (ARG)
 ---------------------------------------------------------------------------------
 (3) ___fladd                                             20    12      8    2136
                                              0 COMMON    12     4      8
                                              0 BANK0      8     8      0
 ---------------------------------------------------------------------------------
 (2) ___flmul                                             26    18      8    2569
                                              0 BANK0     26    18      8
                          __Umul8_16
                           ___xxtofl (ARG)
 ---------------------------------------------------------------------------------
 (3) __Umul8_16                                            9     7      2     799
                                              0 COMMON     9     7      2
 ---------------------------------------------------------------------------------
 (1) ___awmod                                              7     3      4     448
                                              0 COMMON     7     3      4
 ---------------------------------------------------------------------------------
 (1) _MasterStop_I2C                                       0     0      0       0
                      _waitCondition
 ---------------------------------------------------------------------------------
 (1) _MasterStart_I2C                                      0     0      0       0
                      _waitCondition
 ---------------------------------------------------------------------------------
 (1) _MasterSend_I2C                                       1     1      0      22
                                              0 COMMON     1     1      0
                      _waitCondition
 ---------------------------------------------------------------------------------
 (1) _MasterRepeatS_I2C                                    0     0      0       0
                      _waitCondition
 ---------------------------------------------------------------------------------
 (1) _MasterReceive_I2C                                    2     2      0      88
                                              0 COMMON     2     2      0
                      _waitCondition
 ---------------------------------------------------------------------------------
 (2) _waitCondition                                        0     0      0       0
 ---------------------------------------------------------------------------------
 (1) _DHT11_START                                          2     2      0       0
                                              0 COMMON     2     2      0
 ---------------------------------------------------------------------------------
 (1) _DHT11_ReadData                                       4     4      0     277
                                              0 COMMON     4     4      0
 ---------------------------------------------------------------------------------
 (1) _DHT11_ALIVE                                          0     0      0       0
 ---------------------------------------------------------------------------------
 (1) _CONFIG                                               0     0      0     412
                     _MasterInit_I2C
 ---------------------------------------------------------------------------------
 (2) _MasterInit_I2C                                       8     4      4     412
                                              0 BANK0      8     4      4
                            ___lldiv
 ---------------------------------------------------------------------------------
 (3) ___lldiv                                             14     6      8     314
                                              0 COMMON    14     6      8
 ---------------------------------------------------------------------------------
 Estimated maximum stack depth 3
 ---------------------------------------------------------------------------------

 Call Graph Graphs:

 _main (ROOT)
   _CONFIG
     _MasterInit_I2C
       ___lldiv
   _DHT11_ALIVE
   _DHT11_ReadData
   _DHT11_START
   _MasterReceive_I2C
     _waitCondition
   _MasterRepeatS_I2C
     _waitCondition
   _MasterSend_I2C
     _waitCondition
   _MasterStart_I2C
     _waitCondition
   _MasterStop_I2C
     _waitCondition
   ___awdiv
   ___awmod
   ___flmul
     __Umul8_16
     ___xxtofl (ARG)
   ___xxtofl
   _floToChar
     ___flmul
       __Umul8_16
       ___xxtofl (ARG)
     ___flsub
       ___fladd
       ___xxtofl (ARG)
     ___fltol
       ___flmul (ARG)
         __Umul8_16
         ___xxtofl (ARG)
     ___xxtofl
     _divisiondecimal
       ___awdiv
       ___bmul

 Address spaces:
Name               Size   Autos  Total    Cost      Usage
BANK3               60      0       0       9        0.0%
BITBANK3            60      0       0       8        0.0%
SFR3                 0      0       0       4        0.0%
BITSFR3              0      0       0       4        0.0%
BANK2               60      0       0      11        0.0%
BITBANK2            60      0       0      10        0.0%
SFR2                 0      0       0       5        0.0%
BITSFR2              0      0       0       5        0.0%
BANK1               50      0       6       7        7.5%
BITBANK1            50      0       0       6        0.0%
SFR1                 0      0       0       2        0.0%
BITSFR1              0      0       0       2        0.0%
BANK0               50     40      50       5      100.0%
BITBANK0            50      0       0       4        0.0%
SFR0                 0      0       0       1        0.0%
BITSFR0              0      0       0       1        0.0%
COMMON               E      E       E       1      100.0%
BITCOMMON            E      0       0       0        0.0%
CODE                 0      0       0       0        0.0%
DATA                 0      0      64      12        0.0%
ABS                  0      0      64       3        0.0%
NULL                 0      0       0       0        0.0%
STACK                0      0       0       2        0.0%
EEDATA             100      0       0       0        0.0%


Microchip Technology PIC Macro Assembler V2.31 build 20201012212115 
Symbol Table                                                                                   Wed Aug 18 19:16:13 2021

            ___bmul@product 0072                          l91 0BFF                          l83 0063  
                        l94 0FFF                ___awdiv@sign 0076         __Umul8_16@word_mpld 0076  
                       l103 0E7F                         l201 0C2B                         l203 0C19  
                       l221 0C60                         l214 0C32                         l153 003D  
                       l217 0C3A                         l162 0B19                         l171 0B2D  
                       l156 0B2E                         l500 0DED                         l165 0B22  
                       l333 0B4F                         l174 0B8B                         l343 0D1F  
                       l159 0B3A                         l503 0E02                         l192 0B6A  
                       l168 0B10                         l600 0247                         l195 0C05  
                       l604 02F0                         l460 0D86                         l621 03C1  
                       l613 047B                         l702 0748                         l606 02C5  
                       l631 0409                         l473 0CB9                         l625 03E7  
                       l642 046D                         l634 0449                         l715 0BC4  
                       l643 047B                         l708 07D0                         l740 0EA2  
                       l717 0BD6                         l493 0E02                         l646 0BAF  
                       l742 0F39                         l753 0F03                         l754 0F0F  
                       l746 0EE7                         l696 07DC                         _RE0 0048  
                       _RE1 0049                         _RE2 004A                         fsr0 0004  
                       indf 0000                ___awmod@sign 0076                ___flmul@aexp 0032  
              ___flmul@bexp 0033                ___flmul@sign 002D                ___flmul@temp 0038  
              ___flmul@prod 0034                ___fltol@exp1 0044                        l2001 0DF2  
                      l2011 047C                        l2003 0DF7                        l2101 0718  
                      l2021 0493                        l2013 0483                        l2005 0B8C  
                      l2111 072D                        l2103 0719                        l2031 04AF  
                      l2023 0498                        l2015 0489                        l2007 0B90  
                      l2201 0BE7                        l2121 0752                        l2113 0731  
                      l2105 0722                        l2041 04C4                        l2033 04B5  
                      l2025 04A0                        l2017 048D                        l2211 0BF2  
                      l2203 0BEB                        l2131 0790                        l2123 0760  
                      l2115 0745                        l2107 0728                        l2051 04E0  
                      l2043 04CC                        l2035 04B9                        l2027 04A2  
                      l2019 048E                        l2205 0BEC                        l2301 0C2D  
                      l2213 0B11                        l2221 0B1A                        l2141 07C4  
                      l2133 079B                        l2125 0764                        l2109 072C  
                      l2061 0523                        l2045 04CE                        l2037 04BA  
                      l2029 04AA                        l2207 0BF0                        l2311 0C3E  
                      l2303 0C31                        l2231 0B71                        l2215 0B16  
                      l2223 0B1F                        l2143 07C8                        l2135 07AA  
                      l2127 077D                        l2119 074D                        l2071 05AC  
                      l2063 053F                        l2055 04E9                        l2047 04D6  
                      l2039 04BF                        l2151 0E81                        l2209 0BF1  
                      l2313 0C44                        l2233 0B79                        l2225 0B08  
                      l2217 0B24                        l2321 0C62                        l2145 07C9  
                      l2137 07B4                        l2129 0783                        l2081 061F  
                      l2073 05BC                        l2065 056B                        l2057 04F9  
                      l2049 04DB                        l2153 0E86                        l2241 0F3A  
                      l2401 01D2                        l2315 0C56                        l2235 0B82  
                      l2227 0B0D                        l2219 0B29                        l2331 0C76  
                      l2323 0C66                        l2147 07D4                        l2139 07B6  
                      l2091 06CC                        l2083 063C                        l2075 05D9  
                      l2067 0587                        l2059 0506                        l2171 0ED0  
                      l2163 0EB3                        l2155 0E8A                        l2251 0FC9  
                      l2243 0F4F                        l2403 01D5                        l2317 0C5A  
                      l2309 0C38                        l2237 0B87                        l2229 0B6C  
                      l2341 0C8E                        l2333 0C7C                        l2325 0C6B  
                      l2093 06F4                        l2085 0669                        l2077 05E9  
                      l2069 05A3                        l2181 0F07                        l2173 0EDE  
                      l2165 0EB8                        l2157 0E9A                        l1701 0D41  
                      l2261 0FF9                        l2253 0FD0                        l2245 0F83  
                      l2271 0C00                        l2263 0B50                        l2239 0B8A  
                      l2351 0CB0                        l2343 0C98                        l2335 0C7F  
                      l2327 0C6D                        l2319 0C61                        l2095 06FD  
                      l2087 0679                        l2079 0606                        l2191 0F31  
                      l2183 0F11                        l2175 0EEE                        l2167 0EC5  
                      l2159 0EAA                        l1711 0D64                        l1703 0D44  
                      l2255 0FD7                        l2247 0FAD                        l2273 0C04  
                      l2265 0B56                        l2353 0CB5                        l2345 0C9E  
                      l2337 0C86                        l2329 0C71                        l2097 070B  
                      l2089 06A6                        l1801 0289                        l2185 0F27  
                      l2177 0EF9                        l2169 0ECC                        l1721 0D7D  
                      l1713 0D6A                        l1705 0D4B                        l2257 0FE9  
                      l2249 0FBF                        l2361 0046                        l2195 0BD7  
                      l2275 0C09                        l2267 0B5F                        l2347 0CA5  
                      l2339 0C8A                        l2099 0714                        l1811 02C9  
                      l1803 028D                        l1731 01F1                        l2187 0F2C  
                      l2179 0EFD                        l1723 0D82                        l1715 0D6B  
                      l1707 0D4F                        l1651 0B45                        l2259 0FF3  
                      l2371 00DC                        l2363 007F                        l1661 0CCA  
                      l2197 0BE0                        l2285 0C17                        l2277 0C0F  
                      l2269 0B67                        l2349 0CAB                        l1901 0445  
                      l1821 02E6                        l1813 02D4                        l1805 0291  
                      l1741 0208                        l1733 01F5                        l2189 0F30  
                      l1717 0D72                        l1709 0D53                        l1653 0B47  
                      l1645 0B3C                        l2381 0108                        l2373 00ED  
                      l2365 0085                        l2357 003E                        l1671 0CF9  
                      l1663 0CCD                        l2199 0BE1                        l2287 0C1D  
                      l2279 0C15                        l1911 0461                        l1903 044E  
                      l1831 0302                        l1815 02D6                        l1823 02EA  
                      l1807 0292                        l1751 021E                        l1743 0209  
                      l1735 01F6                        l1727 01E4                        l1719 0D78  
                      l1655 0B4E                        l1647 0B3D                        l2391 012D  
                      l2383 0110                        l2375 00F2                        l2367 0090  
                      l2359 0043                        l1673 0D07                        l1665 0CDA  
                      l2297 0C2A                        l2289 0C23                        l1921 0BB1  
                      l1913 0465                        l1905 0453                        l1841 032E  
                      l1833 0319                        l1825 02F4                        l1817 02DA  
                      l1809 02A9                        l1761 022F                        l1753 021F  
                      l1737 01FB                        l1745 020B                        l1729 01EB  
                      l1649 0B41                        l2393 0132                        l2385 0118  
                      l2377 00F8                        l2369 00AF                        l1675 0D08  
                      l1667 0CDE                        l1659 0CBA                        l1931 0BD2  
                      l1923 0BB3                        l1915 0467                        l1907 045B  
                      l1851 0359                        l1843 0332                        l1835 031D  
                      l1827 02F9                        l1819 02DB                        l1771 024D  
                      l1763 0234                        l1755 0225                        l1747 0213  
                      l1739 0200                        l1691 0D2C                        l1683 0D20  
                      l2395 013C                        l2387 0120                        l2379 0100  
                      l1677 0D11                        l1669 0CE7                        l1941 000E  
                      l1925 0BBA                        l1917 0476                        l1909 0460  
                      l1861 03C9                        l1853 0399                        l1845 0333  
                      l1837 0321                        l1781 0261                        l1773 0251  
                      l1765 023C                        l1757 0229                        l1749 0218  
                      l1693 0D30                        l1685 0D21                        l2397 015A  
                      l2389 0128                        l1679 0D17                        l1943 003B  
                      l1935 0005                        l1927 0BBE                        l1919 047A  
                      l1871 03E6                        l1863 03CE                        l1855 039F  
                      l1847 033E                        l1839 032C                        l1791 0275  
                      l1783 0265                        l1775 0255                        l1767 023D  
                      l1759 022A                        l1695 0D35                        l1687 0D25  
                      l1951 0E0E                        l2399 0184                        l1945 003C  
                      l1937 0009                        l1929 0BCD                        l1873 03EB  
                      l1881 03F7                        l1857 03A4                        l1849 0343  
                      l1793 0279                        l1785 0269                        l1777 0259  
                      l1769 023F                        l1697 0D39                        l1689 0D2A  
                      l1961 0E72                        l1953 0E11                        l1939 000C  
                      l1875 03EE                        l1867 03D7                        l1859 03B3  
                      l1883 03FB                        l1795 027D                        l1787 026D  
                      l1779 025D                        l1971 0D94                        l1699 0D3B  
                      l1963 0E78                        l1955 0E15                        l1947 0E04  
                      l1965 0B2E                        l1893 040E                        l1885 03FC  
                      l1877 03F0                        l1869 03E2                        l1797 0281  
                      l1789 0271                        l1981 0DBB                        l1957 0E40  
                      l1949 0E0A                        l1967 0B34                        l1895 0413  
                      l1887 0400                        l1879 03F5                        l1799 0285  
                      l1991 0DC9                        l1983 0DBD                        l1975 0D9D  
                      l1959 0E47                        l1897 0421                        l1889 0406  
                      l1985 0DC1                        l1993 0DDB                        l1977 0DB2  
                      l1969 0D87                        l1899 0425                        l1979 0DB3  
                      l1999 0DE2                        u2000 0321                        u2001 0320  
                      u2010 0332                        u2011 0331                        u2100 03E6  
                      u2101 03E5                        u2110 03EB                        u2030 0359  
                      u2111 03EA                        u2031 0358                        u3000 0C29  
                      u2200 0445                        u2120 03F5                        u3001 0C28  
                      u2201 0444                        u2121 03F4                        u2041 0372  
                      u2033 0355                        u2025 0337                        u3010 0C38  
                      u2210 044E                        u2130 03FB                        u2050 0386  
                      u2042 0373                        u3011 0C37                        u2211 044D  
                      u2131 03FA                        u2051 0387                        u2043 0378  
                      u3020 0C3E                        u3100 0C8E                        u2220 0453  
                      u2140 0400                        u2060 03A4                        u2052 038C  
                      u2044 0379                        u2300 0E46                        u3021 0C3D  
                      u3101 0C8D                        u2221 0452                        u2141 03FF  
                      u2061 03A3                        u2053 038D                        u2045 037E  
                      u2301 0E45                        u3030 0C44                        u3110 0C98  
                      u2230 0460                        u2150 0406                        u2070 03C9  
                      u2046 037F                        u2310 0E78                        u3031 0C43  
                      u3111 0C97                        u2231 045F                        u2151 0405  
                      u2071 03C8                        u2311 0E77                        u2320 0B34  
                      u2240 0465                        u2160 040D                        u2080 03CE  
                      u2400 0DE1                        u2321 0B33                        u2241 0464  
                      u2161 040C                        u2081 03CD                        u2401 0DE0  
                      u3050 0C60                        u2330 0B3A                        u3130 0CAB  
                      u2250 047A                        u2170 0413                        u1610 0B41  
                      u3051 0C5F                        u2331 0B39                        u3131 0CAA  
                      u3115 0C94                        u2251 0479                        u2171 0412  
                      u1611 0B40                        u3044 0C4C                        u3140 0CB0  
                      u3060 0C66                        u2260 0BBE                        u2500 04DB  
                      u2180 0425                        u2420 0DF2                        u2340 0D94  
                      u1700 0D25                        u1620 0B4E                        u3045 0C4A  
                      u3141 0CAF                        u3125 0C9F                        u3061 0C65  
                      u2261 0BBD                        u2501 04DA                        u2181 0424  
                      u2421 0DF1                        u2341 0D93                        u1701 0D24  
                      u1621 0B4D                        u1630 0CCA                        u3070 0C71  
                      u2510 04E0                        u2190 0436                        u2430 0DF7  
                      u2350 0DAB                        u1710 0D30                        u1631 0CC9  
                      u3207 0B64                        u3071 0C70                        u2511 04DF  
                      u2095 03DB                        u2431 0DF6                        u2415 0DE4  
                      u1711 0D2F                        u3080 0C7C                        u2280 0BD2  
                      u2440 048D                        u1800 01F5                        u2360 0DC1  
                      u1720 0D41                        u3160 013C                        u3081 0C7B  
                      u2281 0BD1                        u2601 062E                        u2521 0531  
                      u2441 048C                        u1801 01F4                        u2361 0DC0  
                      u1721 0D40                        u3161 013B                        u1650 0CDE  
                      u2290 001E                        u2602 0635                        u2522 0538  
                      u2450 0493                        u1810 01FB                        u2370 0DC8  
                      u3170 0184                        u1651 0CDD                        u2275 0BC5  
                      u2611 065B                        u2603 063C                        u2531 054D  
                      u2523 053F                        u2451 0492                        u2195 0431  
                      u1811 01FA                        u2371 0DC7                        u2355 0DA6  
                      u3171 0183                        u3155 0095                        u2612 0662  
                      u2532 0554                        u2460 0498                        u1900 02B2  
                      u1820 0200                        u1740 0D53                        u1645 0CCF  
                      u2621 0688                        u2613 0669                        u2541 0579  
                      u2533 055B                        u2461 0497                        u1901 02B0  
                      u1821 01FF                        u1741 0D52                        u1670 0CF9  
                      u2710 072C                        u2630 06B2                        u2622 068F  
                      u2542 0580                        u2470 04B9                        u1910 02B3  
                      u1830 021E                        u2390 0DDA                        u1671 0CF8  
                      u2295 0019                        u3095 0C80                        u2711 072B  
                      u2623 0696                        u2551 0595                        u2543 0587  
                      u2471 04B8                        u1831 021D                        u2391 0DD9  
                      u1735 0D45                        u3175 0180                        u2800 07C8  
                      u2720 0731                        u2552 059C                        u2480 04BF  
                      u1920 02C9                        u1840 0229                        u1760 0D64  
                      u1665 0CE0                        u2801 07C7                        u2721 0730  
                      u2705 071B                        u2641 06BE                        u2553 05A3  
                      u2481 04BE                        u1921 02C8                        u1841 0228  
                      u2385 0DCA                        u1761 0D63                        u1690 0D17  
                      u2730 0745                        u2650 06DA                        u2642 06C5  
                      u2490 04C4                        u1930 02DA                        u1850 022F  
                      u2810 0E86                        u1691 0D16                        u1675 0CF5  
                      u2731 0744                        u2643 06CC                        u2635 06AD  
                      u2571 05CB                        u2491 04C3                        u1931 02D9  
                      u1851 022E                        u2811 0E85                        u1755 0D54  
                      u3187 01DB                        u2740 074C                        u2572 05D2  
                      u1860 0234                        u2900 0F03                        u2820 0E8A  
                      u1780 0D78                        u1685 0D09                        u3197 0B5A  
                      u2741 074B                        u2661 06E6                        u2581 05F8  
                      u2573 05D9                        u2565 05A5                        u1861 0233  
                      u2901 0F02                        u2821 0E89                        u1781 0D77  
                      u1765 0D60                        u2750 0752                        u2662 06ED  
                      u2582 05FF                        u1950 02F0                        u1870 024D  
                      u2910 0F07                        u2830 0EAA                        u1790 0D7D  
                      u2751 0751                        u2663 06F4                        u2655 06D5  
                      u2583 0606                        u1951 02EF                        u1871 024C  
                      u2911 0F06                        u2831 0EA9                        u1791 0D7C  
                      u1775 0D6C                        u2760 0764                        u1960 02F4  
                      u1880 0251                        u2920 0F1C                        u2761 0763  
                      u1961 02F3                        u1945 02DF                        u1881 0250  
                      u2770 0773                        u2690 0718                        u1970 02F9  
                      u1890 02A9                        u2930 0F2C                        u2850 0ECB  
                      u2691 0717                        u2675 06F6                        u2595 0608  
                      u1971 02F8                        u1891 02A8                        u2931 0F2B  
                      u2851 0ECA                        u2780 0790                        u2940 0F30  
                      u2781 078F                        u2685 070D                        u1981 030B  
                      u2941 0F2F                        u2925 0F17                        u2845 0EBD  
                      u2950 0C09                        u2790 07AA                        u1990 031D  
                      u1982 0312                        u2870 0EED                        u2951 0C08  
                      u2791 07A9                        u2775 076E                        u1991 031C  
                      u1983 0319                        u1895 02A5                        u2871 0EEC  
                      u2960 0C0F                        u2961 0C0E                        u2785 078C  
                      u2865 0EDF                        u2970 0C15                        u2890 0EFD  
                      u2971 0C14                        u2795 07A6                        u2891 0EFC  
                      u2980 0C1D                        u2981 0C1C                        u2885 0EF2  
                      u2990 0C23                        u2991 0C22                        _Hum1 006C  
                      _HumR 0064        __size_of_DHT11_ALIVE 002C                        _main 003E  
                      _temp 0066                        btemp 007E        __size_of_DHT11_START 001B  
           _divisiondecimal 0E03                        start 0000            ??_DHT11_ReadData 0070  
       DHT11_ReadData@datos 0073           ___bmul@multiplier 0073               ___fltol@sign1 0043  
           __end_of___fladd 047C                       ?_main 0070             __end_of___awdiv 0D87  
           __end_of___awmod 0CBA             __end_of___flmul 07DD             __end_of___flsub 0BB0  
           __end_of___fltol 0E03                       _ANSEL 0188             __end_of___lldiv 0D20  
           ___awdiv@divisor 0070                       _T1CON 0010             ___awdiv@counter 0075  
                     _TMR1H 000F                       _TMR1L 000E                       _PORTA 0005  
                     _PORTB 0006                       _PORTD 0008                       _TRISA 0085  
                     _TRISB 0086                       _TRISD 0088                       _Temp1 006E  
   __size_of_MasterInit_I2C 0039     __size_of_MasterSend_I2C 000B                       status 0003  
                     wtemp0 007E     __size_of_MasterStop_I2C 0009             __initialization 07DD  
              __end_of_main 01E4         floToChar@digdecimal 0054                      ??_main 0056  
       divisiondecimal@cent 007B            ___awdiv@dividend 0072     __end_of_divisiondecimal 0E80  
                    _ANSELH 0189                      _CONFIG 0BD7          MasterInit_I2C@frec 0020  
                    _SSPADD 0093                      _SSPCON 0014                      _SSPBUF 0013  
          __end_of___xxtofl 0F3A                      ___bmul 0B3B                   ??___fladd 0020  
                 ??___awdiv 0074                   ??___awmod 0074                   ??___flmul 0028  
                 ??___flsub 007E                   ??___fltol 003E                   ??___lldiv 0078  
          ___awdiv@quotient 0077             ___awmod@divisor 0070             ___awmod@counter 0075  
        __size_of__Umul8_16 0027       __end_of_waitCondition 0B3B                ___xxtofl@arg 007A  
              ___xxtofl@exp 0079                ___xxtofl@val 0070     __end_of__initialization 07FC  
  __size_of_MasterStart_I2C 0009                  ___fltol@f1 003A      MasterReceive_I2C@valor 0071  
       ___bmul@multiplicand 0070              __pcstackCOMMON 0070                __pidataBANK0 0004  
        __size_of_floToChar 00C6              _MasterInit_I2C 0005              _MasterSend_I2C 0B23  
                   ?_CONFIG 0070            ?_divisiondecimal 0079                  __pbssBANK0 0060  
                __pbssBANK1 00A0              _MasterStop_I2C 0B1A           __end_of__Umul8_16 0BD7  
                __pmaintext 003E                     ?___bmul 0070      __end_of_MasterInit_I2C 003E  
                 ?___xxtofl 0070      __end_of_MasterSend_I2C 0B2E                     _TEMPdig 00A0  
             ??_DHT11_ALIVE 0070                     _SSPCON2 0091                     _SSPSTAT 0094  
             ??_DHT11_START 0070             __size_of_CONFIG 0029      __end_of_MasterStop_I2C 0B23  
                   _TempDEC 0068                     _TempENT 0069           __end_of_floToChar 1000  
           __size_of___bmul 0015                     ___fladd 01E4                     ___awdiv 0D20  
         ??_MasterStart_I2C 0070                     ___awmod 0C61                     ___flmul 047C  
                   ___flsub 0B8C                     ___fltol 0D87                     ___lldiv 0CBA  
                   _digTemp 0060                     __ptext1 0F3A                     __ptext2 0E03  
                   __ptext3 0B3B                     __ptext4 0D20                     __ptext5 0E80  
                   __ptext6 0D87                     __ptext7 0B8C                     __ptext8 01E4  
                   __ptext9 047C                   _T1CONbits 0010             ?_MasterInit_I2C 0020  
                   _dummyT1 006D                  ??___xxtofl 0074            ___awmod@dividend 0072  
           ?_MasterSend_I2C 0070        end_of_initialization 07FC           _MasterReceive_I2C 0B6B  
           ?_MasterStop_I2C 0070         __end_of_DHT11_ALIVE 0C2C          ?_MasterReceive_I2C 0070  
           ___lldiv@divisor 0070         __end_of_DHT11_START 0B6B             ___lldiv@counter 007D  
       ??_MasterReceive_I2C 0070     __size_of_DHT11_ReadData 0035                 ___fladd@grs 007B  
         _MasterRepeatS_I2C 0B08               ___xxtofl@sign 0078                   _TRISCbits 0087  
                 _TRISEbits 0089          MasterSend_I2C@dato 0070          ?_MasterRepeatS_I2C 0070  
 __end_of_MasterReceive_I2C 0B8C                 ___flmul@grs 002E              __end_of_CONFIG 0C00  
       ??_MasterRepeatS_I2C 0070              __end_of___bmul 0B50   __end_of_MasterRepeatS_I2C 0B11  
       start_initialization 07DD                 _DHT11_ALIVE 0C00                    ??_CONFIG 007E  
        divisiondecimal@dec 007A          divisiondecimal@div 007D                 _DHT11_START 0B50  
                  ??___bmul 0071                   __Umul8_16 0BB0                 __pdataBANK0 006F  
    __size_of_waitCondition 000D                   ___fladd@a 0074                   ___fladd@b 0070  
     divisiondecimal@conteo 007C                   ___flmul@a 0024                   ___flmul@b 0020  
                 ___flsub@a 0028                   ___flsub@b 002C                   ___latbits 0002  
             __pcstackBANK0 0020           __size_of___xxtofl 00BA            floToChar@decimal 0052  
__size_of_MasterReceive_I2C 0021             _MasterStart_I2C 0B11    __size_of_divisiondecimal 007D  
                  ?___fladd 0070                    ?___awdiv 0070                    ?___awmod 0070  
                  ?___flmul 0020                    ?___flsub 0028                    ?___fltol 003A  
                  ?___lldiv 0070                  ?__Umul8_16 0070            ??_MasterInit_I2C 0024  
                 _floToChar 0F3A              _DHT11_ReadData 0C2C  __size_of_MasterRepeatS_I2C 0009  
          ??_MasterSend_I2C 0070                    _CHECKSUM 006A                   _dummyHum1 006B  
          ??_MasterStop_I2C 0070               _waitCondition 0B2E      __end_of_DHT11_ReadData 0C61  
                ?_floToChar 0045     __end_of_MasterStart_I2C 0B1A              ?_waitCondition 0070  
              _SlaveAddress 006F           divisiondecimal@un 0079                 ??__Umul8_16 0072  
           ?_DHT11_ReadData 0070            __size_of___fladd 0298            __size_of___awdiv 0067  
          __size_of___awmod 0059            __size_of___flmul 0361            __size_of___flsub 0024  
          __size_of___fltol 007C            __size_of___lldiv 0066           ??_divisiondecimal 0020  
           DHT11_ReadData@i 0072             floToChar@entero 0053             floToChar@salida 0049  
                  ___xxtofl 0E80                    __ptext10 0BB0                    __ptext11 0C61  
                  __ptext20 0C00                    __ptext12 0B1A                    __ptext21 0BD7  
                  __ptext13 0B11                    __ptext22 0005                    __ptext14 0B23  
                  __ptext23 0CBA                    __ptext15 0B08                    __ptext16 0B6B  
                  __ptext17 0B2E                    __ptext18 0B50                    __ptext19 0C2C  
              ?_DHT11_ALIVE 0070                ?_DHT11_START 0070               __size_of_main 01A6  
               ??_floToChar 004A             ??_waitCondition 0070            ?_MasterStart_I2C 0070  
            floToChar@valor 0045            ___lldiv@dividend 0074                  _OSCCONbits 008F  
    __Umul8_16@multiplicand 0070               floToChar@temp 004E            ___lldiv@quotient 0079  
               _SSPCON2bits 0091               ___fladd@signs 0078                ___fladd@aexp 0079  
              ___fladd@bexp 007A        __Umul8_16@multiplier 0078           __Umul8_16@product 0074  
