

Microchip MPLAB XC8 Assembler V2.31 build 20201012212115 
                                                                                               Fri Aug 20 15:11:58 2021

Microchip MPLAB XC8 C Compiler v2.31 (Free license) build 20201012212115 Og1 
     1                           	processor	16F887
     2                           	pagewidth 120
     3                           	opt	flic
     4                           	psect	idataCOMMON,global,class=CODE,delta=2,noexec
     5                           	psect	strings,global,class=STRING,delta=2,noexec
     6                           	psect	cinit,global,class=CODE,merge=1,delta=2
     7                           	psect	bssCOMMON,global,class=COMMON,space=1,delta=1,noexec
     8                           	psect	dataCOMMON,global,class=COMMON,space=1,delta=1,noexec
     9                           	psect	bssBANK0,global,class=BANK0,space=1,delta=1,noexec
    10                           	psect	bssBANK1,global,class=BANK1,space=1,delta=1,noexec
    11                           	psect	cstackBANK1,global,class=BANK1,space=1,delta=1,noexec
    12                           	psect	cstackCOMMON,global,class=COMMON,space=1,delta=1,noexec
    13                           	psect	cstackBANK0,global,class=BANK0,space=1,delta=1,noexec
    14                           	psect	maintext,global,class=CODE,split=1,delta=2
    15                           	psect	text1,local,class=CODE,merge=1,delta=2
    16                           	psect	text2,local,class=CODE,merge=1,delta=2
    17                           	psect	text3,local,class=CODE,merge=1,delta=2
    18                           	psect	text4,local,class=CODE,merge=1,delta=2,group=1
    19                           	psect	text5,local,class=CODE,merge=1,delta=2,group=1
    20                           	psect	text6,local,class=CODE,merge=1,delta=2,group=1
    21                           	psect	text7,local,class=CODE,merge=1,delta=2,group=1
    22                           	psect	text8,local,class=CODE,merge=1,delta=2,group=1
    23                           	psect	text9,local,class=CODE,merge=1,delta=2,group=1
    24                           	psect	text10,local,class=CODE,merge=1,delta=2,group=1
    25                           	psect	text11,local,class=CODE,merge=1,delta=2,group=1
    26                           	psect	text12,local,class=CODE,merge=1,delta=2
    27                           	psect	text13,local,class=CODE,merge=1,delta=2
    28                           	psect	text14,local,class=CODE,merge=1,delta=2,group=1
    29                           	psect	text15,local,class=CODE,merge=1,delta=2
    30                           	psect	text16,local,class=CODE,merge=1,delta=2
    31                           	psect	text17,local,class=CODE,merge=1,delta=2
    32                           	psect	text18,local,class=CODE,merge=1,delta=2
    33                           	psect	text19,local,class=CODE,merge=1,delta=2
    34                           	psect	text20,local,class=CODE,merge=1,delta=2
    35                           	psect	text21,local,class=CODE,merge=1,delta=2
    36                           	psect	text22,local,class=CODE,merge=1,delta=2
    37                           	psect	text23,local,class=CODE,merge=1,delta=2
    38                           	psect	text24,local,class=CODE,merge=1,delta=2
    39                           	psect	text25,local,class=CODE,merge=1,delta=2
    40                           	psect	text26,local,class=CODE,merge=1,delta=2
    41                           	psect	text27,local,class=CODE,merge=1,delta=2
    42                           	psect	text28,local,class=CODE,merge=1,delta=2
    43                           	psect	text29,local,class=CODE,merge=1,delta=2,group=1
    44                           	psect	text30,local,class=CODE,merge=1,delta=2
    45                           	psect	intentry,global,class=CODE,delta=2
    46                           	psect	config,global,abs,ovrld,class=CONFIG,space=4,delta=2,noexec
    47                           	dabs	1,0x7E,2
    48  0000                     
    49                           ; Version 2.20
    50                           ; Generated 12/02/2020 GMT
    51                           ; 
    52                           ; Copyright © 2020, Microchip Technology Inc. and its subsidiaries ("Microchip")
    53                           ; All rights reserved.
    54                           ; 
    55                           ; This software is developed by Microchip Technology Inc. and its subsidiaries ("Microch
      +                          ip").
    56                           ; 
    57                           ; Redistribution and use in source and binary forms, with or without modification, are
    58                           ; permitted provided that the following conditions are met:
    59                           ; 
    60                           ;     1. Redistributions of source code must retain the above copyright notice, this lis
      +                          t of
    61                           ;        conditions and the following disclaimer.
    62                           ; 
    63                           ;     2. Redistributions in binary form must reproduce the above copyright notice, this 
      +                          list
    64                           ;        of conditions and the following disclaimer in the documentation and/or other
    65                           ;        materials provided with the distribution.
    66                           ; 
    67                           ;     3. Microchip's name may not be used to endorse or promote products derived from th
      +                          is
    68                           ;        software without specific prior written permission.
    69                           ; 
    70                           ; THIS SOFTWARE IS PROVIDED BY MICROCHIP "AS IS" AND ANY EXPRESS OR IMPLIED WARRANTIES,
    71                           ; INCLUDING, BUT NOT LIMITED TO, THE IMPLIED WARRANTIES OF MERCHANTABILITY AND FITNESS F
      +                          OR
    72                           ; PURPOSE ARE DISCLAIMED.  IN NO EVENT SHALL MICROCHIP BE LIABLE FOR ANY DIRECT, INDIREC
      +                          T,
    73                           ; INCIDENTAL, SPECIAL, EXEMPLARY, OR CONSEQUENTIAL DAMAGES (INCLUDING BUT NOT LIMITED TO
    74                           ; PROCUREMENT OF SUBSTITUTE GOODS OR SERVICES; LOSS OF USE, DATA OR PROFITS; OR BUSINESS
    75                           ; INTERRUPTION) HOWSOEVER CAUSED AND ON ANY THEORY OF LIABILITY, WHETHER IN CONTRACT, ST
      +                          RICT
    76                           ; LIABILITY, OR TORT (INCLUDING NEGLIGENCE OR OTHERWISE) ARISING IN ANY WAY OUT OF THE U
      +                          SE OF
    77                           ; THIS SOFTWARE, EVEN IF ADVISED OF THE POSSIBILITY OF SUCH DAMAGE.
    78                           ; 
    79                           ; 
    80                           ; Code-generator required, PIC16F887 Definitions
    81                           ; 
    82                           ; SFR Addresses
    83  0000                     	;# 
    84  0001                     	;# 
    85  0002                     	;# 
    86  0003                     	;# 
    87  0004                     	;# 
    88  0005                     	;# 
    89  0006                     	;# 
    90  0007                     	;# 
    91  0008                     	;# 
    92  0009                     	;# 
    93  000A                     	;# 
    94  000B                     	;# 
    95  000C                     	;# 
    96  000D                     	;# 
    97  000E                     	;# 
    98  000E                     	;# 
    99  000F                     	;# 
   100  0010                     	;# 
   101  0011                     	;# 
   102  0012                     	;# 
   103  0013                     	;# 
   104  0014                     	;# 
   105  0015                     	;# 
   106  0015                     	;# 
   107  0016                     	;# 
   108  0017                     	;# 
   109  0018                     	;# 
   110  0019                     	;# 
   111  001A                     	;# 
   112  001B                     	;# 
   113  001B                     	;# 
   114  001C                     	;# 
   115  001D                     	;# 
   116  001E                     	;# 
   117  001F                     	;# 
   118  0081                     	;# 
   119  0085                     	;# 
   120  0086                     	;# 
   121  0087                     	;# 
   122  0088                     	;# 
   123  0089                     	;# 
   124  008C                     	;# 
   125  008D                     	;# 
   126  008E                     	;# 
   127  008F                     	;# 
   128  0090                     	;# 
   129  0091                     	;# 
   130  0092                     	;# 
   131  0093                     	;# 
   132  0093                     	;# 
   133  0093                     	;# 
   134  0094                     	;# 
   135  0095                     	;# 
   136  0096                     	;# 
   137  0097                     	;# 
   138  0098                     	;# 
   139  0099                     	;# 
   140  009A                     	;# 
   141  009B                     	;# 
   142  009C                     	;# 
   143  009D                     	;# 
   144  009E                     	;# 
   145  009F                     	;# 
   146  0105                     	;# 
   147  0107                     	;# 
   148  0108                     	;# 
   149  0109                     	;# 
   150  010C                     	;# 
   151  010C                     	;# 
   152  010D                     	;# 
   153  010E                     	;# 
   154  010F                     	;# 
   155  0185                     	;# 
   156  0187                     	;# 
   157  0188                     	;# 
   158  0189                     	;# 
   159  018C                     	;# 
   160  018D                     	;# 
   161  0000                     	;# 
   162  0001                     	;# 
   163  0002                     	;# 
   164  0003                     	;# 
   165  0004                     	;# 
   166  0005                     	;# 
   167  0006                     	;# 
   168  0007                     	;# 
   169  0008                     	;# 
   170  0009                     	;# 
   171  000A                     	;# 
   172  000B                     	;# 
   173  000C                     	;# 
   174  000D                     	;# 
   175  000E                     	;# 
   176  000E                     	;# 
   177  000F                     	;# 
   178  0010                     	;# 
   179  0011                     	;# 
   180  0012                     	;# 
   181  0013                     	;# 
   182  0014                     	;# 
   183  0015                     	;# 
   184  0015                     	;# 
   185  0016                     	;# 
   186  0017                     	;# 
   187  0018                     	;# 
   188  0019                     	;# 
   189  001A                     	;# 
   190  001B                     	;# 
   191  001B                     	;# 
   192  001C                     	;# 
   193  001D                     	;# 
   194  001E                     	;# 
   195  001F                     	;# 
   196  0081                     	;# 
   197  0085                     	;# 
   198  0086                     	;# 
   199  0087                     	;# 
   200  0088                     	;# 
   201  0089                     	;# 
   202  008C                     	;# 
   203  008D                     	;# 
   204  008E                     	;# 
   205  008F                     	;# 
   206  0090                     	;# 
   207  0091                     	;# 
   208  0092                     	;# 
   209  0093                     	;# 
   210  0093                     	;# 
   211  0093                     	;# 
   212  0094                     	;# 
   213  0095                     	;# 
   214  0096                     	;# 
   215  0097                     	;# 
   216  0098                     	;# 
   217  0099                     	;# 
   218  009A                     	;# 
   219  009B                     	;# 
   220  009C                     	;# 
   221  009D                     	;# 
   222  009E                     	;# 
   223  009F                     	;# 
   224  0105                     	;# 
   225  0107                     	;# 
   226  0108                     	;# 
   227  0109                     	;# 
   228  010C                     	;# 
   229  010C                     	;# 
   230  010D                     	;# 
   231  010E                     	;# 
   232  010F                     	;# 
   233  0185                     	;# 
   234  0187                     	;# 
   235  0188                     	;# 
   236  0189                     	;# 
   237  018C                     	;# 
   238  018D                     	;# 
   239  0000                     	;# 
   240  0001                     	;# 
   241  0002                     	;# 
   242  0003                     	;# 
   243  0004                     	;# 
   244  0005                     	;# 
   245  0006                     	;# 
   246  0007                     	;# 
   247  0008                     	;# 
   248  0009                     	;# 
   249  000A                     	;# 
   250  000B                     	;# 
   251  000C                     	;# 
   252  000D                     	;# 
   253  000E                     	;# 
   254  000E                     	;# 
   255  000F                     	;# 
   256  0010                     	;# 
   257  0011                     	;# 
   258  0012                     	;# 
   259  0013                     	;# 
   260  0014                     	;# 
   261  0015                     	;# 
   262  0015                     	;# 
   263  0016                     	;# 
   264  0017                     	;# 
   265  0018                     	;# 
   266  0019                     	;# 
   267  001A                     	;# 
   268  001B                     	;# 
   269  001B                     	;# 
   270  001C                     	;# 
   271  001D                     	;# 
   272  001E                     	;# 
   273  001F                     	;# 
   274  0081                     	;# 
   275  0085                     	;# 
   276  0086                     	;# 
   277  0087                     	;# 
   278  0088                     	;# 
   279  0089                     	;# 
   280  008C                     	;# 
   281  008D                     	;# 
   282  008E                     	;# 
   283  008F                     	;# 
   284  0090                     	;# 
   285  0091                     	;# 
   286  0092                     	;# 
   287  0093                     	;# 
   288  0093                     	;# 
   289  0093                     	;# 
   290  0094                     	;# 
   291  0095                     	;# 
   292  0096                     	;# 
   293  0097                     	;# 
   294  0098                     	;# 
   295  0099                     	;# 
   296  009A                     	;# 
   297  009B                     	;# 
   298  009C                     	;# 
   299  009D                     	;# 
   300  009E                     	;# 
   301  009F                     	;# 
   302  0105                     	;# 
   303  0107                     	;# 
   304  0108                     	;# 
   305  0109                     	;# 
   306  010C                     	;# 
   307  010C                     	;# 
   308  010D                     	;# 
   309  010E                     	;# 
   310  010F                     	;# 
   311  0185                     	;# 
   312  0187                     	;# 
   313  0188                     	;# 
   314  0189                     	;# 
   315  018C                     	;# 
   316  018D                     	;# 
   317  0000                     	;# 
   318  0001                     	;# 
   319  0002                     	;# 
   320  0003                     	;# 
   321  0004                     	;# 
   322  0005                     	;# 
   323  0006                     	;# 
   324  0007                     	;# 
   325  0008                     	;# 
   326  0009                     	;# 
   327  000A                     	;# 
   328  000B                     	;# 
   329  000C                     	;# 
   330  000D                     	;# 
   331  000E                     	;# 
   332  000E                     	;# 
   333  000F                     	;# 
   334  0010                     	;# 
   335  0011                     	;# 
   336  0012                     	;# 
   337  0013                     	;# 
   338  0014                     	;# 
   339  0015                     	;# 
   340  0015                     	;# 
   341  0016                     	;# 
   342  0017                     	;# 
   343  0018                     	;# 
   344  0019                     	;# 
   345  001A                     	;# 
   346  001B                     	;# 
   347  001B                     	;# 
   348  001C                     	;# 
   349  001D                     	;# 
   350  001E                     	;# 
   351  001F                     	;# 
   352  0081                     	;# 
   353  0085                     	;# 
   354  0086                     	;# 
   355  0087                     	;# 
   356  0088                     	;# 
   357  0089                     	;# 
   358  008C                     	;# 
   359  008D                     	;# 
   360  008E                     	;# 
   361  008F                     	;# 
   362  0090                     	;# 
   363  0091                     	;# 
   364  0092                     	;# 
   365  0093                     	;# 
   366  0093                     	;# 
   367  0093                     	;# 
   368  0094                     	;# 
   369  0095                     	;# 
   370  0096                     	;# 
   371  0097                     	;# 
   372  0098                     	;# 
   373  0099                     	;# 
   374  009A                     	;# 
   375  009B                     	;# 
   376  009C                     	;# 
   377  009D                     	;# 
   378  009E                     	;# 
   379  009F                     	;# 
   380  0105                     	;# 
   381  0107                     	;# 
   382  0108                     	;# 
   383  0109                     	;# 
   384  010C                     	;# 
   385  010C                     	;# 
   386  010D                     	;# 
   387  010E                     	;# 
   388  010F                     	;# 
   389  0185                     	;# 
   390  0187                     	;# 
   391  0188                     	;# 
   392  0189                     	;# 
   393  018C                     	;# 
   394  018D                     	;# 
   395  0000                     	;# 
   396  0001                     	;# 
   397  0002                     	;# 
   398  0003                     	;# 
   399  0004                     	;# 
   400  0005                     	;# 
   401  0006                     	;# 
   402  0007                     	;# 
   403  0008                     	;# 
   404  0009                     	;# 
   405  000A                     	;# 
   406  000B                     	;# 
   407  000C                     	;# 
   408  000D                     	;# 
   409  000E                     	;# 
   410  000E                     	;# 
   411  000F                     	;# 
   412  0010                     	;# 
   413  0011                     	;# 
   414  0012                     	;# 
   415  0013                     	;# 
   416  0014                     	;# 
   417  0015                     	;# 
   418  0015                     	;# 
   419  0016                     	;# 
   420  0017                     	;# 
   421  0018                     	;# 
   422  0019                     	;# 
   423  001A                     	;# 
   424  001B                     	;# 
   425  001B                     	;# 
   426  001C                     	;# 
   427  001D                     	;# 
   428  001E                     	;# 
   429  001F                     	;# 
   430  0081                     	;# 
   431  0085                     	;# 
   432  0086                     	;# 
   433  0087                     	;# 
   434  0088                     	;# 
   435  0089                     	;# 
   436  008C                     	;# 
   437  008D                     	;# 
   438  008E                     	;# 
   439  008F                     	;# 
   440  0090                     	;# 
   441  0091                     	;# 
   442  0092                     	;# 
   443  0093                     	;# 
   444  0093                     	;# 
   445  0093                     	;# 
   446  0094                     	;# 
   447  0095                     	;# 
   448  0096                     	;# 
   449  0097                     	;# 
   450  0098                     	;# 
   451  0099                     	;# 
   452  009A                     	;# 
   453  009B                     	;# 
   454  009C                     	;# 
   455  009D                     	;# 
   456  009E                     	;# 
   457  009F                     	;# 
   458  0105                     	;# 
   459  0107                     	;# 
   460  0108                     	;# 
   461  0109                     	;# 
   462  010C                     	;# 
   463  010C                     	;# 
   464  010D                     	;# 
   465  010E                     	;# 
   466  010F                     	;# 
   467  0185                     	;# 
   468  0187                     	;# 
   469  0188                     	;# 
   470  0189                     	;# 
   471  018C                     	;# 
   472  018D                     	;# 
   473  0000                     	;# 
   474  0001                     	;# 
   475  0002                     	;# 
   476  0003                     	;# 
   477  0004                     	;# 
   478  0005                     	;# 
   479  0006                     	;# 
   480  0007                     	;# 
   481  0008                     	;# 
   482  0009                     	;# 
   483  000A                     	;# 
   484  000B                     	;# 
   485  000C                     	;# 
   486  000D                     	;# 
   487  000E                     	;# 
   488  000E                     	;# 
   489  000F                     	;# 
   490  0010                     	;# 
   491  0011                     	;# 
   492  0012                     	;# 
   493  0013                     	;# 
   494  0014                     	;# 
   495  0015                     	;# 
   496  0015                     	;# 
   497  0016                     	;# 
   498  0017                     	;# 
   499  0018                     	;# 
   500  0019                     	;# 
   501  001A                     	;# 
   502  001B                     	;# 
   503  001B                     	;# 
   504  001C                     	;# 
   505  001D                     	;# 
   506  001E                     	;# 
   507  001F                     	;# 
   508  0081                     	;# 
   509  0085                     	;# 
   510  0086                     	;# 
   511  0087                     	;# 
   512  0088                     	;# 
   513  0089                     	;# 
   514  008C                     	;# 
   515  008D                     	;# 
   516  008E                     	;# 
   517  008F                     	;# 
   518  0090                     	;# 
   519  0091                     	;# 
   520  0092                     	;# 
   521  0093                     	;# 
   522  0093                     	;# 
   523  0093                     	;# 
   524  0094                     	;# 
   525  0095                     	;# 
   526  0096                     	;# 
   527  0097                     	;# 
   528  0098                     	;# 
   529  0099                     	;# 
   530  009A                     	;# 
   531  009B                     	;# 
   532  009C                     	;# 
   533  009D                     	;# 
   534  009E                     	;# 
   535  009F                     	;# 
   536  0105                     	;# 
   537  0107                     	;# 
   538  0108                     	;# 
   539  0109                     	;# 
   540  010C                     	;# 
   541  010C                     	;# 
   542  010D                     	;# 
   543  010E                     	;# 
   544  010F                     	;# 
   545  0185                     	;# 
   546  0187                     	;# 
   547  0188                     	;# 
   548  0189                     	;# 
   549  018C                     	;# 
   550  018D                     	;# 
   551                           
   552                           	psect	idataCOMMON
   553  0003                     __pidataCOMMON:
   554                           
   555                           ;initializer for _slaveAddress
   556  0003  3420               	retlw	32
   557  0019                     _TXREG	set	25
   558  0018                     _RCSTAbits	set	24
   559  0013                     _SSPBUF	set	19
   560  0014                     _SSPCON	set	20
   561  0010                     _T1CON	set	16
   562  000B                     _INTCONbits	set	11
   563  0008                     _PORTD	set	8
   564  0006                     _PORTB	set	6
   565  0005                     _PORTA	set	5
   566  0010                     _T1CONbits	set	16
   567  0006                     _PORTBbits	set	6
   568  000E                     _TMR1L	set	14
   569  000F                     _TMR1H	set	15
   570  001A                     _RCREG	set	26
   571  000C                     _PIR1bits	set	12
   572  004A                     _RE2	set	74
   573  0049                     _RE1	set	73
   574  0048                     _RE0	set	72
   575  0098                     _TXSTAbits	set	152
   576  0099                     _SPBRG	set	153
   577  0091                     _SSPCON2bits	set	145
   578  0087                     _TRISCbits	set	135
   579  0093                     _SSPADD	set	147
   580  0094                     _SSPSTAT	set	148
   581  0091                     _SSPCON2	set	145
   582  008C                     _PIE1bits	set	140
   583  008F                     _OSCCONbits	set	143
   584  0089                     _TRISEbits	set	137
   585  0088                     _TRISD	set	136
   586  0086                     _TRISB	set	134
   587  0085                     _TRISA	set	133
   588  0189                     _ANSELH	set	393
   589  0188                     _ANSEL	set	392
   590                           
   591                           	psect	strings
   592  0800                     __pstrings:
   593  0800                     stringtab:
   594  0800                     __stringtab:
   595  0800                     stringcode:	
   596                           ;	String table - string pointers are 1 byte each
   597                           
   598  0800                     stringdir:
   599  0800  3008               	movlw	high stringdir
   600  0801  008A               	movwf	10
   601  0802  0804               	movf	4,w
   602  0803  0A84               	incf	4,f
   603  0804  0782               	addwf	2,f
   604  0805                     __stringbase:
   605  0805  3400               	retlw	0
   606  0806                     __end_of__stringtab:
   607  0806                     STR_2:
   608  0806  3448               	retlw	72	;'H'
   609  0807  3455               	retlw	85	;'U'
   610  0808  344D               	retlw	77	;'M'
   611  0809  3420               	retlw	32	;' '
   612  080A  3452               	retlw	82	;'R'
   613  080B  343A               	retlw	58	;':'
   614  080C  3420               	retlw	32	;' '
   615  080D  3400               	retlw	0
   616  080E                     STR_1:
   617  080E  3454               	retlw	84	;'T'
   618  080F  3465               	retlw	101	;'e'
   619  0810  346D               	retlw	109	;'m'
   620  0811  3470               	retlw	112	;'p'
   621  0812  343A               	retlw	58	;':'
   622  0813  3420               	retlw	32	;' '
   623  0814  3400               	retlw	0
   624                           
   625                           	psect	cinit
   626  000F                     start_initialization:	
   627                           ; #config settings
   628                           
   629  000F                     __initialization:
   630                           
   631                           ; Initialize objects allocated to COMMON
   632  000F  120A  118A  2003  120A  118A  	fcall	__pidataCOMMON	;fetch initializer
   633  0014  00FA               	movwf	__pdataCOMMON& (0+127)
   634                           
   635                           ; Clear objects allocated to BANK1
   636  0015  1683               	bsf	3,5	;RP0=1, select bank1
   637  0016  1303               	bcf	3,6	;RP1=0, select bank1
   638  0017  01A0               	clrf	__pbssBANK1& (0+127)
   639  0018  01A1               	clrf	(__pbssBANK1+1)& (0+127)
   640  0019  01A2               	clrf	(__pbssBANK1+2)& (0+127)
   641  001A  01A3               	clrf	(__pbssBANK1+3)& (0+127)
   642  001B  01A4               	clrf	(__pbssBANK1+4)& (0+127)
   643  001C  01A5               	clrf	(__pbssBANK1+5)& (0+127)
   644  001D  01A6               	clrf	(__pbssBANK1+6)& (0+127)
   645  001E  01A7               	clrf	(__pbssBANK1+7)& (0+127)
   646  001F  01A8               	clrf	(__pbssBANK1+8)& (0+127)
   647  0020  01A9               	clrf	(__pbssBANK1+9)& (0+127)
   648  0021  01AA               	clrf	(__pbssBANK1+10)& (0+127)
   649  0022  01AB               	clrf	(__pbssBANK1+11)& (0+127)
   650                           
   651                           ; Clear objects allocated to BANK0
   652  0023  1283               	bcf	3,5	;RP0=0, select bank0
   653  0024  1303               	bcf	3,6	;RP1=0, select bank0
   654  0025  01E2               	clrf	__pbssBANK0& (0+127)
   655  0026  01E3               	clrf	(__pbssBANK0+1)& (0+127)
   656  0027  01E4               	clrf	(__pbssBANK0+2)& (0+127)
   657  0028  01E5               	clrf	(__pbssBANK0+3)& (0+127)
   658  0029  01E6               	clrf	(__pbssBANK0+4)& (0+127)
   659  002A  01E7               	clrf	(__pbssBANK0+5)& (0+127)
   660  002B  01E8               	clrf	(__pbssBANK0+6)& (0+127)
   661  002C  01E9               	clrf	(__pbssBANK0+7)& (0+127)
   662                           
   663                           ; Clear objects allocated to COMMON
   664  002D  01F8               	clrf	__pbssCOMMON& (0+127)
   665  002E  01F9               	clrf	(__pbssCOMMON+1)& (0+127)
   666  002F                     end_of_initialization:	
   667                           ;End of C runtime variable initialization code
   668                           
   669  002F                     __end_of__initialization:
   670  002F  0183               	clrf	3
   671  0030  120A  158A  2DBE   	ljmp	_main	;jump to C main() function
   672                           
   673                           	psect	bssCOMMON
   674  0078                     __pbssCOMMON:
   675  0078                     _HumR:
   676  0078                     	ds	2
   677                           
   678                           	psect	dataCOMMON
   679  007A                     __pdataCOMMON:
   680  007A                     _slaveAddress:
   681  007A                     	ds	1
   682                           
   683                           	psect	bssBANK0
   684  0062                     __pbssBANK0:
   685  0062                     _UARTData:
   686  0062                     	ds	1
   687  0063                     _TempDEC:
   688  0063                     	ds	1
   689  0064                     _TempENT:
   690  0064                     	ds	1
   691  0065                     _CHECKSUM:
   692  0065                     	ds	1
   693  0066                     _dummyHum1:
   694  0066                     	ds	1
   695  0067                     _Hum1:
   696  0067                     	ds	1
   697  0068                     _dummyT1:
   698  0068                     	ds	1
   699  0069                     _Temp1:
   700  0069                     	ds	1
   701                           
   702                           	psect	bssBANK1
   703  00A0                     __pbssBANK1:
   704  00A0                     _digTemp:
   705  00A0                     	ds	4
   706  00A4                     _temp:
   707  00A4                     	ds	2
   708  00A6                     _TEMPdig:
   709  00A6                     	ds	6
   710                           
   711                           	psect	cstackBANK1
   712  00AC                     __pcstackBANK1:
   713  00AC                     ??_main:
   714                           
   715                           ; 1 bytes @ 0x0
   716  00AC                     	ds	10
   717                           
   718                           	psect	cstackCOMMON
   719  0070                     __pcstackCOMMON:
   720  0070                     ?_CONFIG:
   721  0070                     ?_initLCD:	
   722                           ; 1 bytes @ 0x0
   723                           
   724  0070                     ?_MasterStart_I2C:	
   725                           ; 1 bytes @ 0x0
   726                           
   727  0070                     ?_MasterSend_I2C:	
   728                           ; 1 bytes @ 0x0
   729                           
   730  0070                     ?_MasterStop_I2C:	
   731                           ; 1 bytes @ 0x0
   732                           
   733  0070                     ?_MasterRepeatS_I2C:	
   734                           ; 1 bytes @ 0x0
   735                           
   736  0070                     ?_MasterReceive_I2C:	
   737                           ; 1 bytes @ 0x0
   738                           
   739  0070                     ?_LCDstring:	
   740                           ; 1 bytes @ 0x0
   741                           
   742  0070                     ?_dispCHAR:	
   743                           ; 1 bytes @ 0x0
   744                           
   745  0070                     ?_DHT11_START:	
   746                           ; 1 bytes @ 0x0
   747                           
   748  0070                     ?_DHT11_ALIVE:	
   749                           ; 1 bytes @ 0x0
   750                           
   751  0070                     ?_DHT11_ReadData:	
   752                           ; 1 bytes @ 0x0
   753                           
   754  0070                     ?_configUART:	
   755                           ; 1 bytes @ 0x0
   756                           
   757  0070                     ?_comandoLCD:	
   758                           ; 1 bytes @ 0x0
   759                           
   760  0070                     ?_interrupcion:	
   761                           ; 1 bytes @ 0x0
   762                           
   763  0070                     ??_interrupcion:	
   764                           ; 1 bytes @ 0x0
   765                           
   766  0070                     ?_main:	
   767                           ; 1 bytes @ 0x0
   768                           
   769  0070                     ?_waitCondition:	
   770                           ; 1 bytes @ 0x0
   771                           
   772                           
   773                           ; 1 bytes @ 0x0
   774  0070                     	ds	3
   775  0073                     ??_MasterStart_I2C:
   776  0073                     ??_MasterSend_I2C:	
   777                           ; 1 bytes @ 0x3
   778                           
   779  0073                     ??_MasterStop_I2C:	
   780                           ; 1 bytes @ 0x3
   781                           
   782  0073                     ??_MasterRepeatS_I2C:	
   783                           ; 1 bytes @ 0x3
   784                           
   785  0073                     ??_MasterReceive_I2C:	
   786                           ; 1 bytes @ 0x3
   787                           
   788  0073                     ??_dispCHAR:	
   789                           ; 1 bytes @ 0x3
   790                           
   791  0073                     ??_DHT11_START:	
   792                           ; 1 bytes @ 0x3
   793                           
   794  0073                     ??_DHT11_ALIVE:	
   795                           ; 1 bytes @ 0x3
   796                           
   797  0073                     ??_DHT11_ReadData:	
   798                           ; 1 bytes @ 0x3
   799                           
   800  0073                     ??_configUART:	
   801                           ; 1 bytes @ 0x3
   802                           
   803  0073                     ??_comandoLCD:	
   804                           ; 1 bytes @ 0x3
   805                           
   806  0073                     ??_waitCondition:	
   807                           ; 1 bytes @ 0x3
   808                           
   809  0073                     ?___bmul:	
   810                           ; 1 bytes @ 0x3
   811                           
   812  0073                     ??___lldiv:	
   813                           ; 1 bytes @ 0x3
   814                           
   815  0073                     ?__Umul8_16:	
   816                           ; 1 bytes @ 0x3
   817                           
   818  0073                     ?___awdiv:	
   819                           ; 2 bytes @ 0x3
   820                           
   821  0073                     ?___awmod:	
   822                           ; 2 bytes @ 0x3
   823                           
   824  0073                     ?___xxtofl:	
   825                           ; 2 bytes @ 0x3
   826                           
   827  0073                     MasterSend_I2C@dato:	
   828                           ; 4 bytes @ 0x3
   829                           
   830  0073                     ___bmul@multiplicand:	
   831                           ; 1 bytes @ 0x3
   832                           
   833  0073                     ___fladd@signs:	
   834                           ; 1 bytes @ 0x3
   835                           
   836  0073                     __Umul8_16@multiplicand:	
   837                           ; 1 bytes @ 0x3
   838                           
   839  0073                     ___awdiv@divisor:	
   840                           ; 1 bytes @ 0x3
   841                           
   842  0073                     ___awmod@divisor:	
   843                           ; 2 bytes @ 0x3
   844                           
   845  0073                     ___xxtofl@val:	
   846                           ; 2 bytes @ 0x3
   847                           
   848                           
   849                           ; 4 bytes @ 0x3
   850  0073                     	ds	1
   851  0074                     ??_MasterInit_I2C:
   852  0074                     ??___bmul:	
   853                           ; 1 bytes @ 0x4
   854                           
   855  0074                     MasterReceive_I2C@valor:	
   856                           ; 1 bytes @ 0x4
   857                           
   858  0074                     dispCHAR@b:	
   859                           ; 1 bytes @ 0x4
   860                           
   861  0074                     ___fladd@aexp:	
   862                           ; 1 bytes @ 0x4
   863                           
   864                           
   865                           ; 1 bytes @ 0x4
   866  0074                     	ds	1
   867  0075                     ??_LCDstring:
   868  0075                     ??__Umul8_16:	
   869                           ; 1 bytes @ 0x5
   870                           
   871  0075                     DHT11_ReadData@i:	
   872                           ; 1 bytes @ 0x5
   873                           
   874  0075                     comandoLCD@cmd:	
   875                           ; 1 bytes @ 0x5
   876                           
   877  0075                     ___bmul@product:	
   878                           ; 1 bytes @ 0x5
   879                           
   880  0075                     ___fladd@bexp:	
   881                           ; 1 bytes @ 0x5
   882                           
   883  0075                     ___awdiv@dividend:	
   884                           ; 1 bytes @ 0x5
   885                           
   886  0075                     ___awmod@dividend:	
   887                           ; 2 bytes @ 0x5
   888                           
   889                           
   890                           ; 2 bytes @ 0x5
   891  0075                     	ds	1
   892  0076                     ??_initLCD:
   893  0076                     ?_cursorLCD:	
   894                           ; 1 bytes @ 0x6
   895                           
   896  0076                     DHT11_ReadData@datos:	
   897                           ; 1 bytes @ 0x6
   898                           
   899  0076                     cursorLCD@columna:	
   900                           ; 1 bytes @ 0x6
   901                           
   902  0076                     LCDstring@mensaje:	
   903                           ; 1 bytes @ 0x6
   904                           
   905  0076                     ___bmul@multiplier:	
   906                           ; 1 bytes @ 0x6
   907                           
   908  0076                     ___fladd@grs:	
   909                           ; 1 bytes @ 0x6
   910                           
   911                           
   912                           ; 1 bytes @ 0x6
   913  0076                     	ds	1
   914  0077                     ??_cursorLCD:
   915  0077                     ??___awdiv:	
   916                           ; 1 bytes @ 0x7
   917                           
   918  0077                     ??___awmod:	
   919                           ; 1 bytes @ 0x7
   920                           
   921  0077                     ??___flsub:	
   922                           ; 1 bytes @ 0x7
   923                           
   924                           
   925                           ; 1 bytes @ 0x7
   926  0077                     	ds	1
   927  0078                     ??_CONFIG:
   928                           
   929                           	psect	cstackBANK0
   930  0020                     __pcstackBANK0:	
   931                           ; 1 bytes @ 0x8
   932                           
   933  0020                     ??___xxtofl:
   934  0020                     ?___lldiv:	
   935                           ; 1 bytes @ 0x0
   936                           
   937  0020                     ?___fladd:	
   938                           ; 4 bytes @ 0x0
   939                           
   940  0020                     cursorLCD@fila:	
   941                           ; 4 bytes @ 0x0
   942                           
   943  0020                     ___awdiv@counter:	
   944                           ; 1 bytes @ 0x0
   945                           
   946  0020                     ___awmod@counter:	
   947                           ; 1 bytes @ 0x0
   948                           
   949  0020                     __Umul8_16@product:	
   950                           ; 1 bytes @ 0x0
   951                           
   952  0020                     ___lldiv@divisor:	
   953                           ; 2 bytes @ 0x0
   954                           
   955  0020                     ___fladd@b:	
   956                           ; 4 bytes @ 0x0
   957                           
   958                           
   959                           ; 4 bytes @ 0x0
   960  0020                     	ds	1
   961  0021                     cursorLCD@temp:
   962  0021                     ___awdiv@sign:	
   963                           ; 1 bytes @ 0x1
   964                           
   965  0021                     ___awmod@sign:	
   966                           ; 1 bytes @ 0x1
   967                           
   968                           
   969                           ; 1 bytes @ 0x1
   970  0021                     	ds	1
   971  0022                     ___awdiv@quotient:
   972  0022                     __Umul8_16@word_mpld:	
   973                           ; 2 bytes @ 0x2
   974                           
   975                           
   976                           ; 2 bytes @ 0x2
   977  0022                     	ds	2
   978  0024                     ?_divisiondecimal:
   979  0024                     divisiondecimal@un:	
   980                           ; 1 bytes @ 0x4
   981                           
   982  0024                     __Umul8_16@multiplier:	
   983                           ; 1 bytes @ 0x4
   984                           
   985  0024                     ___xxtofl@sign:	
   986                           ; 1 bytes @ 0x4
   987                           
   988  0024                     ___lldiv@dividend:	
   989                           ; 1 bytes @ 0x4
   990                           
   991  0024                     ___fladd@a:	
   992                           ; 4 bytes @ 0x4
   993                           
   994                           
   995                           ; 4 bytes @ 0x4
   996  0024                     	ds	1
   997  0025                     divisiondecimal@dec:
   998  0025                     ___xxtofl@exp:	
   999                           ; 1 bytes @ 0x5
  1000                           
  1001                           
  1002                           ; 1 bytes @ 0x5
  1003  0025                     	ds	1
  1004  0026                     divisiondecimal@cent:
  1005  0026                     ___xxtofl@arg:	
  1006                           ; 1 bytes @ 0x6
  1007                           
  1008                           
  1009                           ; 4 bytes @ 0x6
  1010  0026                     	ds	1
  1011  0027                     ??_divisiondecimal:
  1012                           
  1013                           ; 1 bytes @ 0x7
  1014  0027                     	ds	1
  1015  0028                     ??___fladd:
  1016  0028                     ___lldiv@quotient:	
  1017                           ; 1 bytes @ 0x8
  1018                           
  1019                           
  1020                           ; 4 bytes @ 0x8
  1021  0028                     	ds	2
  1022  002A                     ?___flmul:
  1023  002A                     divisiondecimal@conteo:	
  1024                           ; 4 bytes @ 0xA
  1025                           
  1026  002A                     ___flmul@b:	
  1027                           ; 1 bytes @ 0xA
  1028                           
  1029                           
  1030                           ; 4 bytes @ 0xA
  1031  002A                     	ds	1
  1032  002B                     divisiondecimal@div:
  1033                           
  1034                           ; 1 bytes @ 0xB
  1035  002B                     	ds	1
  1036  002C                     ___lldiv@counter:
  1037                           
  1038                           ; 1 bytes @ 0xC
  1039  002C                     	ds	1
  1040  002D                     ?_MasterInit_I2C:
  1041  002D                     MasterInit_I2C@frec:	
  1042                           ; 1 bytes @ 0xD
  1043                           
  1044                           
  1045                           ; 4 bytes @ 0xD
  1046  002D                     	ds	1
  1047  002E                     ___flmul@a:
  1048                           
  1049                           ; 4 bytes @ 0xE
  1050  002E                     	ds	2
  1051  0030                     ?___flsub:
  1052  0030                     ___flsub@a:	
  1053                           ; 4 bytes @ 0x10
  1054                           
  1055                           
  1056                           ; 4 bytes @ 0x10
  1057  0030                     	ds	2
  1058  0032                     ??___flmul:
  1059                           
  1060                           ; 1 bytes @ 0x12
  1061  0032                     	ds	2
  1062  0034                     ___flsub@b:
  1063                           
  1064                           ; 4 bytes @ 0x14
  1065  0034                     	ds	3
  1066  0037                     ___flmul@sign:
  1067                           
  1068                           ; 1 bytes @ 0x17
  1069  0037                     	ds	1
  1070  0038                     ___flmul@grs:
  1071                           
  1072                           ; 4 bytes @ 0x18
  1073  0038                     	ds	4
  1074  003C                     ___flmul@aexp:
  1075                           
  1076                           ; 1 bytes @ 0x1C
  1077  003C                     	ds	1
  1078  003D                     ___flmul@bexp:
  1079                           
  1080                           ; 1 bytes @ 0x1D
  1081  003D                     	ds	1
  1082  003E                     ___flmul@prod:
  1083                           
  1084                           ; 4 bytes @ 0x1E
  1085  003E                     	ds	4
  1086  0042                     ___flmul@temp:
  1087                           
  1088                           ; 2 bytes @ 0x22
  1089  0042                     	ds	2
  1090  0044                     ?___fltol:
  1091  0044                     ___fltol@f1:	
  1092                           ; 4 bytes @ 0x24
  1093                           
  1094                           
  1095                           ; 4 bytes @ 0x24
  1096  0044                     	ds	4
  1097  0048                     ??___fltol:
  1098                           
  1099                           ; 1 bytes @ 0x28
  1100  0048                     	ds	5
  1101  004D                     ___fltol@sign1:
  1102                           
  1103                           ; 1 bytes @ 0x2D
  1104  004D                     	ds	1
  1105  004E                     ___fltol@exp1:
  1106                           
  1107                           ; 1 bytes @ 0x2E
  1108  004E                     	ds	1
  1109  004F                     ?_floToChar:
  1110  004F                     floToChar@valor:	
  1111                           ; 1 bytes @ 0x2F
  1112                           
  1113                           
  1114                           ; 4 bytes @ 0x2F
  1115  004F                     	ds	4
  1116  0053                     floToChar@salida:
  1117                           
  1118                           ; 1 bytes @ 0x33
  1119  0053                     	ds	1
  1120  0054                     ??_floToChar:
  1121                           
  1122                           ; 1 bytes @ 0x34
  1123  0054                     	ds	4
  1124  0058                     floToChar@temp:
  1125                           
  1126                           ; 4 bytes @ 0x38
  1127  0058                     	ds	4
  1128  005C                     floToChar@decimal:
  1129                           
  1130                           ; 2 bytes @ 0x3C
  1131  005C                     	ds	2
  1132  005E                     floToChar@entero:
  1133                           
  1134                           ; 1 bytes @ 0x3E
  1135  005E                     	ds	1
  1136  005F                     floToChar@digdecimal:
  1137                           
  1138                           ; 3 bytes @ 0x3F
  1139  005F                     	ds	3
  1140                           
  1141                           	psect	maintext
  1142  0DBE                     __pmaintext:	
  1143 ;;
  1144 ;;Main: autosize = 0, tempsize = 10, incstack = 0, save=0
  1145 ;;
  1146 ;; *************** function _main *****************
  1147 ;; Defined at:
  1148 ;;		line 72 in file "main.c"
  1149 ;; Parameters:    Size  Location     Type
  1150 ;;		None
  1151 ;; Auto vars:     Size  Location     Type
  1152 ;;		None
  1153 ;; Return value:  Size  Location     Type
  1154 ;;                  1    wreg      void 
  1155 ;; Registers used:
  1156 ;;		wreg, fsr0l, fsr0h, status,2, status,0, btemp+1, pclath, cstack
  1157 ;; Tracked objects:
  1158 ;;		On entry : B00/0
  1159 ;;		On exit  : 0/0
  1160 ;;		Unchanged: 0/0
  1161 ;; Data sizes:     COMMON   BANK0   BANK1   BANK3   BANK2
  1162 ;;      Params:         0       0       0       0       0
  1163 ;;      Locals:         0       0       0       0       0
  1164 ;;      Temps:          0       0      10       0       0
  1165 ;;      Totals:         0       0      10       0       0
  1166 ;;Total ram usage:       10 bytes
  1167 ;; Hardware stack levels required when called:    4
  1168 ;; This function calls:
  1169 ;;		_CONFIG
  1170 ;;		_DHT11_ALIVE
  1171 ;;		_DHT11_ReadData
  1172 ;;		_DHT11_START
  1173 ;;		_LCDstring
  1174 ;;		_MasterReceive_I2C
  1175 ;;		_MasterRepeatS_I2C
  1176 ;;		_MasterSend_I2C
  1177 ;;		_MasterStart_I2C
  1178 ;;		_MasterStop_I2C
  1179 ;;		___awdiv
  1180 ;;		___awmod
  1181 ;;		___flmul
  1182 ;;		___xxtofl
  1183 ;;		_cursorLCD
  1184 ;;		_dispCHAR
  1185 ;;		_floToChar
  1186 ;;		_initLCD
  1187 ;; This function is called by:
  1188 ;;		Startup code after reset
  1189 ;; This function uses a non-reentrant model
  1190 ;;
  1191                           
  1192                           
  1193                           ;psect for function _main
  1194  0DBE                     _main:
  1195  0DBE                     l3111:	
  1196                           ;incstack = 0
  1197                           ; Regs used in _main: [wreg-fsr0h+status,2+status,0+btemp+1+pclath+cstack]
  1198                           
  1199                           
  1200                           ;main.c: 73:     CONFIG();
  1201  0DBE  120A  158A  2328  120A  158A  	fcall	_CONFIG
  1202                           
  1203                           ;main.c: 74:     initLCD();
  1204  0DC3  120A  118A  27A6  120A  158A  	fcall	_initLCD
  1205  0DC8                     l3113:
  1206                           
  1207                           ;main.c: 75:     TMR1H = 0;
  1208  0DC8  1283               	bcf	3,5	;RP0=0, select bank0
  1209  0DC9  1303               	bcf	3,6	;RP1=0, select bank0
  1210  0DCA  018F               	clrf	15	;volatile
  1211  0DCB                     l3115:
  1212                           
  1213                           ;main.c: 76:     TMR1L = 0;
  1214  0DCB  018E               	clrf	14	;volatile
  1215                           
  1216                           ;main.c: 79:     MasterStart_I2C();
  1217  0DCC  120A  158A  2181  120A  158A  	fcall	_MasterStart_I2C
  1218                           
  1219                           ;main.c: 80:     MasterSend_I2C(0X90);
  1220  0DD1  3090               	movlw	144
  1221  0DD2  120A  158A  2193  120A  158A  	fcall	_MasterSend_I2C
  1222                           
  1223                           ;main.c: 81:     MasterSend_I2C(0X01);
  1224  0DD7  3001               	movlw	1
  1225  0DD8  120A  158A  2193  120A  158A  	fcall	_MasterSend_I2C
  1226                           
  1227                           ;main.c: 82:     MasterSend_I2C(0X00);
  1228  0DDD  3000               	movlw	0
  1229  0DDE  120A  158A  2193  120A  158A  	fcall	_MasterSend_I2C
  1230                           
  1231                           ;main.c: 83:     MasterStop_I2C();
  1232  0DE3  120A  158A  218A  120A  158A  	fcall	_MasterStop_I2C
  1233  0DE8                     l111:	
  1234                           ;main.c: 85:     while(1){
  1235                           
  1236                           
  1237                           ;main.c: 87:         MasterStart_I2C();
  1238  0DE8  120A  158A  2181  120A  158A  	fcall	_MasterStart_I2C
  1239                           
  1240                           ;main.c: 88:         MasterSend_I2C(0X90);
  1241  0DED  3090               	movlw	144
  1242  0DEE  120A  158A  2193  120A  158A  	fcall	_MasterSend_I2C
  1243                           
  1244                           ;main.c: 89:         MasterSend_I2C(0X00);
  1245  0DF3  3000               	movlw	0
  1246  0DF4  120A  158A  2193  120A  158A  	fcall	_MasterSend_I2C
  1247                           
  1248                           ;main.c: 90:         MasterRepeatS_I2C();
  1249  0DF9  120A  158A  2178  120A  158A  	fcall	_MasterRepeatS_I2C
  1250                           
  1251                           ;main.c: 91:         MasterSend_I2C(0X91);
  1252  0DFE  3091               	movlw	145
  1253  0DFF  120A  158A  2193  120A  158A  	fcall	_MasterSend_I2C
  1254  0E04                     l3117:
  1255                           
  1256                           ;main.c: 92:         MasterReceive_I2C(&TempENT);
  1257  0E04  3064               	movlw	(low (_TempENT| 0))& (0+255)
  1258  0E05  120A  158A  2232  120A  158A  	fcall	_MasterReceive_I2C
  1259  0E0A                     l3119:
  1260                           
  1261                           ;main.c: 93:         MasterReceive_I2C(&TempDEC);
  1262  0E0A  3063               	movlw	(low (_TempDEC| 0))& (0+255)
  1263  0E0B  120A  158A  2232  120A  158A  	fcall	_MasterReceive_I2C
  1264                           
  1265                           ;main.c: 94:         MasterStop_I2C();
  1266  0E10  120A  158A  218A  120A  158A  	fcall	_MasterStop_I2C
  1267  0E15                     l3121:
  1268                           
  1269                           ;main.c: 96:         temp = (TempENT<<3)|(TempDEC>>5);
  1270  0E15  1283               	bcf	3,5	;RP0=0, select bank0
  1271  0E16  1303               	bcf	3,6	;RP1=0, select bank0
  1272  0E17  0863               	movf	_TempDEC,w
  1273  0E18  1683               	bsf	3,5	;RP0=1, select bank1
  1274  0E19  1303               	bcf	3,6	;RP1=0, select bank1
  1275  0E1A  00AC               	movwf	??_main^(0+128)
  1276  0E1B  3005               	movlw	5
  1277  0E1C                     u4065:
  1278  0E1C  1003               	clrc
  1279  0E1D  0CAC               	rrf	??_main^(0+128),f
  1280  0E1E  3EFF               	addlw	-1
  1281  0E1F  1D03               	skipz
  1282  0E20  2E1C               	goto	u4065
  1283  0E21  082C               	movf	??_main^(0+128),w
  1284  0E22  00AD               	movwf	(??_main+1)^(0+128)
  1285  0E23  01AE               	clrf	((??_main+1)^(0+128)+1)
  1286  0E24  1283               	bcf	3,5	;RP0=0, select bank0
  1287  0E25  1303               	bcf	3,6	;RP1=0, select bank0
  1288  0E26  0864               	movf	_TempENT,w
  1289  0E27  1683               	bsf	3,5	;RP0=1, select bank1
  1290  0E28  1303               	bcf	3,6	;RP1=0, select bank1
  1291  0E29  00AF               	movwf	(??_main+3)^(0+128)
  1292  0E2A  01B0               	clrf	((??_main+3)^(0+128)+1)
  1293  0E2B  1003               	clrc
  1294  0E2C  0DAF               	rlf	(??_main+3)^(0+128),f
  1295  0E2D  0DB0               	rlf	((??_main+3)^(0+128)+1),f
  1296  0E2E  1003               	clrc
  1297  0E2F  0DAF               	rlf	(??_main+3)^(0+128),f
  1298  0E30  0DB0               	rlf	((??_main+3)^(0+128)+1),f
  1299  0E31  1003               	clrc
  1300  0E32  0DAF               	rlf	(??_main+3)^(0+128),f
  1301  0E33  0DB0               	rlf	((??_main+3)^(0+128)+1),f
  1302  0E34  082D               	movf	(??_main+1)^(0+128),w
  1303  0E35  042F               	iorwf	(??_main+3)^(0+128),w
  1304  0E36  00A4               	movwf	_temp^(0+128)
  1305  0E37  082E               	movf	(??_main+2)^(0+128),w
  1306  0E38  0430               	iorwf	(??_main+4)^(0+128),w
  1307  0E39  00A5               	movwf	(_temp+1)^(0+128)
  1308  0E3A                     l3123:
  1309                           
  1310                           ;main.c: 97:         digTemp = (float)temp*0.125;
  1311  0E3A  303E               	movlw	62
  1312  0E3B  1283               	bcf	3,5	;RP0=0, select bank0
  1313  0E3C  1303               	bcf	3,6	;RP1=0, select bank0
  1314  0E3D  00AD               	movwf	___flmul@b+3
  1315  0E3E  3000               	movlw	0
  1316  0E3F  00AC               	movwf	___flmul@b+2
  1317  0E40  3000               	movlw	0
  1318  0E41  00AB               	movwf	___flmul@b+1
  1319  0E42  3000               	movlw	0
  1320  0E43  00AA               	movwf	___flmul@b
  1321  0E44  1683               	bsf	3,5	;RP0=1, select bank1
  1322  0E45  1303               	bcf	3,6	;RP1=0, select bank1
  1323  0E46  0824               	movf	_temp^(0+128),w
  1324  0E47  00F3               	movwf	___xxtofl@val
  1325  0E48  0825               	movf	(_temp+1)^(0+128),w
  1326  0E49  00F4               	movwf	___xxtofl@val+1
  1327  0E4A  01F5               	clrf	___xxtofl@val+2
  1328  0E4B  01F6               	clrf	___xxtofl@val+3
  1329  0E4C  3000               	movlw	0
  1330  0E4D  120A  118A  26EA  120A  158A  	fcall	___xxtofl
  1331  0E52  0876               	movf	?___xxtofl+3,w
  1332  0E53  1283               	bcf	3,5	;RP0=0, select bank0
  1333  0E54  1303               	bcf	3,6	;RP1=0, select bank0
  1334  0E55  00B1               	movwf	___flmul@a+3
  1335  0E56  0875               	movf	?___xxtofl+2,w
  1336  0E57  00B0               	movwf	___flmul@a+2
  1337  0E58  0874               	movf	?___xxtofl+1,w
  1338  0E59  00AF               	movwf	___flmul@a+1
  1339  0E5A  0873               	movf	?___xxtofl,w
  1340  0E5B  00AE               	movwf	___flmul@a
  1341  0E5C  120A  118A  2033  120A  158A  	fcall	___flmul
  1342  0E61  1283               	bcf	3,5	;RP0=0, select bank0
  1343  0E62  1303               	bcf	3,6	;RP1=0, select bank0
  1344  0E63  082D               	movf	?___flmul+3,w
  1345  0E64  1683               	bsf	3,5	;RP0=1, select bank1
  1346  0E65  1303               	bcf	3,6	;RP1=0, select bank1
  1347  0E66  00A3               	movwf	(_digTemp+3)^(0+128)
  1348  0E67  1283               	bcf	3,5	;RP0=0, select bank0
  1349  0E68  1303               	bcf	3,6	;RP1=0, select bank0
  1350  0E69  082C               	movf	?___flmul+2,w
  1351  0E6A  1683               	bsf	3,5	;RP0=1, select bank1
  1352  0E6B  1303               	bcf	3,6	;RP1=0, select bank1
  1353  0E6C  00A2               	movwf	(_digTemp+2)^(0+128)
  1354  0E6D  1283               	bcf	3,5	;RP0=0, select bank0
  1355  0E6E  1303               	bcf	3,6	;RP1=0, select bank0
  1356  0E6F  082B               	movf	?___flmul+1,w
  1357  0E70  1683               	bsf	3,5	;RP0=1, select bank1
  1358  0E71  1303               	bcf	3,6	;RP1=0, select bank1
  1359  0E72  00A1               	movwf	(_digTemp+1)^(0+128)
  1360  0E73  1283               	bcf	3,5	;RP0=0, select bank0
  1361  0E74  1303               	bcf	3,6	;RP1=0, select bank0
  1362  0E75  082A               	movf	?___flmul,w
  1363  0E76  1683               	bsf	3,5	;RP0=1, select bank1
  1364  0E77  1303               	bcf	3,6	;RP1=0, select bank1
  1365  0E78  00A0               	movwf	_digTemp^(0+128)
  1366  0E79                     l3125:
  1367                           
  1368                           ;main.c: 98:         floToChar(digTemp,TEMPdig);
  1369  0E79  0823               	movf	(_digTemp+3)^(0+128),w
  1370  0E7A  1283               	bcf	3,5	;RP0=0, select bank0
  1371  0E7B  1303               	bcf	3,6	;RP1=0, select bank0
  1372  0E7C  00D2               	movwf	floToChar@valor+3
  1373  0E7D  1683               	bsf	3,5	;RP0=1, select bank1
  1374  0E7E  1303               	bcf	3,6	;RP1=0, select bank1
  1375  0E7F  0822               	movf	(_digTemp+2)^(0+128),w
  1376  0E80  1283               	bcf	3,5	;RP0=0, select bank0
  1377  0E81  1303               	bcf	3,6	;RP1=0, select bank0
  1378  0E82  00D1               	movwf	floToChar@valor+2
  1379  0E83  1683               	bsf	3,5	;RP0=1, select bank1
  1380  0E84  1303               	bcf	3,6	;RP1=0, select bank1
  1381  0E85  0821               	movf	(_digTemp+1)^(0+128),w
  1382  0E86  1283               	bcf	3,5	;RP0=0, select bank0
  1383  0E87  1303               	bcf	3,6	;RP1=0, select bank0
  1384  0E88  00D0               	movwf	floToChar@valor+1
  1385  0E89  1683               	bsf	3,5	;RP0=1, select bank1
  1386  0E8A  1303               	bcf	3,6	;RP1=0, select bank1
  1387  0E8B  0820               	movf	_digTemp^(0+128),w
  1388  0E8C  1283               	bcf	3,5	;RP0=0, select bank0
  1389  0E8D  1303               	bcf	3,6	;RP1=0, select bank0
  1390  0E8E  00CF               	movwf	floToChar@valor
  1391  0E8F  30A6               	movlw	(low (_TEMPdig| 0))& (0+255)
  1392  0E90  1683               	bsf	3,5	;RP0=1, select bank1
  1393  0E91  1303               	bcf	3,6	;RP1=0, select bank1
  1394  0E92  00AC               	movwf	??_main^(0+128)
  1395  0E93  082C               	movf	??_main^(0+128),w
  1396  0E94  1283               	bcf	3,5	;RP0=0, select bank0
  1397  0E95  1303               	bcf	3,6	;RP1=0, select bank0
  1398  0E96  00D3               	movwf	floToChar@salida
  1399  0E97  120A  118A  2624  120A  158A  	fcall	_floToChar
  1400  0E9C                     l3127:
  1401                           
  1402                           ;main.c: 100:         cursorLCD(1,1);
  1403  0E9C  01F6               	clrf	cursorLCD@columna
  1404  0E9D  0AF6               	incf	cursorLCD@columna,f
  1405  0E9E  3001               	movlw	1
  1406  0E9F  120A  158A  2277  120A  158A  	fcall	_cursorLCD
  1407  0EA4                     l3129:
  1408                           
  1409                           ;main.c: 101:         LCDstring("Temp: ");
  1410  0EA4  3009               	movlw	(low ((STR_1-__stringbase)| (0+32768)))& (0+255)
  1411  0EA5  120A  158A  2213  120A  158A  	fcall	_LCDstring
  1412  0EAA                     l3131:
  1413                           
  1414                           ;main.c: 102:         dispCHAR(TEMPdig[5]+48);
  1415  0EAA  1683               	bsf	3,5	;RP0=1, select bank1
  1416  0EAB  1303               	bcf	3,6	;RP1=0, select bank1
  1417  0EAC  082B               	movf	(_TEMPdig^(0+128)+5),w
  1418  0EAD  3E30               	addlw	48
  1419  0EAE  120A  118A  27F0  120A  158A  	fcall	_dispCHAR
  1420  0EB3                     l3133:
  1421                           
  1422                           ;main.c: 103:         dispCHAR(TEMPdig[4]+48);
  1423  0EB3  1683               	bsf	3,5	;RP0=1, select bank1
  1424  0EB4  1303               	bcf	3,6	;RP1=0, select bank1
  1425  0EB5  082A               	movf	(_TEMPdig^(0+128)+4),w
  1426  0EB6  3E30               	addlw	48
  1427  0EB7  120A  118A  27F0  120A  158A  	fcall	_dispCHAR
  1428  0EBC                     l3135:
  1429                           
  1430                           ;main.c: 104:         dispCHAR(TEMPdig[3]+48);
  1431  0EBC  1683               	bsf	3,5	;RP0=1, select bank1
  1432  0EBD  1303               	bcf	3,6	;RP1=0, select bank1
  1433  0EBE  0829               	movf	(_TEMPdig^(0+128)+3),w
  1434  0EBF  3E30               	addlw	48
  1435  0EC0  120A  118A  27F0  120A  158A  	fcall	_dispCHAR
  1436  0EC5                     l3137:
  1437                           
  1438                           ;main.c: 105:         dispCHAR('.');
  1439  0EC5  302E               	movlw	46
  1440  0EC6  120A  118A  27F0  120A  158A  	fcall	_dispCHAR
  1441  0ECB                     l3139:
  1442                           
  1443                           ;main.c: 106:         dispCHAR(TEMPdig[1]+48);
  1444  0ECB  1683               	bsf	3,5	;RP0=1, select bank1
  1445  0ECC  1303               	bcf	3,6	;RP1=0, select bank1
  1446  0ECD  0827               	movf	(_TEMPdig^(0+128)+1),w
  1447  0ECE  3E30               	addlw	48
  1448  0ECF  120A  118A  27F0  120A  158A  	fcall	_dispCHAR
  1449  0ED4                     l3141:
  1450                           
  1451                           ;main.c: 107:         dispCHAR(TEMPdig[2]+48);
  1452  0ED4  1683               	bsf	3,5	;RP0=1, select bank1
  1453  0ED5  1303               	bcf	3,6	;RP1=0, select bank1
  1454  0ED6  0828               	movf	(_TEMPdig^(0+128)+2),w
  1455  0ED7  3E30               	addlw	48
  1456  0ED8  120A  118A  27F0  120A  158A  	fcall	_dispCHAR
  1457  0EDD                     l3143:
  1458                           
  1459                           ;main.c: 108:         dispCHAR(TEMPdig[0]+48);
  1460  0EDD  1683               	bsf	3,5	;RP0=1, select bank1
  1461  0EDE  1303               	bcf	3,6	;RP1=0, select bank1
  1462  0EDF  0826               	movf	_TEMPdig^(0+128),w
  1463  0EE0  3E30               	addlw	48
  1464  0EE1  120A  118A  27F0  120A  158A  	fcall	_dispCHAR
  1465  0EE6                     l3145:
  1466                           
  1467                           ;main.c: 109:         dispCHAR(223);
  1468  0EE6  30DF               	movlw	223
  1469  0EE7  120A  118A  27F0  120A  158A  	fcall	_dispCHAR
  1470  0EEC                     l3147:
  1471                           
  1472                           ;main.c: 110:         dispCHAR('C');
  1473  0EEC  3043               	movlw	67
  1474  0EED  120A  118A  27F0  120A  158A  	fcall	_dispCHAR
  1475  0EF2                     l3149:
  1476                           
  1477                           ;main.c: 111:         cursorLCD(2,1);
  1478  0EF2  01F6               	clrf	cursorLCD@columna
  1479  0EF3  0AF6               	incf	cursorLCD@columna,f
  1480  0EF4  3002               	movlw	2
  1481  0EF5  120A  158A  2277  120A  158A  	fcall	_cursorLCD
  1482  0EFA                     l3151:
  1483                           
  1484                           ;main.c: 112:         LCDstring("HUM R: ");
  1485  0EFA  3001               	movlw	(low ((STR_2-__stringbase)| (0+32768)))& (0+255)
  1486  0EFB  120A  158A  2213  120A  158A  	fcall	_LCDstring
  1487  0F00                     l3153:
  1488                           
  1489                           ;main.c: 113:         dispCHAR(HumR[0]);
  1490  0F00  0878               	movf	_HumR,w
  1491  0F01  120A  118A  27F0  120A  158A  	fcall	_dispCHAR
  1492  0F06                     l3155:
  1493                           
  1494                           ;main.c: 114:         dispCHAR(HumR[1]);
  1495  0F06  0879               	movf	_HumR+1,w
  1496  0F07  120A  118A  27F0  120A  158A  	fcall	_dispCHAR
  1497  0F0C                     l3157:
  1498                           
  1499                           ;main.c: 115:         dispCHAR('%');
  1500  0F0C  3025               	movlw	37
  1501  0F0D  120A  118A  27F0  120A  158A  	fcall	_dispCHAR
  1502                           
  1503                           ;main.c: 117:         switch(UARTData){
  1504  0F12  2F36               	goto	l3161
  1505  0F13                     l113:	
  1506                           ;main.c: 118:             case 'a':
  1507                           
  1508                           
  1509                           ;main.c: 119:                 PORTBbits.RB0 = 1;
  1510  0F13  1283               	bcf	3,5	;RP0=0, select bank0
  1511  0F14  1303               	bcf	3,6	;RP1=0, select bank0
  1512  0F15  1406               	bsf	6,0	;volatile
  1513                           
  1514                           ;main.c: 120:                 PORTBbits.RB1 = 0;
  1515  0F16  1086               	bcf	6,1	;volatile
  1516                           
  1517                           ;main.c: 121:                 PORTBbits.RB2 = 1;
  1518  0F17  1506               	bsf	6,2	;volatile
  1519                           
  1520                           ;main.c: 122:                 PORTBbits.RB3 = 0;
  1521  0F18  1186               	bcf	6,3	;volatile
  1522                           
  1523                           ;main.c: 123:                 break;
  1524  0F19  2F53               	goto	l3163
  1525  0F1A                     l115:	
  1526                           ;main.c: 124:             case 'b':
  1527                           
  1528                           
  1529                           ;main.c: 125:                 PORTBbits.RB0 = 0;
  1530  0F1A  1283               	bcf	3,5	;RP0=0, select bank0
  1531  0F1B  1303               	bcf	3,6	;RP1=0, select bank0
  1532  0F1C  1006               	bcf	6,0	;volatile
  1533                           
  1534                           ;main.c: 126:                 PORTBbits.RB1 = 1;
  1535  0F1D  1486               	bsf	6,1	;volatile
  1536                           
  1537                           ;main.c: 127:                 PORTBbits.RB2 = 0;
  1538  0F1E  1106               	bcf	6,2	;volatile
  1539                           
  1540                           ;main.c: 128:                 PORTBbits.RB3 = 1;
  1541  0F1F  1586               	bsf	6,3	;volatile
  1542                           
  1543                           ;main.c: 129:                 break;
  1544  0F20  2F53               	goto	l3163
  1545  0F21                     l116:	
  1546                           ;main.c: 130:             case 'c':
  1547                           
  1548                           
  1549                           ;main.c: 131:                 PORTBbits.RB0 = 1;
  1550  0F21  1283               	bcf	3,5	;RP0=0, select bank0
  1551  0F22  1303               	bcf	3,6	;RP1=0, select bank0
  1552  0F23  1406               	bsf	6,0	;volatile
  1553                           
  1554                           ;main.c: 132:                 PORTBbits.RB1 = 0;
  1555  0F24  1086               	bcf	6,1	;volatile
  1556                           
  1557                           ;main.c: 133:                 PORTBbits.RB2 = 0;
  1558  0F25  1106               	bcf	6,2	;volatile
  1559                           
  1560                           ;main.c: 134:                 PORTBbits.RB3 = 1;
  1561  0F26  1586               	bsf	6,3	;volatile
  1562                           
  1563                           ;main.c: 135:                 break;
  1564  0F27  2F53               	goto	l3163
  1565  0F28                     l117:	
  1566                           ;main.c: 136:             case 'd':
  1567                           
  1568                           
  1569                           ;main.c: 137:                 PORTBbits.RB0 = 0;
  1570  0F28  1283               	bcf	3,5	;RP0=0, select bank0
  1571  0F29  1303               	bcf	3,6	;RP1=0, select bank0
  1572  0F2A  1006               	bcf	6,0	;volatile
  1573                           
  1574                           ;main.c: 138:                 PORTBbits.RB1 = 1;
  1575  0F2B  1486               	bsf	6,1	;volatile
  1576                           
  1577                           ;main.c: 139:                 PORTBbits.RB2 = 1;
  1578  0F2C  1506               	bsf	6,2	;volatile
  1579                           
  1580                           ;main.c: 140:                 PORTBbits.RB3 = 0;
  1581  0F2D  1186               	bcf	6,3	;volatile
  1582                           
  1583                           ;main.c: 141:                 break;
  1584  0F2E  2F53               	goto	l3163
  1585  0F2F                     l118:	
  1586                           ;main.c: 142:             case 'e':
  1587                           
  1588                           
  1589                           ;main.c: 143:                 PORTBbits.RB0 = 0;
  1590  0F2F  1283               	bcf	3,5	;RP0=0, select bank0
  1591  0F30  1303               	bcf	3,6	;RP1=0, select bank0
  1592  0F31  1006               	bcf	6,0	;volatile
  1593                           
  1594                           ;main.c: 144:                 PORTBbits.RB1 = 0;
  1595  0F32  1086               	bcf	6,1	;volatile
  1596                           
  1597                           ;main.c: 145:                 PORTBbits.RB2 = 0;
  1598  0F33  1106               	bcf	6,2	;volatile
  1599                           
  1600                           ;main.c: 146:                 PORTBbits.RB3 = 0;
  1601  0F34  1186               	bcf	6,3	;volatile
  1602                           
  1603                           ;main.c: 147:                 break;
  1604  0F35  2F53               	goto	l3163
  1605  0F36                     l3161:
  1606  0F36  1283               	bcf	3,5	;RP0=0, select bank0
  1607  0F37  1303               	bcf	3,6	;RP1=0, select bank0
  1608  0F38  0862               	movf	_UARTData,w
  1609  0F39  1683               	bsf	3,5	;RP0=1, select bank1
  1610  0F3A  1303               	bcf	3,6	;RP1=0, select bank1
  1611  0F3B  00AC               	movwf	??_main^(0+128)
  1612  0F3C  01AD               	clrf	(??_main^(0+128)+1)
  1613                           
  1614                           ; Switch on 2 bytes has been partitioned into a top level switch of size 1, and 1 sub-sw
      +                          itches
  1615                           ; Switch size 1, requested type "simple"
  1616                           ; Number of cases is 1, Range of values is 0 to 0
  1617                           ; switch strategies available:
  1618                           ; Name         Instructions Cycles
  1619                           ; simple_byte            4     3 (average)
  1620                           ; direct_byte           11     8 (fixed)
  1621                           ; jumptable            260     6 (fixed)
  1622                           ;	Chosen strategy is simple_byte
  1623  0F3D  082D               	movf	(??_main+1)^(0+128),w
  1624  0F3E  3A00               	xorlw	0	; case 0
  1625  0F3F  1903               	skipnz
  1626  0F40  2F42               	goto	l3203
  1627  0F41  2F53               	goto	l3163
  1628  0F42                     l3203:
  1629                           
  1630                           ; Switch size 1, requested type "simple"
  1631                           ; Number of cases is 5, Range of values is 97 to 101
  1632                           ; switch strategies available:
  1633                           ; Name         Instructions Cycles
  1634                           ; simple_byte           16     9 (average)
  1635                           ; direct_byte           26    11 (fixed)
  1636                           ; jumptable            263     9 (fixed)
  1637                           ;	Chosen strategy is simple_byte
  1638  0F42  082C               	movf	??_main^(0+128),w
  1639  0F43  3A61               	xorlw	97	; case 97
  1640  0F44  1903               	skipnz
  1641  0F45  2F13               	goto	l113
  1642  0F46  3A03               	xorlw	3	; case 98
  1643  0F47  1903               	skipnz
  1644  0F48  2F1A               	goto	l115
  1645  0F49  3A01               	xorlw	1	; case 99
  1646  0F4A  1903               	skipnz
  1647  0F4B  2F21               	goto	l116
  1648  0F4C  3A07               	xorlw	7	; case 100
  1649  0F4D  1903               	skipnz
  1650  0F4E  2F28               	goto	l117
  1651  0F4F  3A01               	xorlw	1	; case 101
  1652  0F50  1903               	skipnz
  1653  0F51  2F2F               	goto	l118
  1654  0F52  2F53               	goto	l3163
  1655  0F53                     l3163:
  1656                           
  1657                           ;main.c: 151:         DHT11_START();
  1658  0F53  120A  158A  21F8  120A  158A  	fcall	_DHT11_START
  1659  0F58                     l3165:
  1660                           
  1661                           ;main.c: 153:         if(DHT11_ALIVE()){
  1662  0F58  120A  158A  22C7  120A  158A  	fcall	_DHT11_ALIVE
  1663  0F5D  3A00               	xorlw	0
  1664  0F5E  1903               	skipnz
  1665  0F5F  2F61               	goto	u4071
  1666  0F60  2F62               	goto	u4070
  1667  0F61                     u4071:
  1668  0F61  2FEE               	goto	l3173
  1669  0F62                     u4070:
  1670  0F62                     l3167:
  1671                           
  1672                           ;main.c: 154:             DHT11_ReadData(&Hum1);
  1673  0F62  3067               	movlw	(low (_Hum1| 0))& (0+255)
  1674  0F63  120A  158A  22F3  120A  158A  	fcall	_DHT11_ReadData
  1675                           
  1676                           ;main.c: 155:             DHT11_ReadData(&dummyHum1);
  1677  0F68  3066               	movlw	(low (_dummyHum1| 0))& (0+255)
  1678  0F69  120A  158A  22F3  120A  158A  	fcall	_DHT11_ReadData
  1679                           
  1680                           ;main.c: 156:             DHT11_ReadData(&Temp1);
  1681  0F6E  3069               	movlw	(low (_Temp1| 0))& (0+255)
  1682  0F6F  120A  158A  22F3  120A  158A  	fcall	_DHT11_ReadData
  1683                           
  1684                           ;main.c: 157:             DHT11_ReadData(&dummyT1);
  1685  0F74  3068               	movlw	(low (_dummyT1| 0))& (0+255)
  1686  0F75  120A  158A  22F3  120A  158A  	fcall	_DHT11_ReadData
  1687                           
  1688                           ;main.c: 158:             DHT11_ReadData(&CHECKSUM);
  1689  0F7A  3065               	movlw	(low (_CHECKSUM| 0))& (0+255)
  1690  0F7B  120A  158A  22F3  120A  158A  	fcall	_DHT11_ReadData
  1691  0F80                     l3169:
  1692                           
  1693                           ;main.c: 160:             if(CHECKSUM == ((Hum1 + dummyHum1 + Temp1 + dummyT1) & 0XFF)){
  1694  0F80  1283               	bcf	3,5	;RP0=0, select bank0
  1695  0F81  1303               	bcf	3,6	;RP1=0, select bank0
  1696  0F82  0867               	movf	_Hum1,w
  1697  0F83  0766               	addwf	_dummyHum1,w
  1698  0F84  1683               	bsf	3,5	;RP0=1, select bank1
  1699  0F85  1303               	bcf	3,6	;RP1=0, select bank1
  1700  0F86  00AC               	movwf	??_main^(0+128)
  1701  0F87  01AD               	clrf	(??_main^(0+128)+1)
  1702  0F88  0DAD               	rlf	(??_main+1)^(0+128),f
  1703  0F89  1283               	bcf	3,5	;RP0=0, select bank0
  1704  0F8A  1303               	bcf	3,6	;RP1=0, select bank0
  1705  0F8B  0869               	movf	_Temp1,w
  1706  0F8C  1683               	bsf	3,5	;RP0=1, select bank1
  1707  0F8D  1303               	bcf	3,6	;RP1=0, select bank1
  1708  0F8E  072C               	addwf	??_main^(0+128),w
  1709  0F8F  00AE               	movwf	(??_main+2)^(0+128)
  1710  0F90  3000               	movlw	0
  1711  0F91  1803               	skipnc
  1712  0F92  3001               	movlw	1
  1713  0F93  072D               	addwf	(??_main+1)^(0+128),w
  1714  0F94  00AF               	movwf	(??_main+3)^(0+128)
  1715  0F95  1283               	bcf	3,5	;RP0=0, select bank0
  1716  0F96  1303               	bcf	3,6	;RP1=0, select bank0
  1717  0F97  0868               	movf	_dummyT1,w
  1718  0F98  1683               	bsf	3,5	;RP0=1, select bank1
  1719  0F99  1303               	bcf	3,6	;RP1=0, select bank1
  1720  0F9A  072E               	addwf	(??_main+2)^(0+128),w
  1721  0F9B  00B0               	movwf	(??_main+4)^(0+128)
  1722  0F9C  3000               	movlw	0
  1723  0F9D  1803               	skipnc
  1724  0F9E  3001               	movlw	1
  1725  0F9F  072F               	addwf	(??_main+3)^(0+128),w
  1726  0FA0  00B1               	movwf	(??_main+5)^(0+128)
  1727  0FA1  30FF               	movlw	255
  1728  0FA2  0530               	andwf	(??_main+4)^(0+128),w
  1729  0FA3  00B2               	movwf	(??_main+6)^(0+128)
  1730  0FA4  3000               	movlw	0
  1731  0FA5  0531               	andwf	(??_main+5)^(0+128),w
  1732  0FA6  00B3               	movwf	(??_main+7)^(0+128)
  1733  0FA7  1283               	bcf	3,5	;RP0=0, select bank0
  1734  0FA8  1303               	bcf	3,6	;RP1=0, select bank0
  1735  0FA9  0865               	movf	_CHECKSUM,w
  1736  0FAA  1683               	bsf	3,5	;RP0=1, select bank1
  1737  0FAB  1303               	bcf	3,6	;RP1=0, select bank1
  1738  0FAC  00B4               	movwf	(??_main+8)^(0+128)
  1739  0FAD  01B5               	clrf	((??_main+8)^(0+128)+1)
  1740  0FAE  0833               	movf	(??_main+7)^(0+128),w
  1741  0FAF  0635               	xorwf	(??_main+9)^(0+128),w
  1742  0FB0  1D03               	skipz
  1743  0FB1  2FB4               	goto	u4085
  1744  0FB2  0832               	movf	(??_main+6)^(0+128),w
  1745  0FB3  0634               	xorwf	(??_main+8)^(0+128),w
  1746  0FB4                     u4085:
  1747  0FB4  1D03               	skipz
  1748  0FB5  2FB7               	goto	u4081
  1749  0FB6  2FB8               	goto	u4080
  1750  0FB7                     u4081:
  1751  0FB7  2FEE               	goto	l3173
  1752  0FB8                     u4080:
  1753  0FB8                     l3171:
  1754                           
  1755                           ;main.c: 161:                 HumR[0] = Hum1/10 + 48;
  1756  0FB8  300A               	movlw	10
  1757  0FB9  00F3               	movwf	___awdiv@divisor
  1758  0FBA  3000               	movlw	0
  1759  0FBB  00F4               	movwf	___awdiv@divisor+1
  1760  0FBC  1283               	bcf	3,5	;RP0=0, select bank0
  1761  0FBD  1303               	bcf	3,6	;RP1=0, select bank0
  1762  0FBE  0867               	movf	_Hum1,w
  1763  0FBF  1683               	bsf	3,5	;RP0=1, select bank1
  1764  0FC0  1303               	bcf	3,6	;RP1=0, select bank1
  1765  0FC1  00AC               	movwf	??_main^(0+128)
  1766  0FC2  01AD               	clrf	(??_main^(0+128)+1)
  1767  0FC3  082C               	movf	??_main^(0+128),w
  1768  0FC4  00F5               	movwf	___awdiv@dividend
  1769  0FC5  082D               	movf	(??_main+1)^(0+128),w
  1770  0FC6  00F6               	movwf	___awdiv@dividend+1
  1771  0FC7  120A  158A  245C  120A  158A  	fcall	___awdiv
  1772  0FCC  0873               	movf	?___awdiv,w
  1773  0FCD  3E30               	addlw	48
  1774  0FCE  1683               	bsf	3,5	;RP0=1, select bank1
  1775  0FCF  1303               	bcf	3,6	;RP1=0, select bank1
  1776  0FD0  00AE               	movwf	(??_main+2)^(0+128)
  1777  0FD1  082E               	movf	(??_main+2)^(0+128),w
  1778  0FD2  00F8               	movwf	_HumR
  1779                           
  1780                           ;main.c: 162:                 HumR[1] = Hum1%10 + 48;
  1781  0FD3  300A               	movlw	10
  1782  0FD4  00F3               	movwf	___awmod@divisor
  1783  0FD5  3000               	movlw	0
  1784  0FD6  00F4               	movwf	___awmod@divisor+1
  1785  0FD7  1283               	bcf	3,5	;RP0=0, select bank0
  1786  0FD8  1303               	bcf	3,6	;RP1=0, select bank0
  1787  0FD9  0867               	movf	_Hum1,w
  1788  0FDA  1683               	bsf	3,5	;RP0=1, select bank1
  1789  0FDB  1303               	bcf	3,6	;RP1=0, select bank1
  1790  0FDC  00AC               	movwf	??_main^(0+128)
  1791  0FDD  01AD               	clrf	(??_main^(0+128)+1)
  1792  0FDE  082C               	movf	??_main^(0+128),w
  1793  0FDF  00F5               	movwf	___awmod@dividend
  1794  0FE0  082D               	movf	(??_main+1)^(0+128),w
  1795  0FE1  00F6               	movwf	___awmod@dividend+1
  1796  0FE2  120A  158A  2399  120A  158A  	fcall	___awmod
  1797  0FE7  0873               	movf	?___awmod,w
  1798  0FE8  3E30               	addlw	48
  1799  0FE9  1683               	bsf	3,5	;RP0=1, select bank1
  1800  0FEA  1303               	bcf	3,6	;RP1=0, select bank1
  1801  0FEB  00AE               	movwf	(??_main+2)^(0+128)
  1802  0FEC  082E               	movf	(??_main+2)^(0+128),w
  1803  0FED  00F9               	movwf	_HumR+1
  1804  0FEE                     l3173:
  1805                           
  1806                           ;main.c: 166:         T1CONbits.TMR1ON = 0;
  1807  0FEE  1283               	bcf	3,5	;RP0=0, select bank0
  1808  0FEF  1303               	bcf	3,6	;RP1=0, select bank0
  1809  0FF0  1010               	bcf	16,0	;volatile
  1810  0FF1                     l3175:
  1811                           
  1812                           ;main.c: 167:         _delay((unsigned long)((10)*(8000000/4000.0)));
  1813  0FF1  301A               	movlw	26
  1814  0FF2  1683               	bsf	3,5	;RP0=1, select bank1
  1815  0FF3  1303               	bcf	3,6	;RP1=0, select bank1
  1816  0FF4  00AD               	movwf	(??_main^(0+128)+1)
  1817  0FF5  30F7               	movlw	247
  1818  0FF6  00AC               	movwf	??_main^(0+128)
  1819  0FF7                     u4097:
  1820  0FF7  0BAC               	decfsz	??_main^(0+128),f
  1821  0FF8  2FF7               	goto	u4097
  1822  0FF9  0BAD               	decfsz	(??_main^(0+128)+1),f
  1823  0FFA  2FF7               	goto	u4097
  1824  0FFB  2FFC               	nop2
  1825  0FFC  2DE8               	goto	l111
  1826  0FFD  120A  118A  280C   	ljmp	start
  1827  1000                     __end_of_main:
  1828                           
  1829                           	psect	text1
  1830  07A6                     __ptext1:	
  1831 ;; *************** function _initLCD *****************
  1832 ;; Defined at:
  1833 ;;		line 20 in file "LCDD2.c"
  1834 ;; Parameters:    Size  Location     Type
  1835 ;;		None
  1836 ;; Auto vars:     Size  Location     Type
  1837 ;;		None
  1838 ;; Return value:  Size  Location     Type
  1839 ;;                  1    wreg      void 
  1840 ;; Registers used:
  1841 ;;		wreg, status,2, status,0, pclath, cstack
  1842 ;; Tracked objects:
  1843 ;;		On entry : 0/0
  1844 ;;		On exit  : 0/0
  1845 ;;		Unchanged: 0/0
  1846 ;; Data sizes:     COMMON   BANK0   BANK1   BANK3   BANK2
  1847 ;;      Params:         0       0       0       0       0
  1848 ;;      Locals:         0       0       0       0       0
  1849 ;;      Temps:          2       0       0       0       0
  1850 ;;      Totals:         2       0       0       0       0
  1851 ;;Total ram usage:        2 bytes
  1852 ;; Hardware stack levels used:    1
  1853 ;; Hardware stack levels required when called:    2
  1854 ;; This function calls:
  1855 ;;		_comandoLCD
  1856 ;; This function is called by:
  1857 ;;		_main
  1858 ;; This function uses a non-reentrant model
  1859 ;;
  1860                           
  1861                           
  1862                           ;psect for function _initLCD
  1863  07A6                     _initLCD:
  1864  07A6                     l3015:	
  1865                           ;incstack = 0
  1866                           ; Regs used in _initLCD: [wreg+status,2+status,0+pclath+cstack]
  1867                           
  1868                           
  1869                           ;LCDD2.c: 21:     RE1 = 0;
  1870  07A6  1283               	bcf	3,5	;RP0=0, select bank0
  1871  07A7  1303               	bcf	3,6	;RP1=0, select bank0
  1872  07A8  1089               	bcf	9,1	;volatile
  1873  07A9                     l3017:
  1874                           
  1875                           ;LCDD2.c: 22:     PORTD = 0X00;
  1876  07A9  0188               	clrf	8	;volatile
  1877  07AA                     l3019:
  1878                           
  1879                           ;LCDD2.c: 23:     _delay((unsigned long)((50)*(8000000/4000.0)));
  1880  07AA  3082               	movlw	130
  1881  07AB  00F7               	movwf	??_initLCD+1
  1882  07AC  30DD               	movlw	221
  1883  07AD  00F6               	movwf	??_initLCD
  1884  07AE                     u4107:
  1885  07AE  0BF6               	decfsz	??_initLCD,f
  1886  07AF  2FAE               	goto	u4107
  1887  07B0  0BF7               	decfsz	??_initLCD+1,f
  1888  07B1  2FAE               	goto	u4107
  1889  07B2  2FB3               	nop2
  1890  07B3                     l3021:
  1891                           
  1892                           ;LCDD2.c: 24:     comandoLCD(0X30);
  1893  07B3  3030               	movlw	48
  1894  07B4  120A  158A  21CF  120A  118A  	fcall	_comandoLCD
  1895  07B9                     l3023:
  1896                           
  1897                           ;LCDD2.c: 25:     _delay((unsigned long)((5)*(8000000/4000.0)));
  1898  07B9  300D               	movlw	13
  1899  07BA  00F7               	movwf	??_initLCD+1
  1900  07BB  30FB               	movlw	251
  1901  07BC  00F6               	movwf	??_initLCD
  1902  07BD                     u4117:
  1903  07BD  0BF6               	decfsz	??_initLCD,f
  1904  07BE  2FBD               	goto	u4117
  1905  07BF  0BF7               	decfsz	??_initLCD+1,f
  1906  07C0  2FBD               	goto	u4117
  1907  07C1  2FC2               	nop2
  1908  07C2                     l3025:
  1909                           
  1910                           ;LCDD2.c: 26:     comandoLCD(0X30);
  1911  07C2  3030               	movlw	48
  1912  07C3  120A  158A  21CF  120A  118A  	fcall	_comandoLCD
  1913  07C8                     l3027:
  1914                           
  1915                           ;LCDD2.c: 27:     _delay((unsigned long)((5)*(8000000/4000.0)));
  1916  07C8  300D               	movlw	13
  1917  07C9  00F7               	movwf	??_initLCD+1
  1918  07CA  30FB               	movlw	251
  1919  07CB  00F6               	movwf	??_initLCD
  1920  07CC                     u4127:
  1921  07CC  0BF6               	decfsz	??_initLCD,f
  1922  07CD  2FCC               	goto	u4127
  1923  07CE  0BF7               	decfsz	??_initLCD+1,f
  1924  07CF  2FCC               	goto	u4127
  1925  07D0  2FD1               	nop2
  1926  07D1                     l3029:
  1927                           
  1928                           ;LCDD2.c: 28:     comandoLCD(0X30);
  1929  07D1  3030               	movlw	48
  1930  07D2  120A  158A  21CF  120A  118A  	fcall	_comandoLCD
  1931  07D7                     l3031:
  1932                           
  1933                           ;LCDD2.c: 29:     comandoLCD(0X38);
  1934  07D7  3038               	movlw	56
  1935  07D8  120A  158A  21CF  120A  118A  	fcall	_comandoLCD
  1936  07DD                     l3033:
  1937                           
  1938                           ;LCDD2.c: 30:     comandoLCD(0X06);
  1939  07DD  3006               	movlw	6
  1940  07DE  120A  158A  21CF  120A  118A  	fcall	_comandoLCD
  1941  07E3                     l3035:
  1942                           
  1943                           ;LCDD2.c: 31:     comandoLCD(0X0C);
  1944  07E3  300C               	movlw	12
  1945  07E4  120A  158A  21CF  120A  118A  	fcall	_comandoLCD
  1946  07E9                     l3037:
  1947                           
  1948                           ;LCDD2.c: 32:     comandoLCD(0X01);
  1949  07E9  3001               	movlw	1
  1950  07EA  120A  158A  21CF  120A  118A  	fcall	_comandoLCD
  1951  07EF                     l261:
  1952  07EF  0008               	return
  1953  07F0                     __end_of_initLCD:
  1954                           
  1955                           	psect	text2
  1956  0624                     __ptext2:	
  1957 ;; *************** function _floToChar *****************
  1958 ;; Defined at:
  1959 ;;		line 202 in file "main.c"
  1960 ;; Parameters:    Size  Location     Type
  1961 ;;  valor           4   47[BANK0 ] const float 
  1962 ;;  salida          1   51[BANK0 ] PTR unsigned char 
  1963 ;;		 -> TEMPdig(6), 
  1964 ;; Auto vars:     Size  Location     Type
  1965 ;;  temp            4   56[BANK0 ] float 
  1966 ;;  digdecimal      3   63[BANK0 ] unsigned char [3]
  1967 ;;  decimal         2   60[BANK0 ] unsigned int 
  1968 ;;  entero          1   62[BANK0 ] unsigned char 
  1969 ;; Return value:  Size  Location     Type
  1970 ;;                  1    wreg      void 
  1971 ;; Registers used:
  1972 ;;		wreg, fsr0l, fsr0h, status,2, status,0, btemp+1, pclath, cstack
  1973 ;; Tracked objects:
  1974 ;;		On entry : 0/0
  1975 ;;		On exit  : 0/0
  1976 ;;		Unchanged: 0/0
  1977 ;; Data sizes:     COMMON   BANK0   BANK1   BANK3   BANK2
  1978 ;;      Params:         0       5       0       0       0
  1979 ;;      Locals:         0      10       0       0       0
  1980 ;;      Temps:          0       4       0       0       0
  1981 ;;      Totals:         0      19       0       0       0
  1982 ;;Total ram usage:       19 bytes
  1983 ;; Hardware stack levels used:    1
  1984 ;; Hardware stack levels required when called:    3
  1985 ;; This function calls:
  1986 ;;		___flmul
  1987 ;;		___flsub
  1988 ;;		___fltol
  1989 ;;		___xxtofl
  1990 ;;		_divisiondecimal
  1991 ;; This function is called by:
  1992 ;;		_main
  1993 ;; This function uses a non-reentrant model
  1994 ;;
  1995                           
  1996                           
  1997                           ;psect for function _floToChar
  1998  0624                     _floToChar:
  1999  0624                     l3039:	
  2000                           ;incstack = 0
  2001                           ; Regs used in _floToChar: [wreg-fsr0h+status,2+status,0+btemp+1+pclath+cstack]
  2002                           
  2003                           
  2004                           ;main.c: 203:     uint8_t entero;;main.c: 204:     uint16_t decimal;;main.c: 205:     fl
      +                          oat temp;;main.c: 206:     unsigned char digdecimal[3];;main.c: 208:     entero = valor;
  2005  0624  1283               	bcf	3,5	;RP0=0, select bank0
  2006  0625  1303               	bcf	3,6	;RP1=0, select bank0
  2007  0626  0852               	movf	floToChar@valor+3,w
  2008  0627  00C7               	movwf	___fltol@f1+3
  2009  0628  0851               	movf	floToChar@valor+2,w
  2010  0629  00C6               	movwf	___fltol@f1+2
  2011  062A  0850               	movf	floToChar@valor+1,w
  2012  062B  00C5               	movwf	___fltol@f1+1
  2013  062C  084F               	movf	floToChar@valor,w
  2014  062D  00C4               	movwf	___fltol@f1
  2015  062E  120A  158A  24C5  120A  118A  	fcall	___fltol
  2016  0633  1283               	bcf	3,5	;RP0=0, select bank0
  2017  0634  1303               	bcf	3,6	;RP1=0, select bank0
  2018  0635  0844               	movf	?___fltol,w
  2019  0636  00D4               	movwf	??_floToChar
  2020  0637  0854               	movf	??_floToChar,w
  2021  0638  00DE               	movwf	floToChar@entero
  2022  0639                     l3041:
  2023                           
  2024                           ;main.c: 209:     temp = valor - (float)entero;
  2025  0639  085E               	movf	floToChar@entero,w
  2026  063A  00D4               	movwf	??_floToChar
  2027  063B  01D5               	clrf	??_floToChar+1
  2028  063C  01D6               	clrf	??_floToChar+2
  2029  063D  01D7               	clrf	??_floToChar+3
  2030  063E  0857               	movf	??_floToChar+3,w
  2031  063F  00F6               	movwf	___xxtofl@val+3
  2032  0640  0856               	movf	??_floToChar+2,w
  2033  0641  00F5               	movwf	___xxtofl@val+2
  2034  0642  0855               	movf	??_floToChar+1,w
  2035  0643  00F4               	movwf	___xxtofl@val+1
  2036  0644  0854               	movf	??_floToChar,w
  2037  0645  00F3               	movwf	___xxtofl@val
  2038  0646  3000               	movlw	0
  2039  0647  120A  118A  26EA  120A  118A  	fcall	___xxtofl
  2040  064C  0876               	movf	?___xxtofl+3,w
  2041  064D  1283               	bcf	3,5	;RP0=0, select bank0
  2042  064E  1303               	bcf	3,6	;RP1=0, select bank0
  2043  064F  00B3               	movwf	___flsub@a+3
  2044  0650  0875               	movf	?___xxtofl+2,w
  2045  0651  00B2               	movwf	___flsub@a+2
  2046  0652  0874               	movf	?___xxtofl+1,w
  2047  0653  00B1               	movwf	___flsub@a+1
  2048  0654  0873               	movf	?___xxtofl,w
  2049  0655  00B0               	movwf	___flsub@a
  2050  0656  0852               	movf	floToChar@valor+3,w
  2051  0657  00B7               	movwf	___flsub@b+3
  2052  0658  0851               	movf	floToChar@valor+2,w
  2053  0659  00B6               	movwf	___flsub@b+2
  2054  065A  0850               	movf	floToChar@valor+1,w
  2055  065B  00B5               	movwf	___flsub@b+1
  2056  065C  084F               	movf	floToChar@valor,w
  2057  065D  00B4               	movwf	___flsub@b
  2058  065E  120A  158A  2253  120A  118A  	fcall	___flsub
  2059  0663  1283               	bcf	3,5	;RP0=0, select bank0
  2060  0664  1303               	bcf	3,6	;RP1=0, select bank0
  2061  0665  0833               	movf	?___flsub+3,w
  2062  0666  00DB               	movwf	floToChar@temp+3
  2063  0667  0832               	movf	?___flsub+2,w
  2064  0668  00DA               	movwf	floToChar@temp+2
  2065  0669  0831               	movf	?___flsub+1,w
  2066  066A  00D9               	movwf	floToChar@temp+1
  2067  066B  0830               	movf	?___flsub,w
  2068  066C  00D8               	movwf	floToChar@temp
  2069  066D                     l3043:
  2070                           
  2071                           ;main.c: 210:     decimal = (temp*100);
  2072  066D  085B               	movf	floToChar@temp+3,w
  2073  066E  00B1               	movwf	___flmul@a+3
  2074  066F  085A               	movf	floToChar@temp+2,w
  2075  0670  00B0               	movwf	___flmul@a+2
  2076  0671  0859               	movf	floToChar@temp+1,w
  2077  0672  00AF               	movwf	___flmul@a+1
  2078  0673  0858               	movf	floToChar@temp,w
  2079  0674  00AE               	movwf	___flmul@a
  2080  0675  3042               	movlw	66
  2081  0676  00AD               	movwf	___flmul@b+3
  2082  0677  30C8               	movlw	200
  2083  0678  00AC               	movwf	___flmul@b+2
  2084  0679  3000               	movlw	0
  2085  067A  00AB               	movwf	___flmul@b+1
  2086  067B  3000               	movlw	0
  2087  067C  00AA               	movwf	___flmul@b
  2088  067D  120A  118A  2033  120A  118A  	fcall	___flmul
  2089  0682  1283               	bcf	3,5	;RP0=0, select bank0
  2090  0683  1303               	bcf	3,6	;RP1=0, select bank0
  2091  0684  082D               	movf	?___flmul+3,w
  2092  0685  00C7               	movwf	___fltol@f1+3
  2093  0686  082C               	movf	?___flmul+2,w
  2094  0687  00C6               	movwf	___fltol@f1+2
  2095  0688  082B               	movf	?___flmul+1,w
  2096  0689  00C5               	movwf	___fltol@f1+1
  2097  068A  082A               	movf	?___flmul,w
  2098  068B  00C4               	movwf	___fltol@f1
  2099  068C  120A  158A  24C5  120A  118A  	fcall	___fltol
  2100  0691  1283               	bcf	3,5	;RP0=0, select bank0
  2101  0692  1303               	bcf	3,6	;RP1=0, select bank0
  2102  0693  0845               	movf	?___fltol+1,w
  2103  0694  00DD               	movwf	floToChar@decimal+1
  2104  0695  0844               	movf	?___fltol,w
  2105  0696  00DC               	movwf	floToChar@decimal
  2106  0697                     l3045:
  2107                           
  2108                           ;main.c: 211:     divisiondecimal(entero,&digdecimal[0],&digdecimal[1],&digdecimal[2]);
  2109  0697  305F               	movlw	(low (floToChar@digdecimal| 0))& (0+255)
  2110  0698  00D4               	movwf	??_floToChar
  2111  0699  0854               	movf	??_floToChar,w
  2112  069A  00A4               	movwf	divisiondecimal@un
  2113  069B  3060               	movlw	(low ((floToChar@digdecimal| 0+1)))& (0+255)
  2114  069C  00D5               	movwf	??_floToChar+1
  2115  069D  0855               	movf	??_floToChar+1,w
  2116  069E  00A5               	movwf	divisiondecimal@dec
  2117  069F  3061               	movlw	(low ((floToChar@digdecimal| 0+2)))& (0+255)
  2118  06A0  00D6               	movwf	??_floToChar+2
  2119  06A1  0856               	movf	??_floToChar+2,w
  2120  06A2  00A6               	movwf	divisiondecimal@cent
  2121  06A3  085E               	movf	floToChar@entero,w
  2122  06A4  120A  158A  2541  120A  118A  	fcall	_divisiondecimal
  2123  06A9                     l3047:
  2124                           
  2125                           ;main.c: 212:     salida[3] = digdecimal[0];
  2126  06A9  1283               	bcf	3,5	;RP0=0, select bank0
  2127  06AA  1303               	bcf	3,6	;RP1=0, select bank0
  2128  06AB  085F               	movf	floToChar@digdecimal,w
  2129  06AC  00D4               	movwf	??_floToChar
  2130  06AD  0853               	movf	floToChar@salida,w
  2131  06AE  3E03               	addlw	3
  2132  06AF  0084               	movwf	4
  2133  06B0  0854               	movf	??_floToChar,w
  2134  06B1  1383               	bcf	3,7	;select IRP bank0
  2135  06B2  0080               	movwf	0
  2136  06B3                     l3049:
  2137                           
  2138                           ;main.c: 213:     salida[4] = digdecimal[1];
  2139  06B3  0860               	movf	floToChar@digdecimal+1,w
  2140  06B4  00D4               	movwf	??_floToChar
  2141  06B5  0853               	movf	floToChar@salida,w
  2142  06B6  3E04               	addlw	4
  2143  06B7  0084               	movwf	4
  2144  06B8  0854               	movf	??_floToChar,w
  2145  06B9  0080               	movwf	0
  2146  06BA                     l3051:
  2147                           
  2148                           ;main.c: 214:     salida[5] = digdecimal[2];
  2149  06BA  0861               	movf	floToChar@digdecimal+2,w
  2150  06BB  00D4               	movwf	??_floToChar
  2151  06BC  0853               	movf	floToChar@salida,w
  2152  06BD  3E05               	addlw	5
  2153  06BE  0084               	movwf	4
  2154  06BF  0854               	movf	??_floToChar,w
  2155  06C0  0080               	movwf	0
  2156  06C1                     l3053:
  2157                           
  2158                           ;main.c: 215:     divisiondecimal(decimal,&digdecimal[0],&digdecimal[1],&digdecimal[2]);
  2159  06C1  305F               	movlw	(low (floToChar@digdecimal| 0))& (0+255)
  2160  06C2  00D4               	movwf	??_floToChar
  2161  06C3  0854               	movf	??_floToChar,w
  2162  06C4  00A4               	movwf	divisiondecimal@un
  2163  06C5  3060               	movlw	(low ((floToChar@digdecimal| 0+1)))& (0+255)
  2164  06C6  00D5               	movwf	??_floToChar+1
  2165  06C7  0855               	movf	??_floToChar+1,w
  2166  06C8  00A5               	movwf	divisiondecimal@dec
  2167  06C9  3061               	movlw	(low ((floToChar@digdecimal| 0+2)))& (0+255)
  2168  06CA  00D6               	movwf	??_floToChar+2
  2169  06CB  0856               	movf	??_floToChar+2,w
  2170  06CC  00A6               	movwf	divisiondecimal@cent
  2171  06CD  085C               	movf	floToChar@decimal,w
  2172  06CE  120A  158A  2541  120A  118A  	fcall	_divisiondecimal
  2173  06D3                     l3055:
  2174                           
  2175                           ;main.c: 216:     salida[2] = digdecimal[0];
  2176  06D3  1283               	bcf	3,5	;RP0=0, select bank0
  2177  06D4  1303               	bcf	3,6	;RP1=0, select bank0
  2178  06D5  085F               	movf	floToChar@digdecimal,w
  2179  06D6  00D4               	movwf	??_floToChar
  2180  06D7  0853               	movf	floToChar@salida,w
  2181  06D8  3E02               	addlw	2
  2182  06D9  0084               	movwf	4
  2183  06DA  0854               	movf	??_floToChar,w
  2184  06DB  1383               	bcf	3,7	;select IRP bank0
  2185  06DC  0080               	movwf	0
  2186  06DD                     l3057:
  2187                           
  2188                           ;main.c: 217:     salida[1] = digdecimal[1];
  2189  06DD  0860               	movf	floToChar@digdecimal+1,w
  2190  06DE  00D4               	movwf	??_floToChar
  2191  06DF  0A53               	incf	floToChar@salida,w
  2192  06E0  0084               	movwf	4
  2193  06E1  0854               	movf	??_floToChar,w
  2194  06E2  0080               	movwf	0
  2195  06E3                     l3059:
  2196                           
  2197                           ;main.c: 218:     salida[0] = digdecimal[2];
  2198  06E3  0861               	movf	floToChar@digdecimal+2,w
  2199  06E4  00D4               	movwf	??_floToChar
  2200  06E5  0853               	movf	floToChar@salida,w
  2201  06E6  0084               	movwf	4
  2202  06E7  0854               	movf	??_floToChar,w
  2203  06E8  0080               	movwf	0
  2204  06E9                     l129:
  2205  06E9  0008               	return
  2206  06EA                     __end_of_floToChar:
  2207                           
  2208                           	psect	text3
  2209  0D41                     __ptext3:	
  2210 ;; *************** function _divisiondecimal *****************
  2211 ;; Defined at:
  2212 ;;		line 221 in file "main.c"
  2213 ;; Parameters:    Size  Location     Type
  2214 ;;  conteo          1    wreg     unsigned char 
  2215 ;;  un              1    4[BANK0 ] PTR unsigned char 
  2216 ;;		 -> floToChar@digdecimal(3), 
  2217 ;;  dec             1    5[BANK0 ] PTR unsigned char 
  2218 ;;		 -> floToChar@digdecimal(3), 
  2219 ;;  cent            1    6[BANK0 ] PTR unsigned char 
  2220 ;;		 -> floToChar@digdecimal(3), 
  2221 ;; Auto vars:     Size  Location     Type
  2222 ;;  conteo          1   10[BANK0 ] unsigned char 
  2223 ;;  div             1   11[BANK0 ] unsigned char 
  2224 ;; Return value:  Size  Location     Type
  2225 ;;                  1    wreg      void 
  2226 ;; Registers used:
  2227 ;;		wreg, fsr0l, fsr0h, status,2, status,0, pclath, cstack
  2228 ;; Tracked objects:
  2229 ;;		On entry : 0/0
  2230 ;;		On exit  : 0/0
  2231 ;;		Unchanged: 0/0
  2232 ;; Data sizes:     COMMON   BANK0   BANK1   BANK3   BANK2
  2233 ;;      Params:         0       3       0       0       0
  2234 ;;      Locals:         0       2       0       0       0
  2235 ;;      Temps:          0       3       0       0       0
  2236 ;;      Totals:         0       8       0       0       0
  2237 ;;Total ram usage:        8 bytes
  2238 ;; Hardware stack levels used:    1
  2239 ;; Hardware stack levels required when called:    2
  2240 ;; This function calls:
  2241 ;;		___awdiv
  2242 ;;		___bmul
  2243 ;; This function is called by:
  2244 ;;		_floToChar
  2245 ;; This function uses a non-reentrant model
  2246 ;;
  2247                           
  2248                           
  2249                           ;psect for function _divisiondecimal
  2250  0D41                     _divisiondecimal:
  2251                           
  2252                           ;incstack = 0
  2253                           ; Regs used in _divisiondecimal: [wreg-fsr0h+status,2+status,0+pclath+cstack]
  2254                           ;divisiondecimal@conteo stored from wreg
  2255  0D41  1283               	bcf	3,5	;RP0=0, select bank0
  2256  0D42  1303               	bcf	3,6	;RP1=0, select bank0
  2257  0D43  00AA               	movwf	divisiondecimal@conteo
  2258  0D44                     l2911:
  2259                           
  2260                           ;main.c: 222:     uint8_t div = conteo;
  2261  0D44  082A               	movf	divisiondecimal@conteo,w
  2262  0D45  00A7               	movwf	??_divisiondecimal
  2263  0D46  0827               	movf	??_divisiondecimal,w
  2264  0D47  00AB               	movwf	divisiondecimal@div
  2265  0D48                     l2913:
  2266                           
  2267                           ;main.c: 223:     *un = 0;
  2268  0D48  0824               	movf	divisiondecimal@un,w
  2269  0D49  0084               	movwf	4
  2270  0D4A  1383               	bcf	3,7	;select IRP bank0
  2271  0D4B  0180               	clrf	0
  2272  0D4C                     l2915:
  2273                           
  2274                           ;main.c: 224:     *dec = 0;
  2275  0D4C  0825               	movf	divisiondecimal@dec,w
  2276  0D4D  0084               	movwf	4
  2277  0D4E  0180               	clrf	0
  2278  0D4F                     l2917:
  2279                           
  2280                           ;main.c: 225:     *cent = 0;
  2281  0D4F  0826               	movf	divisiondecimal@cent,w
  2282  0D50  0084               	movwf	4
  2283  0D51  0180               	clrf	0
  2284                           
  2285                           ;main.c: 228:     while(div >= 100){
  2286  0D52  2D7E               	goto	l2921
  2287  0D53                     l2919:
  2288                           
  2289                           ;main.c: 229:     *cent = div/100;
  2290  0D53  3064               	movlw	100
  2291  0D54  00F3               	movwf	___awdiv@divisor
  2292  0D55  3000               	movlw	0
  2293  0D56  00F4               	movwf	___awdiv@divisor+1
  2294  0D57  082B               	movf	divisiondecimal@div,w
  2295  0D58  00A7               	movwf	??_divisiondecimal
  2296  0D59  01A8               	clrf	??_divisiondecimal+1
  2297  0D5A  0827               	movf	??_divisiondecimal,w
  2298  0D5B  00F5               	movwf	___awdiv@dividend
  2299  0D5C  0828               	movf	??_divisiondecimal+1,w
  2300  0D5D  00F6               	movwf	___awdiv@dividend+1
  2301  0D5E  120A  158A  245C  120A  158A  	fcall	___awdiv
  2302  0D63  0873               	movf	?___awdiv,w
  2303  0D64  1283               	bcf	3,5	;RP0=0, select bank0
  2304  0D65  1303               	bcf	3,6	;RP1=0, select bank0
  2305  0D66  00A9               	movwf	??_divisiondecimal+2
  2306  0D67  0826               	movf	divisiondecimal@cent,w
  2307  0D68  0084               	movwf	4
  2308  0D69  0829               	movf	??_divisiondecimal+2,w
  2309  0D6A  1383               	bcf	3,7	;select IRP bank0
  2310  0D6B  0080               	movwf	0
  2311                           
  2312                           ;main.c: 230:     div = div - (*cent)*(100);
  2313  0D6C  309C               	movlw	156
  2314  0D6D  00A7               	movwf	??_divisiondecimal
  2315  0D6E  0827               	movf	??_divisiondecimal,w
  2316  0D6F  00F3               	movwf	___bmul@multiplicand
  2317  0D70  0826               	movf	divisiondecimal@cent,w
  2318  0D71  0084               	movwf	4
  2319  0D72  0800               	movf	0,w
  2320  0D73  120A  158A  21E3  120A  158A  	fcall	___bmul
  2321  0D78  1283               	bcf	3,5	;RP0=0, select bank0
  2322  0D79  1303               	bcf	3,6	;RP1=0, select bank0
  2323  0D7A  072B               	addwf	divisiondecimal@div,w
  2324  0D7B  00A8               	movwf	??_divisiondecimal+1
  2325  0D7C  0828               	movf	??_divisiondecimal+1,w
  2326  0D7D  00AB               	movwf	divisiondecimal@div
  2327  0D7E                     l2921:
  2328                           
  2329                           ;main.c: 228:     while(div >= 100){
  2330  0D7E  3064               	movlw	100
  2331  0D7F  022B               	subwf	divisiondecimal@div,w
  2332  0D80  1803               	skipnc
  2333  0D81  2D83               	goto	u3791
  2334  0D82  2D84               	goto	u3790
  2335  0D83                     u3791:
  2336  0D83  2D53               	goto	l2919
  2337  0D84                     u3790:
  2338  0D84  2DB0               	goto	l2925
  2339  0D85                     l2923:
  2340                           
  2341                           ;main.c: 234:     *dec = div/10;
  2342  0D85  300A               	movlw	10
  2343  0D86  00F3               	movwf	___awdiv@divisor
  2344  0D87  3000               	movlw	0
  2345  0D88  00F4               	movwf	___awdiv@divisor+1
  2346  0D89  082B               	movf	divisiondecimal@div,w
  2347  0D8A  00A7               	movwf	??_divisiondecimal
  2348  0D8B  01A8               	clrf	??_divisiondecimal+1
  2349  0D8C  0827               	movf	??_divisiondecimal,w
  2350  0D8D  00F5               	movwf	___awdiv@dividend
  2351  0D8E  0828               	movf	??_divisiondecimal+1,w
  2352  0D8F  00F6               	movwf	___awdiv@dividend+1
  2353  0D90  120A  158A  245C  120A  158A  	fcall	___awdiv
  2354  0D95  0873               	movf	?___awdiv,w
  2355  0D96  1283               	bcf	3,5	;RP0=0, select bank0
  2356  0D97  1303               	bcf	3,6	;RP1=0, select bank0
  2357  0D98  00A9               	movwf	??_divisiondecimal+2
  2358  0D99  0825               	movf	divisiondecimal@dec,w
  2359  0D9A  0084               	movwf	4
  2360  0D9B  0829               	movf	??_divisiondecimal+2,w
  2361  0D9C  1383               	bcf	3,7	;select IRP bank0
  2362  0D9D  0080               	movwf	0
  2363                           
  2364                           ;main.c: 235:     div = div - (*dec)*(10);
  2365  0D9E  30F6               	movlw	246
  2366  0D9F  00A7               	movwf	??_divisiondecimal
  2367  0DA0  0827               	movf	??_divisiondecimal,w
  2368  0DA1  00F3               	movwf	___bmul@multiplicand
  2369  0DA2  0825               	movf	divisiondecimal@dec,w
  2370  0DA3  0084               	movwf	4
  2371  0DA4  0800               	movf	0,w
  2372  0DA5  120A  158A  21E3  120A  158A  	fcall	___bmul
  2373  0DAA  1283               	bcf	3,5	;RP0=0, select bank0
  2374  0DAB  1303               	bcf	3,6	;RP1=0, select bank0
  2375  0DAC  072B               	addwf	divisiondecimal@div,w
  2376  0DAD  00A8               	movwf	??_divisiondecimal+1
  2377  0DAE  0828               	movf	??_divisiondecimal+1,w
  2378  0DAF  00AB               	movwf	divisiondecimal@div
  2379  0DB0                     l2925:
  2380                           
  2381                           ;main.c: 233:     while (div >= 10){
  2382  0DB0  300A               	movlw	10
  2383  0DB1  022B               	subwf	divisiondecimal@div,w
  2384  0DB2  1803               	skipnc
  2385  0DB3  2DB5               	goto	u3801
  2386  0DB4  2DB6               	goto	u3800
  2387  0DB5                     u3801:
  2388  0DB5  2D85               	goto	l2923
  2389  0DB6                     u3800:
  2390  0DB6                     l2927:
  2391                           
  2392                           ;main.c: 238:     *un = div;
  2393  0DB6  082B               	movf	divisiondecimal@div,w
  2394  0DB7  00A7               	movwf	??_divisiondecimal
  2395  0DB8  0824               	movf	divisiondecimal@un,w
  2396  0DB9  0084               	movwf	4
  2397  0DBA  0827               	movf	??_divisiondecimal,w
  2398  0DBB  1383               	bcf	3,7	;select IRP bank0
  2399  0DBC  0080               	movwf	0
  2400  0DBD                     l138:
  2401  0DBD  0008               	return
  2402  0DBE                     __end_of_divisiondecimal:
  2403                           
  2404                           	psect	text4
  2405  09E3                     __ptext4:	
  2406 ;; *************** function ___bmul *****************
  2407 ;; Defined at:
  2408 ;;		line 4 in file "C:\Program Files\Microchip\xc8\v2.31\pic\sources\c90\common\Umul8.c"
  2409 ;; Parameters:    Size  Location     Type
  2410 ;;  multiplier      1    wreg     unsigned char 
  2411 ;;  multiplicand    1    3[COMMON] unsigned char 
  2412 ;; Auto vars:     Size  Location     Type
  2413 ;;  multiplier      1    6[COMMON] unsigned char 
  2414 ;;  product         1    5[COMMON] unsigned char 
  2415 ;; Return value:  Size  Location     Type
  2416 ;;                  1    wreg      unsigned char 
  2417 ;; Registers used:
  2418 ;;		wreg, status,2, status,0
  2419 ;; Tracked objects:
  2420 ;;		On entry : 0/0
  2421 ;;		On exit  : 0/0
  2422 ;;		Unchanged: 0/0
  2423 ;; Data sizes:     COMMON   BANK0   BANK1   BANK3   BANK2
  2424 ;;      Params:         1       0       0       0       0
  2425 ;;      Locals:         2       0       0       0       0
  2426 ;;      Temps:          1       0       0       0       0
  2427 ;;      Totals:         4       0       0       0       0
  2428 ;;Total ram usage:        4 bytes
  2429 ;; Hardware stack levels used:    1
  2430 ;; Hardware stack levels required when called:    1
  2431 ;; This function calls:
  2432 ;;		Nothing
  2433 ;; This function is called by:
  2434 ;;		_divisiondecimal
  2435 ;; This function uses a non-reentrant model
  2436 ;;
  2437                           
  2438                           
  2439                           ;psect for function ___bmul
  2440  09E3                     ___bmul:
  2441                           
  2442                           ;incstack = 0
  2443                           ; Regs used in ___bmul: [wreg+status,2+status,0]
  2444                           ;___bmul@multiplier stored from wreg
  2445  09E3  00F6               	movwf	___bmul@multiplier
  2446  09E4                     l1787:
  2447  09E4  01F5               	clrf	___bmul@product
  2448  09E5                     l1789:
  2449  09E5  1C76               	btfss	___bmul@multiplier,0
  2450  09E6  29E8               	goto	u1641
  2451  09E7  29E9               	goto	u1640
  2452  09E8                     u1641:
  2453  09E8  29ED               	goto	l1793
  2454  09E9                     u1640:
  2455  09E9                     l1791:
  2456  09E9  0873               	movf	___bmul@multiplicand,w
  2457  09EA  00F4               	movwf	??___bmul
  2458  09EB  0874               	movf	??___bmul,w
  2459  09EC  07F5               	addwf	___bmul@product,f
  2460  09ED                     l1793:
  2461  09ED  1003               	clrc
  2462  09EE  0DF3               	rlf	___bmul@multiplicand,f
  2463  09EF                     l1795:
  2464  09EF  1003               	clrc
  2465  09F0  0CF6               	rrf	___bmul@multiplier,f
  2466  09F1  0876               	movf	___bmul@multiplier,w
  2467  09F2  1D03               	btfss	3,2
  2468  09F3  29F5               	goto	u1651
  2469  09F4  29F6               	goto	u1650
  2470  09F5                     u1651:
  2471  09F5  29E5               	goto	l1789
  2472  09F6                     u1650:
  2473  09F6                     l1797:
  2474  09F6  0875               	movf	___bmul@product,w
  2475  09F7                     l393:
  2476  09F7  0008               	return
  2477  09F8                     __end_of___bmul:
  2478                           
  2479                           	psect	text5
  2480  0C5C                     __ptext5:	
  2481 ;; *************** function ___awdiv *****************
  2482 ;; Defined at:
  2483 ;;		line 5 in file "C:\Program Files\Microchip\xc8\v2.31\pic\sources\c90\common\awdiv.c"
  2484 ;; Parameters:    Size  Location     Type
  2485 ;;  divisor         2    3[COMMON] int 
  2486 ;;  dividend        2    5[COMMON] int 
  2487 ;; Auto vars:     Size  Location     Type
  2488 ;;  quotient        2    2[BANK0 ] int 
  2489 ;;  sign            1    1[BANK0 ] unsigned char 
  2490 ;;  counter         1    0[BANK0 ] unsigned char 
  2491 ;; Return value:  Size  Location     Type
  2492 ;;                  2    3[COMMON] int 
  2493 ;; Registers used:
  2494 ;;		wreg, status,2, status,0
  2495 ;; Tracked objects:
  2496 ;;		On entry : 0/0
  2497 ;;		On exit  : 0/0
  2498 ;;		Unchanged: 0/0
  2499 ;; Data sizes:     COMMON   BANK0   BANK1   BANK3   BANK2
  2500 ;;      Params:         4       0       0       0       0
  2501 ;;      Locals:         0       4       0       0       0
  2502 ;;      Temps:          1       0       0       0       0
  2503 ;;      Totals:         5       4       0       0       0
  2504 ;;Total ram usage:        9 bytes
  2505 ;; Hardware stack levels used:    1
  2506 ;; Hardware stack levels required when called:    1
  2507 ;; This function calls:
  2508 ;;		Nothing
  2509 ;; This function is called by:
  2510 ;;		_main
  2511 ;;		_divisiondecimal
  2512 ;; This function uses a non-reentrant model
  2513 ;;
  2514                           
  2515                           
  2516                           ;psect for function ___awdiv
  2517  0C5C                     ___awdiv:
  2518  0C5C                     l1825:	
  2519                           ;incstack = 0
  2520                           ; Regs used in ___awdiv: [wreg+status,2+status,0]
  2521                           
  2522  0C5C  1283               	bcf	3,5	;RP0=0, select bank0
  2523  0C5D  1303               	bcf	3,6	;RP1=0, select bank0
  2524  0C5E  01A1               	clrf	___awdiv@sign
  2525  0C5F                     l1827:
  2526  0C5F  1FF4               	btfss	___awdiv@divisor+1,7
  2527  0C60  2C62               	goto	u1731
  2528  0C61  2C63               	goto	u1730
  2529  0C62                     u1731:
  2530  0C62  2C6A               	goto	l1833
  2531  0C63                     u1730:
  2532  0C63                     l1829:
  2533  0C63  09F3               	comf	___awdiv@divisor,f
  2534  0C64  09F4               	comf	___awdiv@divisor+1,f
  2535  0C65  0AF3               	incf	___awdiv@divisor,f
  2536  0C66  1903               	skipnz
  2537  0C67  0AF4               	incf	___awdiv@divisor+1,f
  2538  0C68                     l1831:
  2539  0C68  01A1               	clrf	___awdiv@sign
  2540  0C69  0AA1               	incf	___awdiv@sign,f
  2541  0C6A                     l1833:
  2542  0C6A  1FF6               	btfss	___awdiv@dividend+1,7
  2543  0C6B  2C6D               	goto	u1741
  2544  0C6C  2C6E               	goto	u1740
  2545  0C6D                     u1741:
  2546  0C6D  2C77               	goto	l1839
  2547  0C6E                     u1740:
  2548  0C6E                     l1835:
  2549  0C6E  09F5               	comf	___awdiv@dividend,f
  2550  0C6F  09F6               	comf	___awdiv@dividend+1,f
  2551  0C70  0AF5               	incf	___awdiv@dividend,f
  2552  0C71  1903               	skipnz
  2553  0C72  0AF6               	incf	___awdiv@dividend+1,f
  2554  0C73                     l1837:
  2555  0C73  3001               	movlw	1
  2556  0C74  00F7               	movwf	??___awdiv
  2557  0C75  0877               	movf	??___awdiv,w
  2558  0C76  06A1               	xorwf	___awdiv@sign,f
  2559  0C77                     l1839:
  2560  0C77  01A2               	clrf	___awdiv@quotient
  2561  0C78  01A3               	clrf	___awdiv@quotient+1
  2562  0C79                     l1841:
  2563  0C79  0873               	movf	___awdiv@divisor,w
  2564  0C7A  0474               	iorwf	___awdiv@divisor+1,w
  2565  0C7B  1903               	btfsc	3,2
  2566  0C7C  2C7E               	goto	u1751
  2567  0C7D  2C7F               	goto	u1750
  2568  0C7E                     u1751:
  2569  0C7E  2CB6               	goto	l1861
  2570  0C7F                     u1750:
  2571  0C7F                     l1843:
  2572  0C7F  01A0               	clrf	___awdiv@counter
  2573  0C80  0AA0               	incf	___awdiv@counter,f
  2574  0C81  2C8D               	goto	l1849
  2575  0C82                     l1845:
  2576  0C82  3001               	movlw	1
  2577  0C83                     u1765:
  2578  0C83  1003               	clrc
  2579  0C84  0DF3               	rlf	___awdiv@divisor,f
  2580  0C85  0DF4               	rlf	___awdiv@divisor+1,f
  2581  0C86  3EFF               	addlw	-1
  2582  0C87  1D03               	skipz
  2583  0C88  2C83               	goto	u1765
  2584  0C89                     l1847:
  2585  0C89  3001               	movlw	1
  2586  0C8A  00F7               	movwf	??___awdiv
  2587  0C8B  0877               	movf	??___awdiv,w
  2588  0C8C  07A0               	addwf	___awdiv@counter,f
  2589  0C8D                     l1849:
  2590  0C8D  1FF4               	btfss	___awdiv@divisor+1,7
  2591  0C8E  2C90               	goto	u1771
  2592  0C8F  2C91               	goto	u1770
  2593  0C90                     u1771:
  2594  0C90  2C82               	goto	l1845
  2595  0C91                     u1770:
  2596  0C91                     l1851:
  2597  0C91  3001               	movlw	1
  2598  0C92                     u1785:
  2599  0C92  1003               	clrc
  2600  0C93  0DA2               	rlf	___awdiv@quotient,f
  2601  0C94  0DA3               	rlf	___awdiv@quotient+1,f
  2602  0C95  3EFF               	addlw	-1
  2603  0C96  1D03               	skipz
  2604  0C97  2C92               	goto	u1785
  2605  0C98  0874               	movf	___awdiv@divisor+1,w
  2606  0C99  0276               	subwf	___awdiv@dividend+1,w
  2607  0C9A  1D03               	skipz
  2608  0C9B  2C9E               	goto	u1795
  2609  0C9C  0873               	movf	___awdiv@divisor,w
  2610  0C9D  0275               	subwf	___awdiv@dividend,w
  2611  0C9E                     u1795:
  2612  0C9E  1C03               	skipc
  2613  0C9F  2CA1               	goto	u1791
  2614  0CA0  2CA2               	goto	u1790
  2615  0CA1                     u1791:
  2616  0CA1  2CA9               	goto	l1857
  2617  0CA2                     u1790:
  2618  0CA2                     l1853:
  2619  0CA2  0873               	movf	___awdiv@divisor,w
  2620  0CA3  02F5               	subwf	___awdiv@dividend,f
  2621  0CA4  0874               	movf	___awdiv@divisor+1,w
  2622  0CA5  1C03               	skipc
  2623  0CA6  03F6               	decf	___awdiv@dividend+1,f
  2624  0CA7  02F6               	subwf	___awdiv@dividend+1,f
  2625  0CA8                     l1855:
  2626  0CA8  1422               	bsf	___awdiv@quotient,0
  2627  0CA9                     l1857:
  2628  0CA9  3001               	movlw	1
  2629  0CAA                     u1805:
  2630  0CAA  1003               	clrc
  2631  0CAB  0CF4               	rrf	___awdiv@divisor+1,f
  2632  0CAC  0CF3               	rrf	___awdiv@divisor,f
  2633  0CAD  3EFF               	addlw	-1
  2634  0CAE  1D03               	skipz
  2635  0CAF  2CAA               	goto	u1805
  2636  0CB0                     l1859:
  2637  0CB0  3001               	movlw	1
  2638  0CB1  02A0               	subwf	___awdiv@counter,f
  2639  0CB2  1D03               	btfss	3,2
  2640  0CB3  2CB5               	goto	u1811
  2641  0CB4  2CB6               	goto	u1810
  2642  0CB5                     u1811:
  2643  0CB5  2C91               	goto	l1851
  2644  0CB6                     u1810:
  2645  0CB6                     l1861:
  2646  0CB6  0821               	movf	___awdiv@sign,w
  2647  0CB7  1903               	btfsc	3,2
  2648  0CB8  2CBA               	goto	u1821
  2649  0CB9  2CBB               	goto	u1820
  2650  0CBA                     u1821:
  2651  0CBA  2CC0               	goto	l1865
  2652  0CBB                     u1820:
  2653  0CBB                     l1863:
  2654  0CBB  09A2               	comf	___awdiv@quotient,f
  2655  0CBC  09A3               	comf	___awdiv@quotient+1,f
  2656  0CBD  0AA2               	incf	___awdiv@quotient,f
  2657  0CBE  1903               	skipnz
  2658  0CBF  0AA3               	incf	___awdiv@quotient+1,f
  2659  0CC0                     l1865:
  2660  0CC0  0823               	movf	___awdiv@quotient+1,w
  2661  0CC1  00F4               	movwf	?___awdiv+1
  2662  0CC2  0822               	movf	___awdiv@quotient,w
  2663  0CC3  00F3               	movwf	?___awdiv
  2664  0CC4                     l520:
  2665  0CC4  0008               	return
  2666  0CC5                     __end_of___awdiv:
  2667                           
  2668                           	psect	text6
  2669  06EA                     __ptext6:	
  2670 ;; *************** function ___xxtofl *****************
  2671 ;; Defined at:
  2672 ;;		line 10 in file "C:\Program Files\Microchip\xc8\v2.31\pic\sources\c90\common\xxtofl.c"
  2673 ;; Parameters:    Size  Location     Type
  2674 ;;  sign            1    wreg     unsigned char 
  2675 ;;  val             4    3[COMMON] long 
  2676 ;; Auto vars:     Size  Location     Type
  2677 ;;  sign            1    4[BANK0 ] unsigned char 
  2678 ;;  arg             4    6[BANK0 ] unsigned long 
  2679 ;;  exp             1    5[BANK0 ] unsigned char 
  2680 ;; Return value:  Size  Location     Type
  2681 ;;                  4    3[COMMON] unsigned char 
  2682 ;; Registers used:
  2683 ;;		wreg, status,2, status,0
  2684 ;; Tracked objects:
  2685 ;;		On entry : 0/0
  2686 ;;		On exit  : 0/0
  2687 ;;		Unchanged: 0/0
  2688 ;; Data sizes:     COMMON   BANK0   BANK1   BANK3   BANK2
  2689 ;;      Params:         4       0       0       0       0
  2690 ;;      Locals:         0       6       0       0       0
  2691 ;;      Temps:          0       4       0       0       0
  2692 ;;      Totals:         4      10       0       0       0
  2693 ;;Total ram usage:       14 bytes
  2694 ;; Hardware stack levels used:    1
  2695 ;; Hardware stack levels required when called:    1
  2696 ;; This function calls:
  2697 ;;		Nothing
  2698 ;; This function is called by:
  2699 ;;		_main
  2700 ;;		_floToChar
  2701 ;; This function uses a non-reentrant model
  2702 ;;
  2703                           
  2704                           
  2705                           ;psect for function ___xxtofl
  2706  06EA                     ___xxtofl:
  2707                           
  2708                           ;incstack = 0
  2709                           ; Regs used in ___xxtofl: [wreg+status,2+status,0]
  2710                           ;___xxtofl@sign stored from wreg
  2711  06EA  1283               	bcf	3,5	;RP0=0, select bank0
  2712  06EB  1303               	bcf	3,6	;RP1=0, select bank0
  2713  06EC  00A4               	movwf	___xxtofl@sign
  2714  06ED                     l2943:
  2715  06ED  0824               	movf	___xxtofl@sign,w
  2716  06EE  1903               	btfsc	3,2
  2717  06EF  2EF1               	goto	u3811
  2718  06F0  2EF2               	goto	u3810
  2719  06F1                     u3811:
  2720  06F1  2F06               	goto	l2949
  2721  06F2                     u3810:
  2722  06F2                     l2945:
  2723  06F2  1FF6               	btfss	___xxtofl@val+3,7
  2724  06F3  2EF5               	goto	u3821
  2725  06F4  2EF6               	goto	u3820
  2726  06F5                     u3821:
  2727  06F5  2F06               	goto	l2949
  2728  06F6                     u3820:
  2729  06F6                     l2947:
  2730  06F6  0973               	comf	___xxtofl@val,w
  2731  06F7  00A6               	movwf	___xxtofl@arg
  2732  06F8  0974               	comf	___xxtofl@val+1,w
  2733  06F9  00A7               	movwf	___xxtofl@arg+1
  2734  06FA  0975               	comf	___xxtofl@val+2,w
  2735  06FB  00A8               	movwf	___xxtofl@arg+2
  2736  06FC  0976               	comf	___xxtofl@val+3,w
  2737  06FD  00A9               	movwf	___xxtofl@arg+3
  2738  06FE  0AA6               	incf	___xxtofl@arg,f
  2739  06FF  1903               	skipnz
  2740  0700  0AA7               	incf	___xxtofl@arg+1,f
  2741  0701  1903               	skipnz
  2742  0702  0AA8               	incf	___xxtofl@arg+2,f
  2743  0703  1903               	skipnz
  2744  0704  0AA9               	incf	___xxtofl@arg+3,f
  2745  0705  2F0E               	goto	l800
  2746  0706                     l2949:
  2747  0706  0876               	movf	___xxtofl@val+3,w
  2748  0707  00A9               	movwf	___xxtofl@arg+3
  2749  0708  0875               	movf	___xxtofl@val+2,w
  2750  0709  00A8               	movwf	___xxtofl@arg+2
  2751  070A  0874               	movf	___xxtofl@val+1,w
  2752  070B  00A7               	movwf	___xxtofl@arg+1
  2753  070C  0873               	movf	___xxtofl@val,w
  2754  070D  00A6               	movwf	___xxtofl@arg
  2755  070E                     l800:
  2756  070E  0876               	movf	___xxtofl@val+3,w
  2757  070F  0475               	iorwf	___xxtofl@val+2,w
  2758  0710  0474               	iorwf	___xxtofl@val+1,w
  2759  0711  0473               	iorwf	___xxtofl@val,w
  2760  0712  1D03               	skipz
  2761  0713  2F15               	goto	u3831
  2762  0714  2F16               	goto	u3830
  2763  0715                     u3831:
  2764  0715  2F1F               	goto	l2955
  2765  0716                     u3830:
  2766  0716                     l2951:
  2767  0716  3000               	movlw	0
  2768  0717  00F6               	movwf	?___xxtofl+3
  2769  0718  3000               	movlw	0
  2770  0719  00F5               	movwf	?___xxtofl+2
  2771  071A  3000               	movlw	0
  2772  071B  00F4               	movwf	?___xxtofl+1
  2773  071C  3000               	movlw	0
  2774  071D  00F3               	movwf	?___xxtofl
  2775  071E  2FA5               	goto	l802
  2776  071F                     l2955:
  2777  071F  3096               	movlw	150
  2778  0720  00A0               	movwf	??___xxtofl
  2779  0721  0820               	movf	??___xxtofl,w
  2780  0722  00A5               	movwf	___xxtofl@exp
  2781  0723  2F31               	goto	l2959
  2782  0724                     l2957:
  2783  0724  3001               	movlw	1
  2784  0725  00A0               	movwf	??___xxtofl
  2785  0726  0820               	movf	??___xxtofl,w
  2786  0727  07A5               	addwf	___xxtofl@exp,f
  2787  0728  3001               	movlw	1
  2788  0729                     u3845:
  2789  0729  1003               	clrc
  2790  072A  0CA9               	rrf	___xxtofl@arg+3,f
  2791  072B  0CA8               	rrf	___xxtofl@arg+2,f
  2792  072C  0CA7               	rrf	___xxtofl@arg+1,f
  2793  072D  0CA6               	rrf	___xxtofl@arg,f
  2794  072E  3EFF               	addlw	-1
  2795  072F  1D03               	skipz
  2796  0730  2F29               	goto	u3845
  2797  0731                     l2959:
  2798  0731  30FE               	movlw	254
  2799  0732  0529               	andwf	___xxtofl@arg+3,w
  2800  0733  1D03               	btfss	3,2
  2801  0734  2F36               	goto	u3851
  2802  0735  2F37               	goto	u3850
  2803  0736                     u3851:
  2804  0736  2F24               	goto	l2957
  2805  0737                     u3850:
  2806  0737  2F53               	goto	l806
  2807  0738                     l2961:
  2808  0738  3001               	movlw	1
  2809  0739  00A0               	movwf	??___xxtofl
  2810  073A  0820               	movf	??___xxtofl,w
  2811  073B  07A5               	addwf	___xxtofl@exp,f
  2812  073C                     l2963:
  2813  073C  3001               	movlw	1
  2814  073D  07A6               	addwf	___xxtofl@arg,f
  2815  073E  3000               	movlw	0
  2816  073F  1803               	skipnc
  2817  0740  3001               	movlw	1
  2818  0741  07A7               	addwf	___xxtofl@arg+1,f
  2819  0742  3000               	movlw	0
  2820  0743  1803               	skipnc
  2821  0744  3001               	movlw	1
  2822  0745  07A8               	addwf	___xxtofl@arg+2,f
  2823  0746  3000               	movlw	0
  2824  0747  1803               	skipnc
  2825  0748  3001               	movlw	1
  2826  0749  07A9               	addwf	___xxtofl@arg+3,f
  2827  074A                     l2965:
  2828  074A  3001               	movlw	1
  2829  074B                     u3865:
  2830  074B  1003               	clrc
  2831  074C  0CA9               	rrf	___xxtofl@arg+3,f
  2832  074D  0CA8               	rrf	___xxtofl@arg+2,f
  2833  074E  0CA7               	rrf	___xxtofl@arg+1,f
  2834  074F  0CA6               	rrf	___xxtofl@arg,f
  2835  0750  3EFF               	addlw	-1
  2836  0751  1D03               	skipz
  2837  0752  2F4B               	goto	u3865
  2838  0753                     l806:
  2839  0753  30FF               	movlw	255
  2840  0754  0529               	andwf	___xxtofl@arg+3,w
  2841  0755  1D03               	btfss	3,2
  2842  0756  2F58               	goto	u3871
  2843  0757  2F59               	goto	u3870
  2844  0758                     u3871:
  2845  0758  2F38               	goto	l2961
  2846  0759                     u3870:
  2847  0759  2F65               	goto	l2969
  2848  075A                     l2967:
  2849  075A  3001               	movlw	1
  2850  075B  02A5               	subwf	___xxtofl@exp,f
  2851  075C  3001               	movlw	1
  2852  075D  00A0               	movwf	??___xxtofl
  2853  075E                     u3885:
  2854  075E  1003               	clrc
  2855  075F  0DA6               	rlf	___xxtofl@arg,f
  2856  0760  0DA7               	rlf	___xxtofl@arg+1,f
  2857  0761  0DA8               	rlf	___xxtofl@arg+2,f
  2858  0762  0DA9               	rlf	___xxtofl@arg+3,f
  2859  0763  0BA0               	decfsz	??___xxtofl,f
  2860  0764  2F5E               	goto	u3885
  2861  0765                     l2969:
  2862  0765  1BA8               	btfsc	___xxtofl@arg+2,7
  2863  0766  2F68               	goto	u3891
  2864  0767  2F69               	goto	u3890
  2865  0768                     u3891:
  2866  0768  2F6F               	goto	l813
  2867  0769                     u3890:
  2868  0769                     l2971:
  2869  0769  3002               	movlw	2
  2870  076A  0225               	subwf	___xxtofl@exp,w
  2871  076B  1803               	skipnc
  2872  076C  2F6E               	goto	u3901
  2873  076D  2F6F               	goto	u3900
  2874  076E                     u3901:
  2875  076E  2F5A               	goto	l2967
  2876  076F                     u3900:
  2877  076F                     l813:
  2878  076F  1825               	btfsc	___xxtofl@exp,0
  2879  0770  2F72               	goto	u3911
  2880  0771  2F73               	goto	u3910
  2881  0772                     u3911:
  2882  0772  2F7B               	goto	l814
  2883  0773                     u3910:
  2884  0773                     l2973:
  2885  0773  30FF               	movlw	255
  2886  0774  05A6               	andwf	___xxtofl@arg,f
  2887  0775  30FF               	movlw	255
  2888  0776  05A7               	andwf	___xxtofl@arg+1,f
  2889  0777  307F               	movlw	127
  2890  0778  05A8               	andwf	___xxtofl@arg+2,f
  2891  0779  30FF               	movlw	255
  2892  077A  05A9               	andwf	___xxtofl@arg+3,f
  2893  077B                     l814:
  2894  077B  1003               	clrc
  2895  077C  0CA5               	rrf	___xxtofl@exp,f
  2896  077D                     l2975:
  2897  077D  0825               	movf	___xxtofl@exp,w
  2898  077E  00A0               	movwf	??___xxtofl
  2899  077F  01A1               	clrf	??___xxtofl+1
  2900  0780  01A2               	clrf	??___xxtofl+2
  2901  0781  01A3               	clrf	??___xxtofl+3
  2902  0782  3018               	movlw	24
  2903  0783                     u3925:
  2904  0783  1003               	clrc
  2905  0784  0DA0               	rlf	??___xxtofl,f
  2906  0785  0DA1               	rlf	??___xxtofl+1,f
  2907  0786  0DA2               	rlf	??___xxtofl+2,f
  2908  0787  0DA3               	rlf	??___xxtofl+3,f
  2909  0788                     u3920:
  2910  0788  3EFF               	addlw	-1
  2911  0789  1D03               	skipz
  2912  078A  2F83               	goto	u3925
  2913  078B  0820               	movf	??___xxtofl,w
  2914  078C  04A6               	iorwf	___xxtofl@arg,f
  2915  078D  0821               	movf	??___xxtofl+1,w
  2916  078E  04A7               	iorwf	___xxtofl@arg+1,f
  2917  078F  0822               	movf	??___xxtofl+2,w
  2918  0790  04A8               	iorwf	___xxtofl@arg+2,f
  2919  0791  0823               	movf	??___xxtofl+3,w
  2920  0792  04A9               	iorwf	___xxtofl@arg+3,f
  2921  0793                     l2977:
  2922  0793  0824               	movf	___xxtofl@sign,w
  2923  0794  1903               	btfsc	3,2
  2924  0795  2F97               	goto	u3931
  2925  0796  2F98               	goto	u3930
  2926  0797                     u3931:
  2927  0797  2F9D               	goto	l2983
  2928  0798                     u3930:
  2929  0798                     l2979:
  2930  0798  1FF6               	btfss	___xxtofl@val+3,7
  2931  0799  2F9B               	goto	u3941
  2932  079A  2F9C               	goto	u3940
  2933  079B                     u3941:
  2934  079B  2F9D               	goto	l2983
  2935  079C                     u3940:
  2936  079C                     l2981:
  2937  079C  17A9               	bsf	___xxtofl@arg+3,7
  2938  079D                     l2983:
  2939  079D  0829               	movf	___xxtofl@arg+3,w
  2940  079E  00F6               	movwf	?___xxtofl+3
  2941  079F  0828               	movf	___xxtofl@arg+2,w
  2942  07A0  00F5               	movwf	?___xxtofl+2
  2943  07A1  0827               	movf	___xxtofl@arg+1,w
  2944  07A2  00F4               	movwf	?___xxtofl+1
  2945  07A3  0826               	movf	___xxtofl@arg,w
  2946  07A4  00F3               	movwf	?___xxtofl
  2947  07A5                     l802:
  2948  07A5  0008               	return
  2949  07A6                     __end_of___xxtofl:
  2950                           
  2951                           	psect	text7
  2952  0CC5                     __ptext7:	
  2953 ;; *************** function ___fltol *****************
  2954 ;; Defined at:
  2955 ;;		line 43 in file "C:\Program Files\Microchip\xc8\v2.31\pic\sources\c90\common\fltol.c"
  2956 ;; Parameters:    Size  Location     Type
  2957 ;;  f1              4   36[BANK0 ] unsigned char 
  2958 ;; Auto vars:     Size  Location     Type
  2959 ;;  exp1            1   46[BANK0 ] unsigned char 
  2960 ;;  sign1           1   45[BANK0 ] unsigned char 
  2961 ;; Return value:  Size  Location     Type
  2962 ;;                  4   36[BANK0 ] long 
  2963 ;; Registers used:
  2964 ;;		wreg, status,2, status,0
  2965 ;; Tracked objects:
  2966 ;;		On entry : 0/0
  2967 ;;		On exit  : 0/0
  2968 ;;		Unchanged: 0/0
  2969 ;; Data sizes:     COMMON   BANK0   BANK1   BANK3   BANK2
  2970 ;;      Params:         0       4       0       0       0
  2971 ;;      Locals:         0       2       0       0       0
  2972 ;;      Temps:          0       5       0       0       0
  2973 ;;      Totals:         0      11       0       0       0
  2974 ;;Total ram usage:       11 bytes
  2975 ;; Hardware stack levels used:    1
  2976 ;; Hardware stack levels required when called:    1
  2977 ;; This function calls:
  2978 ;;		Nothing
  2979 ;; This function is called by:
  2980 ;;		_floToChar
  2981 ;; This function uses a non-reentrant model
  2982 ;;
  2983                           
  2984                           
  2985                           ;psect for function ___fltol
  2986  0CC5                     ___fltol:
  2987  0CC5                     l2141:	
  2988                           ;incstack = 0
  2989                           ; Regs used in ___fltol: [wreg+status,2+status,0]
  2990                           
  2991  0CC5  1003               	clrc
  2992  0CC6  1283               	bcf	3,5	;RP0=0, select bank0
  2993  0CC7  1303               	bcf	3,6	;RP1=0, select bank0
  2994  0CC8  0D46               	rlf	___fltol@f1+2,w
  2995  0CC9  0D47               	rlf	___fltol@f1+3,w
  2996  0CCA  00C8               	movwf	??___fltol
  2997  0CCB  0848               	movf	??___fltol,w
  2998  0CCC  00CE               	movwf	___fltol@exp1
  2999  0CCD  084E               	movf	___fltol@exp1,w
  3000  0CCE  1D03               	btfss	3,2
  3001  0CCF  2CD1               	goto	u2371
  3002  0CD0  2CD2               	goto	u2370
  3003  0CD1                     u2371:
  3004  0CD1  2CDB               	goto	l2147
  3005  0CD2                     u2370:
  3006  0CD2                     l2143:
  3007  0CD2  3000               	movlw	0
  3008  0CD3  00C7               	movwf	?___fltol+3
  3009  0CD4  3000               	movlw	0
  3010  0CD5  00C6               	movwf	?___fltol+2
  3011  0CD6  3000               	movlw	0
  3012  0CD7  00C5               	movwf	?___fltol+1
  3013  0CD8  3000               	movlw	0
  3014  0CD9  00C4               	movwf	?___fltol
  3015  0CDA  2D40               	goto	l553
  3016  0CDB                     l2147:
  3017  0CDB  0844               	movf	___fltol@f1,w
  3018  0CDC  00C8               	movwf	??___fltol
  3019  0CDD  0845               	movf	___fltol@f1+1,w
  3020  0CDE  00C9               	movwf	??___fltol+1
  3021  0CDF  0846               	movf	___fltol@f1+2,w
  3022  0CE0  00CA               	movwf	??___fltol+2
  3023  0CE1  0847               	movf	___fltol@f1+3,w
  3024  0CE2  00CB               	movwf	??___fltol+3
  3025  0CE3  301F               	movlw	31
  3026  0CE4                     u2385:
  3027  0CE4  1003               	clrc
  3028  0CE5  0CCB               	rrf	??___fltol+3,f
  3029  0CE6  0CCA               	rrf	??___fltol+2,f
  3030  0CE7  0CC9               	rrf	??___fltol+1,f
  3031  0CE8  0CC8               	rrf	??___fltol,f
  3032  0CE9                     u2380:
  3033  0CE9  3EFF               	addlw	-1
  3034  0CEA  1D03               	skipz
  3035  0CEB  2CE4               	goto	u2385
  3036  0CEC  0848               	movf	??___fltol,w
  3037  0CED  00CC               	movwf	??___fltol+4
  3038  0CEE  084C               	movf	??___fltol+4,w
  3039  0CEF  00CD               	movwf	___fltol@sign1
  3040  0CF0                     l2149:
  3041  0CF0  17C6               	bsf	___fltol@f1+2,7
  3042  0CF1                     l2151:
  3043  0CF1  30FF               	movlw	255
  3044  0CF2  05C4               	andwf	___fltol@f1,f
  3045  0CF3  30FF               	movlw	255
  3046  0CF4  05C5               	andwf	___fltol@f1+1,f
  3047  0CF5  30FF               	movlw	255
  3048  0CF6  05C6               	andwf	___fltol@f1+2,f
  3049  0CF7  3000               	movlw	0
  3050  0CF8  05C7               	andwf	___fltol@f1+3,f
  3051  0CF9                     l2153:
  3052  0CF9  3096               	movlw	150
  3053  0CFA  02CE               	subwf	___fltol@exp1,f
  3054  0CFB                     l2155:
  3055  0CFB  1FCE               	btfss	___fltol@exp1,7
  3056  0CFC  2CFE               	goto	u2391
  3057  0CFD  2CFF               	goto	u2390
  3058  0CFE                     u2391:
  3059  0CFE  2D19               	goto	l2165
  3060  0CFF                     u2390:
  3061  0CFF                     l2157:
  3062  0CFF  084E               	movf	___fltol@exp1,w
  3063  0D00  3A80               	xorlw	128
  3064  0D01  3E97               	addlw	151
  3065  0D02  1803               	skipnc
  3066  0D03  2D05               	goto	u2401
  3067  0D04  2D06               	goto	u2400
  3068  0D05                     u2401:
  3069  0D05  2D07               	goto	l2163
  3070  0D06                     u2400:
  3071  0D06  2CD2               	goto	l2143
  3072  0D07                     l2163:
  3073  0D07  3001               	movlw	1
  3074  0D08                     u2415:
  3075  0D08  1003               	clrc
  3076  0D09  0CC7               	rrf	___fltol@f1+3,f
  3077  0D0A  0CC6               	rrf	___fltol@f1+2,f
  3078  0D0B  0CC5               	rrf	___fltol@f1+1,f
  3079  0D0C  0CC4               	rrf	___fltol@f1,f
  3080  0D0D  3EFF               	addlw	-1
  3081  0D0E  1D03               	skipz
  3082  0D0F  2D08               	goto	u2415
  3083  0D10  3001               	movlw	1
  3084  0D11  00C8               	movwf	??___fltol
  3085  0D12  0848               	movf	??___fltol,w
  3086  0D13  07CE               	addwf	___fltol@exp1,f
  3087  0D14  1D03               	btfss	3,2
  3088  0D15  2D17               	goto	u2421
  3089  0D16  2D18               	goto	u2420
  3090  0D17                     u2421:
  3091  0D17  2D07               	goto	l2163
  3092  0D18                     u2420:
  3093  0D18  2D30               	goto	l2173
  3094  0D19                     l2165:
  3095  0D19  3020               	movlw	32
  3096  0D1A  024E               	subwf	___fltol@exp1,w
  3097  0D1B  1C03               	skipc
  3098  0D1C  2D1E               	goto	u2431
  3099  0D1D  2D1F               	goto	u2430
  3100  0D1E                     u2431:
  3101  0D1E  2D2B               	goto	l560
  3102  0D1F                     u2430:
  3103  0D1F  2CD2               	goto	l2143
  3104  0D20                     l2171:
  3105  0D20  3001               	movlw	1
  3106  0D21  00C8               	movwf	??___fltol
  3107  0D22                     u2445:
  3108  0D22  1003               	clrc
  3109  0D23  0DC4               	rlf	___fltol@f1,f
  3110  0D24  0DC5               	rlf	___fltol@f1+1,f
  3111  0D25  0DC6               	rlf	___fltol@f1+2,f
  3112  0D26  0DC7               	rlf	___fltol@f1+3,f
  3113  0D27  0BC8               	decfsz	??___fltol,f
  3114  0D28  2D22               	goto	u2445
  3115  0D29  3001               	movlw	1
  3116  0D2A  02CE               	subwf	___fltol@exp1,f
  3117  0D2B                     l560:
  3118  0D2B  084E               	movf	___fltol@exp1,w
  3119  0D2C  1D03               	btfss	3,2
  3120  0D2D  2D2F               	goto	u2451
  3121  0D2E  2D30               	goto	u2450
  3122  0D2F                     u2451:
  3123  0D2F  2D20               	goto	l2171
  3124  0D30                     u2450:
  3125  0D30                     l2173:
  3126  0D30  084D               	movf	___fltol@sign1,w
  3127  0D31  1903               	btfsc	3,2
  3128  0D32  2D34               	goto	u2461
  3129  0D33  2D35               	goto	u2460
  3130  0D34                     u2461:
  3131  0D34  2D40               	goto	l563
  3132  0D35                     u2460:
  3133  0D35                     l2175:
  3134  0D35  09C4               	comf	___fltol@f1,f
  3135  0D36  09C5               	comf	___fltol@f1+1,f
  3136  0D37  09C6               	comf	___fltol@f1+2,f
  3137  0D38  09C7               	comf	___fltol@f1+3,f
  3138  0D39  0AC4               	incf	___fltol@f1,f
  3139  0D3A  1903               	skipnz
  3140  0D3B  0AC5               	incf	___fltol@f1+1,f
  3141  0D3C  1903               	skipnz
  3142  0D3D  0AC6               	incf	___fltol@f1+2,f
  3143  0D3E  1903               	skipnz
  3144  0D3F  0AC7               	incf	___fltol@f1+3,f
  3145  0D40                     l563:
  3146  0D40                     l553:
  3147  0D40  0008               	return
  3148  0D41                     __end_of___fltol:
  3149                           
  3150                           	psect	text8
  3151  0A53                     __ptext8:	
  3152 ;; *************** function ___flsub *****************
  3153 ;; Defined at:
  3154 ;;		line 242 in file "C:\Program Files\Microchip\xc8\v2.31\pic\sources\c90\common\sprcadd.c"
  3155 ;; Parameters:    Size  Location     Type
  3156 ;;  a               4   16[BANK0 ] long 
  3157 ;;  b               4   20[BANK0 ] long 
  3158 ;; Auto vars:     Size  Location     Type
  3159 ;;		None
  3160 ;; Return value:  Size  Location     Type
  3161 ;;                  4   16[BANK0 ] long 
  3162 ;; Registers used:
  3163 ;;		wreg, status,2, status,0, btemp+1, pclath, cstack
  3164 ;; Tracked objects:
  3165 ;;		On entry : 0/0
  3166 ;;		On exit  : 0/0
  3167 ;;		Unchanged: 0/0
  3168 ;; Data sizes:     COMMON   BANK0   BANK1   BANK3   BANK2
  3169 ;;      Params:         0       8       0       0       0
  3170 ;;      Locals:         0       0       0       0       0
  3171 ;;      Temps:          0       0       0       0       0
  3172 ;;      Totals:         0       8       0       0       0
  3173 ;;Total ram usage:        8 bytes
  3174 ;; Hardware stack levels used:    1
  3175 ;; Hardware stack levels required when called:    2
  3176 ;; This function calls:
  3177 ;;		___fladd
  3178 ;; This function is called by:
  3179 ;;		_floToChar
  3180 ;; This function uses a non-reentrant model
  3181 ;;
  3182                           
  3183                           
  3184                           ;psect for function ___flsub
  3185  0A53                     ___flsub:
  3186  0A53                     l2937:	
  3187                           ;incstack = 0
  3188                           ; Regs used in ___flsub: [wreg+status,2+status,0+btemp+1+pclath+cstack]
  3189                           
  3190  0A53  3080               	movlw	128
  3191  0A54  1283               	bcf	3,5	;RP0=0, select bank0
  3192  0A55  1303               	bcf	3,6	;RP1=0, select bank0
  3193  0A56  06B3               	xorwf	___flsub@a+3,f
  3194  0A57                     l2939:
  3195  0A57  0837               	movf	___flsub@b+3,w
  3196  0A58  00A3               	movwf	___fladd@b+3
  3197  0A59  0836               	movf	___flsub@b+2,w
  3198  0A5A  00A2               	movwf	___fladd@b+2
  3199  0A5B  0835               	movf	___flsub@b+1,w
  3200  0A5C  00A1               	movwf	___fladd@b+1
  3201  0A5D  0834               	movf	___flsub@b,w
  3202  0A5E  00A0               	movwf	___fladd@b
  3203  0A5F  0833               	movf	___flsub@a+3,w
  3204  0A60  00A7               	movwf	___fladd@a+3
  3205  0A61  0832               	movf	___flsub@a+2,w
  3206  0A62  00A6               	movwf	___fladd@a+2
  3207  0A63  0831               	movf	___flsub@a+1,w
  3208  0A64  00A5               	movwf	___fladd@a+1
  3209  0A65  0830               	movf	___flsub@a,w
  3210  0A66  00A4               	movwf	___fladd@a
  3211  0A67  120A  118A  2394  120A  158A  	fcall	___fladd
  3212  0A6C  1283               	bcf	3,5	;RP0=0, select bank0
  3213  0A6D  1303               	bcf	3,6	;RP1=0, select bank0
  3214  0A6E  0823               	movf	?___fladd+3,w
  3215  0A6F  00B3               	movwf	?___flsub+3
  3216  0A70  0822               	movf	?___fladd+2,w
  3217  0A71  00B2               	movwf	?___flsub+2
  3218  0A72  0821               	movf	?___fladd+1,w
  3219  0A73  00B1               	movwf	?___flsub+1
  3220  0A74  0820               	movf	?___fladd,w
  3221  0A75  00B0               	movwf	?___flsub
  3222  0A76                     l706:
  3223  0A76  0008               	return
  3224  0A77                     __end_of___flsub:
  3225                           
  3226                           	psect	text9
  3227  0394                     __ptext9:	
  3228 ;; *************** function ___fladd *****************
  3229 ;; Defined at:
  3230 ;;		line 10 in file "C:\Program Files\Microchip\xc8\v2.31\pic\sources\c90\common\sprcadd.c"
  3231 ;; Parameters:    Size  Location     Type
  3232 ;;  b               4    0[BANK0 ] long 
  3233 ;;  a               4    4[BANK0 ] long 
  3234 ;; Auto vars:     Size  Location     Type
  3235 ;;  grs             1    6[COMMON] unsigned char 
  3236 ;;  bexp            1    5[COMMON] unsigned char 
  3237 ;;  aexp            1    4[COMMON] unsigned char 
  3238 ;;  signs           1    3[COMMON] unsigned char 
  3239 ;; Return value:  Size  Location     Type
  3240 ;;                  4    0[BANK0 ] unsigned char 
  3241 ;; Registers used:
  3242 ;;		wreg, status,2, status,0, btemp+1
  3243 ;; Tracked objects:
  3244 ;;		On entry : 0/0
  3245 ;;		On exit  : 0/0
  3246 ;;		Unchanged: 0/0
  3247 ;; Data sizes:     COMMON   BANK0   BANK1   BANK3   BANK2
  3248 ;;      Params:         0       8       0       0       0
  3249 ;;      Locals:         4       0       0       0       0
  3250 ;;      Temps:          0       8       0       0       0
  3251 ;;      Totals:         4      16       0       0       0
  3252 ;;Total ram usage:       20 bytes
  3253 ;; Hardware stack levels used:    1
  3254 ;; Hardware stack levels required when called:    1
  3255 ;; This function calls:
  3256 ;;		Nothing
  3257 ;; This function is called by:
  3258 ;;		___flsub
  3259 ;; This function uses a non-reentrant model
  3260 ;;
  3261                           
  3262                           
  3263                           ;psect for function ___fladd
  3264  0394                     ___fladd:
  3265  0394                     l2705:	
  3266                           ;incstack = 0
  3267                           ; Regs used in ___fladd: [wreg+status,2+status,0+btemp+1]
  3268                           
  3269  0394  1283               	bcf	3,5	;RP0=0, select bank0
  3270  0395  1303               	bcf	3,6	;RP1=0, select bank0
  3271  0396  0823               	movf	___fladd@b+3,w
  3272  0397  3980               	andlw	128
  3273  0398  00A8               	movwf	??___fladd
  3274  0399  0828               	movf	??___fladd,w
  3275  039A  00F3               	movwf	___fladd@signs
  3276  039B                     l2707:
  3277  039B  0823               	movf	___fladd@b+3,w
  3278  039C  00A8               	movwf	??___fladd
  3279  039D  0728               	addwf	??___fladd,w
  3280  039E  00A9               	movwf	??___fladd+1
  3281  039F  0829               	movf	??___fladd+1,w
  3282  03A0  00F5               	movwf	___fladd@bexp
  3283  03A1                     l2709:
  3284  03A1  1FA2               	btfss	___fladd@b+2,7
  3285  03A2  2BA4               	goto	u3321
  3286  03A3  2BA5               	goto	u3320
  3287  03A4                     u3321:
  3288  03A4  2BA6               	goto	l2713
  3289  03A5                     u3320:
  3290  03A5                     l2711:
  3291  03A5  1475               	bsf	___fladd@bexp,0
  3292  03A6                     l2713:
  3293  03A6  0875               	movf	___fladd@bexp,w
  3294  03A7  1903               	btfsc	3,2
  3295  03A8  2BAA               	goto	u3331
  3296  03A9  2BAB               	goto	u3330
  3297  03AA                     u3331:
  3298  03AA  2BBB               	goto	l2723
  3299  03AB                     u3330:
  3300  03AB                     l2715:
  3301  03AB  0A75               	incf	___fladd@bexp,w
  3302  03AC  1D03               	btfss	3,2
  3303  03AD  2BAF               	goto	u3341
  3304  03AE  2BB0               	goto	u3340
  3305  03AF                     u3341:
  3306  03AF  2BB8               	goto	l2719
  3307  03B0                     u3340:
  3308  03B0                     l2717:
  3309  03B0  3000               	movlw	0
  3310  03B1  00A3               	movwf	___fladd@b+3
  3311  03B2  3000               	movlw	0
  3312  03B3  00A2               	movwf	___fladd@b+2
  3313  03B4  3000               	movlw	0
  3314  03B5  00A1               	movwf	___fladd@b+1
  3315  03B6  3000               	movlw	0
  3316  03B7  00A0               	movwf	___fladd@b
  3317  03B8                     l2719:
  3318  03B8  17A2               	bsf	___fladd@b+2,7
  3319  03B9                     l2721:
  3320  03B9  01A3               	clrf	___fladd@b+3
  3321  03BA  2BC3               	goto	l2725
  3322  03BB                     l2723:
  3323  03BB  3000               	movlw	0
  3324  03BC  00A3               	movwf	___fladd@b+3
  3325  03BD  3000               	movlw	0
  3326  03BE  00A2               	movwf	___fladd@b+2
  3327  03BF  3000               	movlw	0
  3328  03C0  00A1               	movwf	___fladd@b+1
  3329  03C1  3000               	movlw	0
  3330  03C2  00A0               	movwf	___fladd@b
  3331  03C3                     l2725:
  3332  03C3  0827               	movf	___fladd@a+3,w
  3333  03C4  3980               	andlw	128
  3334  03C5  00A8               	movwf	??___fladd
  3335  03C6  0828               	movf	??___fladd,w
  3336  03C7  00F4               	movwf	___fladd@aexp
  3337  03C8                     l2727:
  3338  03C8  0874               	movf	___fladd@aexp,w
  3339  03C9  0673               	xorwf	___fladd@signs,w
  3340  03CA  1903               	skipnz
  3341  03CB  2BCD               	goto	u3351
  3342  03CC  2BCE               	goto	u3350
  3343  03CD                     u3351:
  3344  03CD  2BCF               	goto	l2731
  3345  03CE                     u3350:
  3346  03CE                     l2729:
  3347  03CE  1773               	bsf	___fladd@signs,6
  3348  03CF                     l2731:
  3349  03CF  0827               	movf	___fladd@a+3,w
  3350  03D0  00A8               	movwf	??___fladd
  3351  03D1  0728               	addwf	??___fladd,w
  3352  03D2  00A9               	movwf	??___fladd+1
  3353  03D3  0829               	movf	??___fladd+1,w
  3354  03D4  00F4               	movwf	___fladd@aexp
  3355  03D5                     l2733:
  3356  03D5  1FA6               	btfss	___fladd@a+2,7
  3357  03D6  2BD8               	goto	u3361
  3358  03D7  2BD9               	goto	u3360
  3359  03D8                     u3361:
  3360  03D8  2BDA               	goto	l2737
  3361  03D9                     u3360:
  3362  03D9                     l2735:
  3363  03D9  1474               	bsf	___fladd@aexp,0
  3364  03DA                     l2737:
  3365  03DA  0874               	movf	___fladd@aexp,w
  3366  03DB  1903               	btfsc	3,2
  3367  03DC  2BDE               	goto	u3371
  3368  03DD  2BDF               	goto	u3370
  3369  03DE                     u3371:
  3370  03DE  2BEF               	goto	l2747
  3371  03DF                     u3370:
  3372  03DF                     l2739:
  3373  03DF  0A74               	incf	___fladd@aexp,w
  3374  03E0  1D03               	btfss	3,2
  3375  03E1  2BE3               	goto	u3381
  3376  03E2  2BE4               	goto	u3380
  3377  03E3                     u3381:
  3378  03E3  2BEC               	goto	l2743
  3379  03E4                     u3380:
  3380  03E4                     l2741:
  3381  03E4  3000               	movlw	0
  3382  03E5  00A7               	movwf	___fladd@a+3
  3383  03E6  3000               	movlw	0
  3384  03E7  00A6               	movwf	___fladd@a+2
  3385  03E8  3000               	movlw	0
  3386  03E9  00A5               	movwf	___fladd@a+1
  3387  03EA  3000               	movlw	0
  3388  03EB  00A4               	movwf	___fladd@a
  3389  03EC                     l2743:
  3390  03EC  17A6               	bsf	___fladd@a+2,7
  3391  03ED                     l2745:
  3392  03ED  01A7               	clrf	___fladd@a+3
  3393  03EE  2BF7               	goto	l660
  3394  03EF                     l2747:
  3395  03EF  3000               	movlw	0
  3396  03F0  00A7               	movwf	___fladd@a+3
  3397  03F1  3000               	movlw	0
  3398  03F2  00A6               	movwf	___fladd@a+2
  3399  03F3  3000               	movlw	0
  3400  03F4  00A5               	movwf	___fladd@a+1
  3401  03F5  3000               	movlw	0
  3402  03F6  00A4               	movwf	___fladd@a
  3403  03F7                     l660:
  3404  03F7  0875               	movf	___fladd@bexp,w
  3405  03F8  0274               	subwf	___fladd@aexp,w
  3406  03F9  1803               	skipnc
  3407  03FA  2BFC               	goto	u3391
  3408  03FB  2BFD               	goto	u3390
  3409  03FC                     u3391:
  3410  03FC  2C41               	goto	l2783
  3411  03FD                     u3390:
  3412  03FD                     l2749:
  3413  03FD  1F73               	btfss	___fladd@signs,6
  3414  03FE  2C00               	goto	u3401
  3415  03FF  2C01               	goto	u3400
  3416  0400                     u3401:
  3417  0400  2C05               	goto	l2753
  3418  0401                     u3400:
  3419  0401                     l2751:
  3420  0401  3080               	movlw	128
  3421  0402  00A8               	movwf	??___fladd
  3422  0403  0828               	movf	??___fladd,w
  3423  0404  06F3               	xorwf	___fladd@signs,f
  3424  0405                     l2753:
  3425  0405  0875               	movf	___fladd@bexp,w
  3426  0406  00A8               	movwf	??___fladd
  3427  0407  0828               	movf	??___fladd,w
  3428  0408  00F6               	movwf	___fladd@grs
  3429  0409                     l2755:
  3430  0409  0874               	movf	___fladd@aexp,w
  3431  040A  00A8               	movwf	??___fladd
  3432  040B  0828               	movf	??___fladd,w
  3433  040C  00F5               	movwf	___fladd@bexp
  3434  040D                     l2757:
  3435  040D  0876               	movf	___fladd@grs,w
  3436  040E  00A8               	movwf	??___fladd
  3437  040F  0828               	movf	??___fladd,w
  3438  0410  00F4               	movwf	___fladd@aexp
  3439  0411                     l2759:
  3440  0411  0820               	movf	___fladd@b,w
  3441  0412  00A8               	movwf	??___fladd
  3442  0413  0828               	movf	??___fladd,w
  3443  0414  00F6               	movwf	___fladd@grs
  3444  0415                     l2761:
  3445  0415  0824               	movf	___fladd@a,w
  3446  0416  00A8               	movwf	??___fladd
  3447  0417  0828               	movf	??___fladd,w
  3448  0418  00A0               	movwf	___fladd@b
  3449  0419                     l2763:
  3450  0419  0876               	movf	___fladd@grs,w
  3451  041A  00A8               	movwf	??___fladd
  3452  041B  0828               	movf	??___fladd,w
  3453  041C  00A4               	movwf	___fladd@a
  3454  041D                     l2765:
  3455  041D  0821               	movf	___fladd@b+1,w
  3456  041E  00A8               	movwf	??___fladd
  3457  041F  0828               	movf	??___fladd,w
  3458  0420  00F6               	movwf	___fladd@grs
  3459  0421                     l2767:
  3460  0421  0825               	movf	___fladd@a+1,w
  3461  0422  00A8               	movwf	??___fladd
  3462  0423  0828               	movf	??___fladd,w
  3463  0424  00A1               	movwf	___fladd@b+1
  3464  0425                     l2769:
  3465  0425  0876               	movf	___fladd@grs,w
  3466  0426  00A8               	movwf	??___fladd
  3467  0427  0828               	movf	??___fladd,w
  3468  0428  00A5               	movwf	___fladd@a+1
  3469  0429                     l2771:
  3470  0429  0822               	movf	___fladd@b+2,w
  3471  042A  00A8               	movwf	??___fladd
  3472  042B  0828               	movf	??___fladd,w
  3473  042C  00F6               	movwf	___fladd@grs
  3474  042D                     l2773:
  3475  042D  0826               	movf	___fladd@a+2,w
  3476  042E  00A8               	movwf	??___fladd
  3477  042F  0828               	movf	??___fladd,w
  3478  0430  00A2               	movwf	___fladd@b+2
  3479  0431                     l2775:
  3480  0431  0876               	movf	___fladd@grs,w
  3481  0432  00A8               	movwf	??___fladd
  3482  0433  0828               	movf	??___fladd,w
  3483  0434  00A6               	movwf	___fladd@a+2
  3484  0435                     l2777:
  3485  0435  0823               	movf	___fladd@b+3,w
  3486  0436  00A8               	movwf	??___fladd
  3487  0437  0828               	movf	??___fladd,w
  3488  0438  00F6               	movwf	___fladd@grs
  3489  0439                     l2779:
  3490  0439  0827               	movf	___fladd@a+3,w
  3491  043A  00A8               	movwf	??___fladd
  3492  043B  0828               	movf	??___fladd,w
  3493  043C  00A3               	movwf	___fladd@b+3
  3494  043D                     l2781:
  3495  043D  0876               	movf	___fladd@grs,w
  3496  043E  00A8               	movwf	??___fladd
  3497  043F  0828               	movf	??___fladd,w
  3498  0440  00A7               	movwf	___fladd@a+3
  3499  0441                     l2783:
  3500  0441  01F6               	clrf	___fladd@grs
  3501  0442                     l2785:
  3502  0442  0874               	movf	___fladd@aexp,w
  3503  0443  00A8               	movwf	??___fladd
  3504  0444  01A9               	clrf	??___fladd+1
  3505  0445  0829               	movf	??___fladd+1,w
  3506  0446  00AB               	movwf	??___fladd+3
  3507  0447  0875               	movf	___fladd@bexp,w
  3508  0448  0228               	subwf	??___fladd,w
  3509  0449  00AA               	movwf	??___fladd+2
  3510  044A  1C03               	skipc
  3511  044B  03AB               	decf	??___fladd+3,f
  3512  044C  082B               	movf	??___fladd+3,w
  3513  044D  3A80               	xorlw	128
  3514  044E  00FF               	movwf	btemp+1
  3515  044F  3080               	movlw	128
  3516  0450  027F               	subwf	btemp+1,w
  3517  0451  1D03               	skipz
  3518  0452  2C55               	goto	u3415
  3519  0453  301A               	movlw	26
  3520  0454  022A               	subwf	??___fladd+2,w
  3521  0455                     u3415:
  3522  0455  1C03               	skipc
  3523  0456  2C58               	goto	u3411
  3524  0457  2C59               	goto	u3410
  3525  0458                     u3411:
  3526  0458  2C9A               	goto	l2801
  3527  0459                     u3410:
  3528  0459                     l2787:
  3529  0459  1283               	bcf	3,5	;RP0=0, select bank0
  3530  045A  1303               	bcf	3,6	;RP1=0, select bank0
  3531  045B  0823               	movf	___fladd@b+3,w
  3532  045C  0422               	iorwf	___fladd@b+2,w
  3533  045D  0421               	iorwf	___fladd@b+1,w
  3534  045E  0420               	iorwf	___fladd@b,w
  3535  045F  1D03               	skipz
  3536  0460  2C62               	goto	u3421
  3537  0461  2C64               	goto	u3420
  3538  0462                     u3421:
  3539  0462  3001               	movlw	1
  3540  0463  2C65               	goto	u3430
  3541  0464                     u3420:
  3542  0464  3000               	movlw	0
  3543  0465                     u3430:
  3544  0465  00A8               	movwf	??___fladd
  3545  0466  0828               	movf	??___fladd,w
  3546  0467  00F6               	movwf	___fladd@grs
  3547  0468  3000               	movlw	0
  3548  0469  00A3               	movwf	___fladd@b+3
  3549  046A  3000               	movlw	0
  3550  046B  00A2               	movwf	___fladd@b+2
  3551  046C  3000               	movlw	0
  3552  046D  00A1               	movwf	___fladd@b+1
  3553  046E  3000               	movlw	0
  3554  046F  00A0               	movwf	___fladd@b
  3555  0470  0874               	movf	___fladd@aexp,w
  3556  0471  00A8               	movwf	??___fladd
  3557  0472  0828               	movf	??___fladd,w
  3558  0473  00F5               	movwf	___fladd@bexp
  3559  0474  2CA0               	goto	l664
  3560  0475                     l666:
  3561  0475  1C76               	btfss	___fladd@grs,0
  3562  0476  2C78               	goto	u3441
  3563  0477  2C79               	goto	u3440
  3564  0478                     u3441:
  3565  0478  2C84               	goto	l2791
  3566  0479                     u3440:
  3567  0479                     l2789:
  3568  0479  0876               	movf	___fladd@grs,w
  3569  047A  1283               	bcf	3,5	;RP0=0, select bank0
  3570  047B  1303               	bcf	3,6	;RP1=0, select bank0
  3571  047C  00A8               	movwf	??___fladd
  3572  047D  1003               	clrc
  3573  047E  0C28               	rrf	??___fladd,w
  3574  047F  3801               	iorlw	1
  3575  0480  00A9               	movwf	??___fladd+1
  3576  0481  0829               	movf	??___fladd+1,w
  3577  0482  00F6               	movwf	___fladd@grs
  3578  0483  2C86               	goto	l2793
  3579  0484                     l2791:
  3580  0484  1003               	clrc
  3581  0485  0CF6               	rrf	___fladd@grs,f
  3582  0486                     l2793:
  3583  0486  1283               	bcf	3,5	;RP0=0, select bank0
  3584  0487  1303               	bcf	3,6	;RP1=0, select bank0
  3585  0488  1C20               	btfss	___fladd@b,0
  3586  0489  2C8B               	goto	u3451
  3587  048A  2C8C               	goto	u3450
  3588  048B                     u3451:
  3589  048B  2C8D               	goto	l2797
  3590  048C                     u3450:
  3591  048C                     l2795:
  3592  048C  17F6               	bsf	___fladd@grs,7
  3593  048D                     l2797:
  3594  048D  3001               	movlw	1
  3595  048E  00A8               	movwf	??___fladd
  3596  048F                     u3465:
  3597  048F  0D23               	rlf	___fladd@b+3,w
  3598  0490  0CA3               	rrf	___fladd@b+3,f
  3599  0491  0CA2               	rrf	___fladd@b+2,f
  3600  0492  0CA1               	rrf	___fladd@b+1,f
  3601  0493  0CA0               	rrf	___fladd@b,f
  3602  0494  0BA8               	decfsz	??___fladd& (0+127),f
  3603  0495  2C8F               	goto	u3465
  3604  0496                     l2799:
  3605  0496  3001               	movlw	1
  3606  0497  00A8               	movwf	??___fladd
  3607  0498  0828               	movf	??___fladd,w
  3608  0499  07F5               	addwf	___fladd@bexp,f
  3609  049A                     l2801:
  3610  049A  0874               	movf	___fladd@aexp,w
  3611  049B  0275               	subwf	___fladd@bexp,w
  3612  049C  1C03               	skipc
  3613  049D  2C9F               	goto	u3471
  3614  049E  2CA0               	goto	u3470
  3615  049F                     u3471:
  3616  049F  2C75               	goto	l666
  3617  04A0                     u3470:
  3618  04A0                     l664:
  3619  04A0  1B73               	btfsc	___fladd@signs,6
  3620  04A1  2CA3               	goto	u3481
  3621  04A2  2CA4               	goto	u3480
  3622  04A3                     u3481:
  3623  04A3  2CF3               	goto	l2827
  3624  04A4                     u3480:
  3625  04A4                     l2803:
  3626  04A4  0875               	movf	___fladd@bexp,w
  3627  04A5  1D03               	btfss	3,2
  3628  04A6  2CA8               	goto	u3491
  3629  04A7  2CA9               	goto	u3490
  3630  04A8                     u3491:
  3631  04A8  2CB4               	goto	l2809
  3632  04A9                     u3490:
  3633  04A9                     l2805:
  3634  04A9  3000               	movlw	0
  3635  04AA  1283               	bcf	3,5	;RP0=0, select bank0
  3636  04AB  1303               	bcf	3,6	;RP1=0, select bank0
  3637  04AC  00A3               	movwf	?___fladd+3
  3638  04AD  3000               	movlw	0
  3639  04AE  00A2               	movwf	?___fladd+2
  3640  04AF  3000               	movlw	0
  3641  04B0  00A1               	movwf	?___fladd+1
  3642  04B1  3000               	movlw	0
  3643  04B2  00A0               	movwf	?___fladd
  3644  04B3  2E23               	goto	l673
  3645  04B4                     l2809:
  3646  04B4  1283               	bcf	3,5	;RP0=0, select bank0
  3647  04B5  1303               	bcf	3,6	;RP1=0, select bank0
  3648  04B6  0824               	movf	___fladd@a,w
  3649  04B7  07A0               	addwf	___fladd@b,f
  3650  04B8  0825               	movf	___fladd@a+1,w
  3651  04B9  1103               	clrz
  3652  04BA  1803               	skipnc
  3653  04BB  3E01               	addlw	1
  3654  04BC  1903               	skipnz
  3655  04BD  2CBF               	goto	u3501
  3656  04BE  07A1               	addwf	___fladd@b+1,f
  3657  04BF                     u3501:
  3658  04BF  0826               	movf	___fladd@a+2,w
  3659  04C0  1103               	clrz
  3660  04C1  1803               	skipnc
  3661  04C2  3E01               	addlw	1
  3662  04C3  1903               	skipnz
  3663  04C4  2CC6               	goto	u3502
  3664  04C5  07A2               	addwf	___fladd@b+2,f
  3665  04C6                     u3502:
  3666  04C6  0827               	movf	___fladd@a+3,w
  3667  04C7  1103               	clrz
  3668  04C8  1803               	skipnc
  3669  04C9  3E01               	addlw	1
  3670  04CA  1903               	skipnz
  3671  04CB  2CCD               	goto	u3503
  3672  04CC  07A3               	addwf	___fladd@b+3,f
  3673  04CD                     u3503:
  3674  04CD                     l2811:
  3675  04CD  1C23               	btfss	___fladd@b+3,0
  3676  04CE  2CD0               	goto	u3511
  3677  04CF  2CD1               	goto	u3510
  3678  04D0                     u3511:
  3679  04D0  2DA9               	goto	l2861
  3680  04D1                     u3510:
  3681  04D1                     l2813:
  3682  04D1  1C76               	btfss	___fladd@grs,0
  3683  04D2  2CD4               	goto	u3521
  3684  04D3  2CD5               	goto	u3520
  3685  04D4                     u3521:
  3686  04D4  2CDE               	goto	l2817
  3687  04D5                     u3520:
  3688  04D5                     l2815:
  3689  04D5  0876               	movf	___fladd@grs,w
  3690  04D6  00A8               	movwf	??___fladd
  3691  04D7  1003               	clrc
  3692  04D8  0C28               	rrf	??___fladd,w
  3693  04D9  3801               	iorlw	1
  3694  04DA  00A9               	movwf	??___fladd+1
  3695  04DB  0829               	movf	??___fladd+1,w
  3696  04DC  00F6               	movwf	___fladd@grs
  3697  04DD  2CE0               	goto	l2819
  3698  04DE                     l2817:
  3699  04DE  1003               	clrc
  3700  04DF  0CF6               	rrf	___fladd@grs,f
  3701  04E0                     l2819:
  3702  04E0  1C20               	btfss	___fladd@b,0
  3703  04E1  2CE3               	goto	u3531
  3704  04E2  2CE4               	goto	u3530
  3705  04E3                     u3531:
  3706  04E3  2CE5               	goto	l2823
  3707  04E4                     u3530:
  3708  04E4                     l2821:
  3709  04E4  17F6               	bsf	___fladd@grs,7
  3710  04E5                     l2823:
  3711  04E5  3001               	movlw	1
  3712  04E6  00A8               	movwf	??___fladd
  3713  04E7                     u3545:
  3714  04E7  0D23               	rlf	___fladd@b+3,w
  3715  04E8  0CA3               	rrf	___fladd@b+3,f
  3716  04E9  0CA2               	rrf	___fladd@b+2,f
  3717  04EA  0CA1               	rrf	___fladd@b+1,f
  3718  04EB  0CA0               	rrf	___fladd@b,f
  3719  04EC  0BA8               	decfsz	??___fladd& (0+127),f
  3720  04ED  2CE7               	goto	u3545
  3721  04EE                     l2825:
  3722  04EE  3001               	movlw	1
  3723  04EF  00A8               	movwf	??___fladd
  3724  04F0  0828               	movf	??___fladd,w
  3725  04F1  07F5               	addwf	___fladd@bexp,f
  3726  04F2  2DA9               	goto	l2861
  3727  04F3                     l2827:
  3728  04F3  1283               	bcf	3,5	;RP0=0, select bank0
  3729  04F4  1303               	bcf	3,6	;RP1=0, select bank0
  3730  04F5  0823               	movf	___fladd@b+3,w
  3731  04F6  3A80               	xorlw	128
  3732  04F7  00FF               	movwf	btemp+1
  3733  04F8  0827               	movf	___fladd@a+3,w
  3734  04F9  3A80               	xorlw	128
  3735  04FA  027F               	subwf	btemp+1,w
  3736  04FB  1D03               	skipz
  3737  04FC  2D07               	goto	u3553
  3738  04FD  0826               	movf	___fladd@a+2,w
  3739  04FE  0222               	subwf	___fladd@b+2,w
  3740  04FF  1D03               	skipz
  3741  0500  2D07               	goto	u3553
  3742  0501  0825               	movf	___fladd@a+1,w
  3743  0502  0221               	subwf	___fladd@b+1,w
  3744  0503  1D03               	skipz
  3745  0504  2D07               	goto	u3553
  3746  0505  0824               	movf	___fladd@a,w
  3747  0506  0220               	subwf	___fladd@b,w
  3748  0507                     u3553:
  3749  0507  1803               	skipnc
  3750  0508  2D0A               	goto	u3551
  3751  0509  2D0B               	goto	u3550
  3752  050A                     u3551:
  3753  050A  2D63               	goto	l2837
  3754  050B                     u3550:
  3755  050B                     l2829:
  3756  050B  30FF               	movlw	255
  3757  050C  00A8               	movwf	??___fladd
  3758  050D  30FF               	movlw	255
  3759  050E  00A9               	movwf	??___fladd+1
  3760  050F  30FF               	movlw	255
  3761  0510  00AA               	movwf	??___fladd+2
  3762  0511  30FF               	movlw	255
  3763  0512  00AB               	movwf	??___fladd+3
  3764  0513  0824               	movf	___fladd@a,w
  3765  0514  00AC               	movwf	??___fladd+4
  3766  0515  0825               	movf	___fladd@a+1,w
  3767  0516  00AD               	movwf	??___fladd+5
  3768  0517  0826               	movf	___fladd@a+2,w
  3769  0518  00AE               	movwf	??___fladd+6
  3770  0519  0827               	movf	___fladd@a+3,w
  3771  051A  00AF               	movwf	??___fladd+7
  3772  051B  0820               	movf	___fladd@b,w
  3773  051C  02AC               	subwf	??___fladd+4,f
  3774  051D  0821               	movf	___fladd@b+1,w
  3775  051E  1C03               	skipc
  3776  051F  0F21               	incfsz	___fladd@b+1,w
  3777  0520  2D22               	goto	u3561
  3778  0521  2D23               	goto	u3562
  3779  0522                     u3561:
  3780  0522  02AD               	subwf	??___fladd+5,f
  3781  0523                     u3562:
  3782  0523  0822               	movf	___fladd@b+2,w
  3783  0524  1C03               	skipc
  3784  0525  0F22               	incfsz	___fladd@b+2,w
  3785  0526  2D28               	goto	u3563
  3786  0527  2D29               	goto	u3564
  3787  0528                     u3563:
  3788  0528  02AE               	subwf	??___fladd+6,f
  3789  0529                     u3564:
  3790  0529  0823               	movf	___fladd@b+3,w
  3791  052A  1C03               	skipc
  3792  052B  0F23               	incfsz	___fladd@b+3,w
  3793  052C  2D2E               	goto	u3565
  3794  052D  2D2F               	goto	u3566
  3795  052E                     u3565:
  3796  052E  02AF               	subwf	??___fladd+7,f
  3797  052F                     u3566:
  3798  052F  082C               	movf	??___fladd+4,w
  3799  0530  07A8               	addwf	??___fladd,f
  3800  0531  082D               	movf	??___fladd+5,w
  3801  0532  1803               	skipnc
  3802  0533  0F2D               	incfsz	??___fladd+5,w
  3803  0534  2D36               	goto	u3570
  3804  0535  2D37               	goto	u3571
  3805  0536                     u3570:
  3806  0536  07A9               	addwf	??___fladd+1,f
  3807  0537                     u3571:
  3808  0537  082E               	movf	??___fladd+6,w
  3809  0538  1803               	skipnc
  3810  0539  0F2E               	incfsz	??___fladd+6,w
  3811  053A  2D3C               	goto	u3572
  3812  053B  2D3D               	goto	u3573
  3813  053C                     u3572:
  3814  053C  07AA               	addwf	??___fladd+2,f
  3815  053D                     u3573:
  3816  053D  082F               	movf	??___fladd+7,w
  3817  053E  1803               	skipnc
  3818  053F  0A2F               	incf	??___fladd+7,w
  3819  0540  07AB               	addwf	??___fladd+3,f
  3820  0541  082B               	movf	??___fladd+3,w
  3821  0542  00A3               	movwf	___fladd@b+3
  3822  0543  082A               	movf	??___fladd+2,w
  3823  0544  00A2               	movwf	___fladd@b+2
  3824  0545  0829               	movf	??___fladd+1,w
  3825  0546  00A1               	movwf	___fladd@b+1
  3826  0547  0828               	movf	??___fladd,w
  3827  0548  00A0               	movwf	___fladd@b
  3828  0549                     l2831:
  3829  0549  3080               	movlw	128
  3830  054A  00A8               	movwf	??___fladd
  3831  054B  0828               	movf	??___fladd,w
  3832  054C  06F3               	xorwf	___fladd@signs,f
  3833  054D  09F6               	comf	___fladd@grs,f
  3834  054E  0AF6               	incf	___fladd@grs,f
  3835  054F                     l2833:
  3836  054F  0876               	movf	___fladd@grs,w
  3837  0550  1D03               	btfss	3,2
  3838  0551  2D53               	goto	u3581
  3839  0552  2D54               	goto	u3580
  3840  0553                     u3581:
  3841  0553  2D71               	goto	l681
  3842  0554                     u3580:
  3843  0554                     l2835:
  3844  0554  3001               	movlw	1
  3845  0555  07A0               	addwf	___fladd@b,f
  3846  0556  3000               	movlw	0
  3847  0557  1803               	skipnc
  3848  0558  3001               	movlw	1
  3849  0559  07A1               	addwf	___fladd@b+1,f
  3850  055A  3000               	movlw	0
  3851  055B  1803               	skipnc
  3852  055C  3001               	movlw	1
  3853  055D  07A2               	addwf	___fladd@b+2,f
  3854  055E  3000               	movlw	0
  3855  055F  1803               	skipnc
  3856  0560  3001               	movlw	1
  3857  0561  07A3               	addwf	___fladd@b+3,f
  3858  0562  2D71               	goto	l681
  3859  0563                     l2837:
  3860  0563  0824               	movf	___fladd@a,w
  3861  0564  02A0               	subwf	___fladd@b,f
  3862  0565  0825               	movf	___fladd@a+1,w
  3863  0566  1C03               	skipc
  3864  0567  0F25               	incfsz	___fladd@a+1,w
  3865  0568  02A1               	subwf	___fladd@b+1,f
  3866  0569  0826               	movf	___fladd@a+2,w
  3867  056A  1C03               	skipc
  3868  056B  0F26               	incfsz	___fladd@a+2,w
  3869  056C  02A2               	subwf	___fladd@b+2,f
  3870  056D  0827               	movf	___fladd@a+3,w
  3871  056E  1C03               	skipc
  3872  056F  0F27               	incfsz	___fladd@a+3,w
  3873  0570  02A3               	subwf	___fladd@b+3,f
  3874  0571                     l681:
  3875  0571  0823               	movf	___fladd@b+3,w
  3876  0572  0422               	iorwf	___fladd@b+2,w
  3877  0573  0421               	iorwf	___fladd@b+1,w
  3878  0574  0420               	iorwf	___fladd@b,w
  3879  0575  1D03               	skipz
  3880  0576  2D78               	goto	u3591
  3881  0577  2D79               	goto	u3590
  3882  0578                     u3591:
  3883  0578  2DA5               	goto	l2859
  3884  0579                     u3590:
  3885  0579                     l2839:
  3886  0579  0876               	movf	___fladd@grs,w
  3887  057A  1D03               	btfss	3,2
  3888  057B  2D7D               	goto	u3601
  3889  057C  2D7E               	goto	u3600
  3890  057D                     u3601:
  3891  057D  2DA5               	goto	l2859
  3892  057E                     u3600:
  3893  057E                     l2841:
  3894  057E  3000               	movlw	0
  3895  057F  00A3               	movwf	?___fladd+3
  3896  0580  3000               	movlw	0
  3897  0581  00A2               	movwf	?___fladd+2
  3898  0582  3000               	movlw	0
  3899  0583  00A1               	movwf	?___fladd+1
  3900  0584  3000               	movlw	0
  3901  0585  00A0               	movwf	?___fladd
  3902  0586  2E23               	goto	l673
  3903  0587                     l2845:
  3904  0587  3001               	movlw	1
  3905  0588  00A8               	movwf	??___fladd
  3906  0589                     u3615:
  3907  0589  1003               	clrc
  3908  058A  0DA0               	rlf	___fladd@b,f
  3909  058B  0DA1               	rlf	___fladd@b+1,f
  3910  058C  0DA2               	rlf	___fladd@b+2,f
  3911  058D  0DA3               	rlf	___fladd@b+3,f
  3912  058E  0BA8               	decfsz	??___fladd,f
  3913  058F  2D89               	goto	u3615
  3914  0590                     l2847:
  3915  0590  1FF6               	btfss	___fladd@grs,7
  3916  0591  2D93               	goto	u3621
  3917  0592  2D94               	goto	u3620
  3918  0593                     u3621:
  3919  0593  2D95               	goto	l685
  3920  0594                     u3620:
  3921  0594                     l2849:
  3922  0594  1420               	bsf	___fladd@b,0
  3923  0595                     l685:
  3924  0595  1C76               	btfss	___fladd@grs,0
  3925  0596  2D98               	goto	u3631
  3926  0597  2D99               	goto	u3630
  3927  0598                     u3631:
  3928  0598  2D9C               	goto	l2853
  3929  0599                     u3630:
  3930  0599                     l2851:
  3931  0599  1403               	setc
  3932  059A  0DF6               	rlf	___fladd@grs,f
  3933  059B  2D9E               	goto	l2855
  3934  059C                     l2853:
  3935  059C  1003               	clrc
  3936  059D  0DF6               	rlf	___fladd@grs,f
  3937  059E                     l2855:
  3938  059E  0875               	movf	___fladd@bexp,w
  3939  059F  1903               	btfsc	3,2
  3940  05A0  2DA2               	goto	u3641
  3941  05A1  2DA3               	goto	u3640
  3942  05A2                     u3641:
  3943  05A2  2DA5               	goto	l2859
  3944  05A3                     u3640:
  3945  05A3                     l2857:
  3946  05A3  3001               	movlw	1
  3947  05A4  02F5               	subwf	___fladd@bexp,f
  3948  05A5                     l2859:
  3949  05A5  1FA2               	btfss	___fladd@b+2,7
  3950  05A6  2DA8               	goto	u3651
  3951  05A7  2DA9               	goto	u3650
  3952  05A8                     u3651:
  3953  05A8  2D87               	goto	l2845
  3954  05A9                     u3650:
  3955  05A9                     l2861:
  3956  05A9  01F4               	clrf	___fladd@aexp
  3957  05AA                     l2863:
  3958  05AA  1FF6               	btfss	___fladd@grs,7
  3959  05AB  2DAD               	goto	u3661
  3960  05AC  2DAE               	goto	u3660
  3961  05AD                     u3661:
  3962  05AD  2DBC               	goto	l2871
  3963  05AE                     u3660:
  3964  05AE                     l2865:
  3965  05AE  0876               	movf	___fladd@grs,w
  3966  05AF  397F               	andlw	127
  3967  05B0  1903               	btfsc	3,2
  3968  05B1  2DB3               	goto	u3671
  3969  05B2  2DB4               	goto	u3670
  3970  05B3                     u3671:
  3971  05B3  2DB7               	goto	l691
  3972  05B4                     u3670:
  3973  05B4                     l2867:
  3974  05B4  01F4               	clrf	___fladd@aexp
  3975  05B5  0AF4               	incf	___fladd@aexp,f
  3976  05B6  2DBC               	goto	l2871
  3977  05B7                     l691:
  3978  05B7  1C20               	btfss	___fladd@b,0
  3979  05B8  2DBA               	goto	u3681
  3980  05B9  2DBB               	goto	u3680
  3981  05BA                     u3681:
  3982  05BA  2DBC               	goto	l2871
  3983  05BB                     u3680:
  3984  05BB  2DB4               	goto	l2867
  3985  05BC                     l2871:
  3986  05BC  0874               	movf	___fladd@aexp,w
  3987  05BD  1903               	btfsc	3,2
  3988  05BE  2DC0               	goto	u3691
  3989  05BF  2DC1               	goto	u3690
  3990  05C0                     u3691:
  3991  05C0  2DF5               	goto	l694
  3992  05C1                     u3690:
  3993  05C1                     l2873:
  3994  05C1  3001               	movlw	1
  3995  05C2  07A0               	addwf	___fladd@b,f
  3996  05C3  3000               	movlw	0
  3997  05C4  1803               	skipnc
  3998  05C5  3001               	movlw	1
  3999  05C6  07A1               	addwf	___fladd@b+1,f
  4000  05C7  3000               	movlw	0
  4001  05C8  1803               	skipnc
  4002  05C9  3001               	movlw	1
  4003  05CA  07A2               	addwf	___fladd@b+2,f
  4004  05CB  3000               	movlw	0
  4005  05CC  1803               	skipnc
  4006  05CD  3001               	movlw	1
  4007  05CE  07A3               	addwf	___fladd@b+3,f
  4008  05CF                     l2875:
  4009  05CF  1C23               	btfss	___fladd@b+3,0
  4010  05D0  2DD2               	goto	u3701
  4011  05D1  2DD3               	goto	u3700
  4012  05D2                     u3701:
  4013  05D2  2DF5               	goto	l694
  4014  05D3                     u3700:
  4015  05D3                     l2877:
  4016  05D3  0820               	movf	___fladd@b,w
  4017  05D4  00A8               	movwf	??___fladd
  4018  05D5  0821               	movf	___fladd@b+1,w
  4019  05D6  00A9               	movwf	??___fladd+1
  4020  05D7  0822               	movf	___fladd@b+2,w
  4021  05D8  00AA               	movwf	??___fladd+2
  4022  05D9  0823               	movf	___fladd@b+3,w
  4023  05DA  00AB               	movwf	??___fladd+3
  4024  05DB  3001               	movlw	1
  4025  05DC  00AC               	movwf	??___fladd+4
  4026  05DD                     u3715:
  4027  05DD  0D2B               	rlf	??___fladd+3,w
  4028  05DE  0CAB               	rrf	??___fladd+3,f
  4029  05DF  0CAA               	rrf	??___fladd+2,f
  4030  05E0  0CA9               	rrf	??___fladd+1,f
  4031  05E1  0CA8               	rrf	??___fladd,f
  4032  05E2                     u3710:
  4033  05E2  0BAC               	decfsz	??___fladd+4,f
  4034  05E3  2DDD               	goto	u3715
  4035  05E4  082B               	movf	??___fladd+3,w
  4036  05E5  00A3               	movwf	___fladd@b+3
  4037  05E6  082A               	movf	??___fladd+2,w
  4038  05E7  00A2               	movwf	___fladd@b+2
  4039  05E8  0829               	movf	??___fladd+1,w
  4040  05E9  00A1               	movwf	___fladd@b+1
  4041  05EA  0828               	movf	??___fladd,w
  4042  05EB  00A0               	movwf	___fladd@b
  4043  05EC  0A75               	incf	___fladd@bexp,w
  4044  05ED  1903               	btfsc	3,2
  4045  05EE  2DF0               	goto	u3721
  4046  05EF  2DF1               	goto	u3720
  4047  05F0                     u3721:
  4048  05F0  2DF5               	goto	l694
  4049  05F1                     u3720:
  4050  05F1                     l2879:
  4051  05F1  3001               	movlw	1
  4052  05F2  00A8               	movwf	??___fladd
  4053  05F3  0828               	movf	??___fladd,w
  4054  05F4  07F5               	addwf	___fladd@bexp,f
  4055  05F5                     l694:
  4056  05F5  0A75               	incf	___fladd@bexp,w
  4057  05F6  1903               	btfsc	3,2
  4058  05F7  2DF9               	goto	u3731
  4059  05F8  2DFA               	goto	u3730
  4060  05F9                     u3731:
  4061  05F9  2DFF               	goto	l2883
  4062  05FA                     u3730:
  4063  05FA                     l2881:
  4064  05FA  0875               	movf	___fladd@bexp,w
  4065  05FB  1D03               	btfss	3,2
  4066  05FC  2DFE               	goto	u3741
  4067  05FD  2DFF               	goto	u3740
  4068  05FE                     u3741:
  4069  05FE  2E0D               	goto	l2889
  4070  05FF                     u3740:
  4071  05FF                     l2883:
  4072  05FF  3000               	movlw	0
  4073  0600  00A3               	movwf	___fladd@b+3
  4074  0601  3000               	movlw	0
  4075  0602  00A2               	movwf	___fladd@b+2
  4076  0603  3000               	movlw	0
  4077  0604  00A1               	movwf	___fladd@b+1
  4078  0605  3000               	movlw	0
  4079  0606  00A0               	movwf	___fladd@b
  4080  0607                     l2885:
  4081  0607  0875               	movf	___fladd@bexp,w
  4082  0608  1D03               	btfss	3,2
  4083  0609  2E0B               	goto	u3751
  4084  060A  2E0C               	goto	u3750
  4085  060B                     u3751:
  4086  060B  2E0D               	goto	l2889
  4087  060C                     u3750:
  4088  060C                     l2887:
  4089  060C  01F3               	clrf	___fladd@signs
  4090  060D                     l2889:
  4091  060D  1C75               	btfss	___fladd@bexp,0
  4092  060E  2E10               	goto	u3761
  4093  060F  2E11               	goto	u3760
  4094  0610                     u3761:
  4095  0610  2E13               	goto	l2893
  4096  0611                     u3760:
  4097  0611                     l2891:
  4098  0611  17A2               	bsf	___fladd@b+2,7
  4099  0612  2E17               	goto	l702
  4100  0613                     l2893:
  4101  0613  307F               	movlw	127
  4102  0614  00A8               	movwf	??___fladd
  4103  0615  0828               	movf	??___fladd,w
  4104  0616  05A2               	andwf	___fladd@b+2,f
  4105  0617                     l702:
  4106  0617  0875               	movf	___fladd@bexp,w
  4107  0618  00A8               	movwf	??___fladd
  4108  0619  1003               	clrc
  4109  061A  0C28               	rrf	??___fladd,w
  4110  061B  00A9               	movwf	??___fladd+1
  4111  061C  0829               	movf	??___fladd+1,w
  4112  061D  00A3               	movwf	___fladd@b+3
  4113  061E                     l2895:
  4114  061E  1FF3               	btfss	___fladd@signs,7
  4115  061F  2E21               	goto	u3771
  4116  0620  2E22               	goto	u3770
  4117  0621                     u3771:
  4118  0621  2E23               	goto	l703
  4119  0622                     u3770:
  4120  0622                     l2897:
  4121  0622  17A3               	bsf	___fladd@b+3,7
  4122  0623                     l703:
  4123  0623                     l673:
  4124  0623  0008               	return
  4125  0624                     __end_of___fladd:
  4126                           
  4127                           	psect	text10
  4128  0033                     __ptext10:	
  4129 ;; *************** function ___flmul *****************
  4130 ;; Defined at:
  4131 ;;		line 8 in file "C:\Program Files\Microchip\xc8\v2.31\pic\sources\c90\common\sprcmul.c"
  4132 ;; Parameters:    Size  Location     Type
  4133 ;;  b               4   10[BANK0 ] unsigned char 
  4134 ;;  a               4   14[BANK0 ] unsigned char 
  4135 ;; Auto vars:     Size  Location     Type
  4136 ;;  prod            4   30[BANK0 ] struct .
  4137 ;;  grs             4   24[BANK0 ] unsigned long 
  4138 ;;  temp            2   34[BANK0 ] struct .
  4139 ;;  bexp            1   29[BANK0 ] unsigned char 
  4140 ;;  aexp            1   28[BANK0 ] unsigned char 
  4141 ;;  sign            1   23[BANK0 ] unsigned char 
  4142 ;; Return value:  Size  Location     Type
  4143 ;;                  4   10[BANK0 ] unsigned char 
  4144 ;; Registers used:
  4145 ;;		wreg, status,2, status,0, btemp+1, pclath, cstack
  4146 ;; Tracked objects:
  4147 ;;		On entry : 0/0
  4148 ;;		On exit  : 0/0
  4149 ;;		Unchanged: 0/0
  4150 ;; Data sizes:     COMMON   BANK0   BANK1   BANK3   BANK2
  4151 ;;      Params:         0       8       0       0       0
  4152 ;;      Locals:         0      13       0       0       0
  4153 ;;      Temps:          0       5       0       0       0
  4154 ;;      Totals:         0      26       0       0       0
  4155 ;;Total ram usage:       26 bytes
  4156 ;; Hardware stack levels used:    1
  4157 ;; Hardware stack levels required when called:    2
  4158 ;; This function calls:
  4159 ;;		__Umul8_16
  4160 ;; This function is called by:
  4161 ;;		_main
  4162 ;;		_floToChar
  4163 ;; This function uses a non-reentrant model
  4164 ;;
  4165                           
  4166                           
  4167                           ;psect for function ___flmul
  4168  0033                     ___flmul:
  4169  0033                     l2183:	
  4170                           ;incstack = 0
  4171                           ; Regs used in ___flmul: [wreg+status,2+status,0+btemp+1+pclath+cstack]
  4172                           
  4173  0033  1283               	bcf	3,5	;RP0=0, select bank0
  4174  0034  1303               	bcf	3,6	;RP1=0, select bank0
  4175  0035  082D               	movf	___flmul@b+3,w
  4176  0036  3980               	andlw	128
  4177  0037  00B2               	movwf	??___flmul
  4178  0038  0832               	movf	??___flmul,w
  4179  0039  00B7               	movwf	___flmul@sign
  4180  003A                     l2185:
  4181  003A  082D               	movf	___flmul@b+3,w
  4182  003B  00B2               	movwf	??___flmul
  4183  003C  0732               	addwf	??___flmul,w
  4184  003D  00B3               	movwf	??___flmul+1
  4185  003E  0833               	movf	??___flmul+1,w
  4186  003F  00BD               	movwf	___flmul@bexp
  4187  0040                     l2187:
  4188  0040  1FAC               	btfss	___flmul@b+2,7
  4189  0041  2843               	goto	u2471
  4190  0042  2844               	goto	u2470
  4191  0043                     u2471:
  4192  0043  2845               	goto	l2191
  4193  0044                     u2470:
  4194  0044                     l2189:
  4195  0044  143D               	bsf	___flmul@bexp,0
  4196  0045                     l2191:
  4197  0045  083D               	movf	___flmul@bexp,w
  4198  0046  1903               	btfsc	3,2
  4199  0047  2849               	goto	u2481
  4200  0048  284A               	goto	u2480
  4201  0049                     u2481:
  4202  0049  2859               	goto	l2199
  4203  004A                     u2480:
  4204  004A                     l2193:
  4205  004A  0A3D               	incf	___flmul@bexp,w
  4206  004B  1D03               	btfss	3,2
  4207  004C  284E               	goto	u2491
  4208  004D  284F               	goto	u2490
  4209  004E                     u2491:
  4210  004E  2857               	goto	l2197
  4211  004F                     u2490:
  4212  004F                     l2195:
  4213  004F  3000               	movlw	0
  4214  0050  00AD               	movwf	___flmul@b+3
  4215  0051  3000               	movlw	0
  4216  0052  00AC               	movwf	___flmul@b+2
  4217  0053  3000               	movlw	0
  4218  0054  00AB               	movwf	___flmul@b+1
  4219  0055  3000               	movlw	0
  4220  0056  00AA               	movwf	___flmul@b
  4221  0057                     l2197:
  4222  0057  17AC               	bsf	___flmul@b+2,7
  4223  0058  2861               	goto	l2201
  4224  0059                     l2199:
  4225  0059  3000               	movlw	0
  4226  005A  00AD               	movwf	___flmul@b+3
  4227  005B  3000               	movlw	0
  4228  005C  00AC               	movwf	___flmul@b+2
  4229  005D  3000               	movlw	0
  4230  005E  00AB               	movwf	___flmul@b+1
  4231  005F  3000               	movlw	0
  4232  0060  00AA               	movwf	___flmul@b
  4233  0061                     l2201:
  4234  0061  0831               	movf	___flmul@a+3,w
  4235  0062  3980               	andlw	128
  4236  0063  00B2               	movwf	??___flmul
  4237  0064  0832               	movf	??___flmul,w
  4238  0065  06B7               	xorwf	___flmul@sign,f
  4239  0066                     l2203:
  4240  0066  0831               	movf	___flmul@a+3,w
  4241  0067  00B2               	movwf	??___flmul
  4242  0068  0732               	addwf	??___flmul,w
  4243  0069  00B3               	movwf	??___flmul+1
  4244  006A  0833               	movf	??___flmul+1,w
  4245  006B  00BC               	movwf	___flmul@aexp
  4246  006C                     l2205:
  4247  006C  1FB0               	btfss	___flmul@a+2,7
  4248  006D  286F               	goto	u2501
  4249  006E  2870               	goto	u2500
  4250  006F                     u2501:
  4251  006F  2871               	goto	l2209
  4252  0070                     u2500:
  4253  0070                     l2207:
  4254  0070  143C               	bsf	___flmul@aexp,0
  4255  0071                     l2209:
  4256  0071  083C               	movf	___flmul@aexp,w
  4257  0072  1903               	btfsc	3,2
  4258  0073  2875               	goto	u2511
  4259  0074  2876               	goto	u2510
  4260  0075                     u2511:
  4261  0075  2885               	goto	l2217
  4262  0076                     u2510:
  4263  0076                     l2211:
  4264  0076  0A3C               	incf	___flmul@aexp,w
  4265  0077  1D03               	btfss	3,2
  4266  0078  287A               	goto	u2521
  4267  0079  287B               	goto	u2520
  4268  007A                     u2521:
  4269  007A  2883               	goto	l2215
  4270  007B                     u2520:
  4271  007B                     l2213:
  4272  007B  3000               	movlw	0
  4273  007C  00B1               	movwf	___flmul@a+3
  4274  007D  3000               	movlw	0
  4275  007E  00B0               	movwf	___flmul@a+2
  4276  007F  3000               	movlw	0
  4277  0080  00AF               	movwf	___flmul@a+1
  4278  0081  3000               	movlw	0
  4279  0082  00AE               	movwf	___flmul@a
  4280  0083                     l2215:
  4281  0083  17B0               	bsf	___flmul@a+2,7
  4282  0084  288D               	goto	l2219
  4283  0085                     l2217:
  4284  0085  3000               	movlw	0
  4285  0086  00B1               	movwf	___flmul@a+3
  4286  0087  3000               	movlw	0
  4287  0088  00B0               	movwf	___flmul@a+2
  4288  0089  3000               	movlw	0
  4289  008A  00AF               	movwf	___flmul@a+1
  4290  008B  3000               	movlw	0
  4291  008C  00AE               	movwf	___flmul@a
  4292  008D                     l2219:
  4293  008D  083C               	movf	___flmul@aexp,w
  4294  008E  1903               	btfsc	3,2
  4295  008F  2891               	goto	u2531
  4296  0090  2892               	goto	u2530
  4297  0091                     u2531:
  4298  0091  2897               	goto	l2223
  4299  0092                     u2530:
  4300  0092                     l2221:
  4301  0092  083D               	movf	___flmul@bexp,w
  4302  0093  1D03               	btfss	3,2
  4303  0094  2896               	goto	u2541
  4304  0095  2897               	goto	u2540
  4305  0096                     u2541:
  4306  0096  28A0               	goto	l2227
  4307  0097                     u2540:
  4308  0097                     l2223:
  4309  0097  3000               	movlw	0
  4310  0098  00AD               	movwf	?___flmul+3
  4311  0099  3000               	movlw	0
  4312  009A  00AC               	movwf	?___flmul+2
  4313  009B  3000               	movlw	0
  4314  009C  00AB               	movwf	?___flmul+1
  4315  009D  3000               	movlw	0
  4316  009E  00AA               	movwf	?___flmul
  4317  009F  2B93               	goto	l756
  4318  00A0                     l2227:
  4319  00A0  082A               	movf	___flmul@b,w
  4320  00A1  00B2               	movwf	??___flmul
  4321  00A2  0832               	movf	??___flmul,w
  4322  00A3  00F3               	movwf	__Umul8_16@multiplicand
  4323  00A4  0830               	movf	___flmul@a+2,w
  4324  00A5  120A  158A  229E  120A  118A  	fcall	__Umul8_16
  4325  00AA  0874               	movf	?__Umul8_16+1,w
  4326  00AB  1283               	bcf	3,5	;RP0=0, select bank0
  4327  00AC  1303               	bcf	3,6	;RP1=0, select bank0
  4328  00AD  00C3               	movwf	___flmul@temp+1
  4329  00AE  0873               	movf	?__Umul8_16,w
  4330  00AF  00C2               	movwf	___flmul@temp
  4331  00B0                     l2229:
  4332  00B0  0842               	movf	___flmul@temp,w
  4333  00B1  00B2               	movwf	??___flmul
  4334  00B2  01B3               	clrf	??___flmul+1
  4335  00B3  01B4               	clrf	??___flmul+2
  4336  00B4  01B5               	clrf	??___flmul+3
  4337  00B5  0835               	movf	??___flmul+3,w
  4338  00B6  00BB               	movwf	___flmul@grs+3
  4339  00B7  0834               	movf	??___flmul+2,w
  4340  00B8  00BA               	movwf	___flmul@grs+2
  4341  00B9  0833               	movf	??___flmul+1,w
  4342  00BA  00B9               	movwf	___flmul@grs+1
  4343  00BB  0832               	movf	??___flmul,w
  4344  00BC  00B8               	movwf	___flmul@grs
  4345  00BD                     l2231:
  4346  00BD  0843               	movf	___flmul@temp+1,w
  4347  00BE  00B2               	movwf	??___flmul
  4348  00BF  01B3               	clrf	??___flmul+1
  4349  00C0  01B4               	clrf	??___flmul+2
  4350  00C1  01B5               	clrf	??___flmul+3
  4351  00C2  0835               	movf	??___flmul+3,w
  4352  00C3  00C1               	movwf	___flmul@prod+3
  4353  00C4  0834               	movf	??___flmul+2,w
  4354  00C5  00C0               	movwf	___flmul@prod+2
  4355  00C6  0833               	movf	??___flmul+1,w
  4356  00C7  00BF               	movwf	___flmul@prod+1
  4357  00C8  0832               	movf	??___flmul,w
  4358  00C9  00BE               	movwf	___flmul@prod
  4359  00CA  082B               	movf	___flmul@b+1,w
  4360  00CB  00B2               	movwf	??___flmul
  4361  00CC  0832               	movf	??___flmul,w
  4362  00CD  00F3               	movwf	__Umul8_16@multiplicand
  4363  00CE  082F               	movf	___flmul@a+1,w
  4364  00CF  120A  158A  229E  120A  118A  	fcall	__Umul8_16
  4365  00D4  0874               	movf	?__Umul8_16+1,w
  4366  00D5  1283               	bcf	3,5	;RP0=0, select bank0
  4367  00D6  1303               	bcf	3,6	;RP1=0, select bank0
  4368  00D7  00C3               	movwf	___flmul@temp+1
  4369  00D8  0873               	movf	?__Umul8_16,w
  4370  00D9  00C2               	movwf	___flmul@temp
  4371  00DA                     l2233:
  4372  00DA  0842               	movf	___flmul@temp,w
  4373  00DB  00B2               	movwf	??___flmul
  4374  00DC  01B3               	clrf	??___flmul+1
  4375  00DD  01B4               	clrf	??___flmul+2
  4376  00DE  01B5               	clrf	??___flmul+3
  4377  00DF  0832               	movf	??___flmul,w
  4378  00E0  07B8               	addwf	___flmul@grs,f
  4379  00E1  0833               	movf	??___flmul+1,w
  4380  00E2  1103               	clrz
  4381  00E3  1803               	skipnc
  4382  00E4  3E01               	addlw	1
  4383  00E5  1903               	skipnz
  4384  00E6  28E8               	goto	u2551
  4385  00E7  07B9               	addwf	___flmul@grs+1,f
  4386  00E8                     u2551:
  4387  00E8  0834               	movf	??___flmul+2,w
  4388  00E9  1103               	clrz
  4389  00EA  1803               	skipnc
  4390  00EB  3E01               	addlw	1
  4391  00EC  1903               	skipnz
  4392  00ED  28EF               	goto	u2552
  4393  00EE  07BA               	addwf	___flmul@grs+2,f
  4394  00EF                     u2552:
  4395  00EF  0835               	movf	??___flmul+3,w
  4396  00F0  1103               	clrz
  4397  00F1  1803               	skipnc
  4398  00F2  3E01               	addlw	1
  4399  00F3  1903               	skipnz
  4400  00F4  28F6               	goto	u2553
  4401  00F5  07BB               	addwf	___flmul@grs+3,f
  4402  00F6                     u2553:
  4403  00F6                     l2235:
  4404  00F6  0843               	movf	___flmul@temp+1,w
  4405  00F7  00B2               	movwf	??___flmul
  4406  00F8  01B3               	clrf	??___flmul+1
  4407  00F9  01B4               	clrf	??___flmul+2
  4408  00FA  01B5               	clrf	??___flmul+3
  4409  00FB  0832               	movf	??___flmul,w
  4410  00FC  07BE               	addwf	___flmul@prod,f
  4411  00FD  0833               	movf	??___flmul+1,w
  4412  00FE  1103               	clrz
  4413  00FF  1803               	skipnc
  4414  0100  3E01               	addlw	1
  4415  0101  1903               	skipnz
  4416  0102  2904               	goto	u2561
  4417  0103  07BF               	addwf	___flmul@prod+1,f
  4418  0104                     u2561:
  4419  0104  0834               	movf	??___flmul+2,w
  4420  0105  1103               	clrz
  4421  0106  1803               	skipnc
  4422  0107  3E01               	addlw	1
  4423  0108  1903               	skipnz
  4424  0109  290B               	goto	u2562
  4425  010A  07C0               	addwf	___flmul@prod+2,f
  4426  010B                     u2562:
  4427  010B  0835               	movf	??___flmul+3,w
  4428  010C  1103               	clrz
  4429  010D  1803               	skipnc
  4430  010E  3E01               	addlw	1
  4431  010F  1903               	skipnz
  4432  0110  2912               	goto	u2563
  4433  0111  07C1               	addwf	___flmul@prod+3,f
  4434  0112                     u2563:
  4435  0112  082C               	movf	___flmul@b+2,w
  4436  0113  00B2               	movwf	??___flmul
  4437  0114  0832               	movf	??___flmul,w
  4438  0115  00F3               	movwf	__Umul8_16@multiplicand
  4439  0116  082E               	movf	___flmul@a,w
  4440  0117  120A  158A  229E  120A  118A  	fcall	__Umul8_16
  4441  011C  0874               	movf	?__Umul8_16+1,w
  4442  011D  1283               	bcf	3,5	;RP0=0, select bank0
  4443  011E  1303               	bcf	3,6	;RP1=0, select bank0
  4444  011F  00C3               	movwf	___flmul@temp+1
  4445  0120  0873               	movf	?__Umul8_16,w
  4446  0121  00C2               	movwf	___flmul@temp
  4447  0122                     l2237:
  4448  0122  0842               	movf	___flmul@temp,w
  4449  0123  00B2               	movwf	??___flmul
  4450  0124  01B3               	clrf	??___flmul+1
  4451  0125  01B4               	clrf	??___flmul+2
  4452  0126  01B5               	clrf	??___flmul+3
  4453  0127  0832               	movf	??___flmul,w
  4454  0128  07B8               	addwf	___flmul@grs,f
  4455  0129  0833               	movf	??___flmul+1,w
  4456  012A  1103               	clrz
  4457  012B  1803               	skipnc
  4458  012C  3E01               	addlw	1
  4459  012D  1903               	skipnz
  4460  012E  2930               	goto	u2571
  4461  012F  07B9               	addwf	___flmul@grs+1,f
  4462  0130                     u2571:
  4463  0130  0834               	movf	??___flmul+2,w
  4464  0131  1103               	clrz
  4465  0132  1803               	skipnc
  4466  0133  3E01               	addlw	1
  4467  0134  1903               	skipnz
  4468  0135  2937               	goto	u2572
  4469  0136  07BA               	addwf	___flmul@grs+2,f
  4470  0137                     u2572:
  4471  0137  0835               	movf	??___flmul+3,w
  4472  0138  1103               	clrz
  4473  0139  1803               	skipnc
  4474  013A  3E01               	addlw	1
  4475  013B  1903               	skipnz
  4476  013C  293E               	goto	u2573
  4477  013D  07BB               	addwf	___flmul@grs+3,f
  4478  013E                     u2573:
  4479  013E                     l2239:
  4480  013E  0843               	movf	___flmul@temp+1,w
  4481  013F  00B2               	movwf	??___flmul
  4482  0140  01B3               	clrf	??___flmul+1
  4483  0141  01B4               	clrf	??___flmul+2
  4484  0142  01B5               	clrf	??___flmul+3
  4485  0143  0832               	movf	??___flmul,w
  4486  0144  07BE               	addwf	___flmul@prod,f
  4487  0145  0833               	movf	??___flmul+1,w
  4488  0146  1103               	clrz
  4489  0147  1803               	skipnc
  4490  0148  3E01               	addlw	1
  4491  0149  1903               	skipnz
  4492  014A  294C               	goto	u2581
  4493  014B  07BF               	addwf	___flmul@prod+1,f
  4494  014C                     u2581:
  4495  014C  0834               	movf	??___flmul+2,w
  4496  014D  1103               	clrz
  4497  014E  1803               	skipnc
  4498  014F  3E01               	addlw	1
  4499  0150  1903               	skipnz
  4500  0151  2953               	goto	u2582
  4501  0152  07C0               	addwf	___flmul@prod+2,f
  4502  0153                     u2582:
  4503  0153  0835               	movf	??___flmul+3,w
  4504  0154  1103               	clrz
  4505  0155  1803               	skipnc
  4506  0156  3E01               	addlw	1
  4507  0157  1903               	skipnz
  4508  0158  295A               	goto	u2583
  4509  0159  07C1               	addwf	___flmul@prod+3,f
  4510  015A                     u2583:
  4511  015A                     l2241:
  4512  015A  3008               	movlw	8
  4513  015B  00B2               	movwf	??___flmul
  4514  015C                     u2595:
  4515  015C  1003               	clrc
  4516  015D  0DB8               	rlf	___flmul@grs,f
  4517  015E  0DB9               	rlf	___flmul@grs+1,f
  4518  015F  0DBA               	rlf	___flmul@grs+2,f
  4519  0160  0DBB               	rlf	___flmul@grs+3,f
  4520  0161  0BB2               	decfsz	??___flmul,f
  4521  0162  295C               	goto	u2595
  4522  0163                     l2243:
  4523  0163  082B               	movf	___flmul@b+1,w
  4524  0164  00B2               	movwf	??___flmul
  4525  0165  0832               	movf	??___flmul,w
  4526  0166  00F3               	movwf	__Umul8_16@multiplicand
  4527  0167  082E               	movf	___flmul@a,w
  4528  0168  120A  158A  229E  120A  118A  	fcall	__Umul8_16
  4529  016D  0874               	movf	?__Umul8_16+1,w
  4530  016E  1283               	bcf	3,5	;RP0=0, select bank0
  4531  016F  1303               	bcf	3,6	;RP1=0, select bank0
  4532  0170  00C3               	movwf	___flmul@temp+1
  4533  0171  0873               	movf	?__Umul8_16,w
  4534  0172  00C2               	movwf	___flmul@temp
  4535  0173                     l2245:
  4536  0173  0842               	movf	___flmul@temp,w
  4537  0174  00B2               	movwf	??___flmul
  4538  0175  0843               	movf	___flmul@temp+1,w
  4539  0176  00B3               	movwf	??___flmul+1
  4540  0177  01B4               	clrf	??___flmul+2
  4541  0178  01B5               	clrf	??___flmul+3
  4542  0179  0832               	movf	??___flmul,w
  4543  017A  07B8               	addwf	___flmul@grs,f
  4544  017B  0833               	movf	??___flmul+1,w
  4545  017C  1103               	clrz
  4546  017D  1803               	skipnc
  4547  017E  3E01               	addlw	1
  4548  017F  1903               	skipnz
  4549  0180  2982               	goto	u2601
  4550  0181  07B9               	addwf	___flmul@grs+1,f
  4551  0182                     u2601:
  4552  0182  0834               	movf	??___flmul+2,w
  4553  0183  1103               	clrz
  4554  0184  1803               	skipnc
  4555  0185  3E01               	addlw	1
  4556  0186  1903               	skipnz
  4557  0187  2989               	goto	u2602
  4558  0188  07BA               	addwf	___flmul@grs+2,f
  4559  0189                     u2602:
  4560  0189  0835               	movf	??___flmul+3,w
  4561  018A  1103               	clrz
  4562  018B  1803               	skipnc
  4563  018C  3E01               	addlw	1
  4564  018D  1903               	skipnz
  4565  018E  2990               	goto	u2603
  4566  018F  07BB               	addwf	___flmul@grs+3,f
  4567  0190                     u2603:
  4568  0190                     l2247:
  4569  0190  082A               	movf	___flmul@b,w
  4570  0191  00B2               	movwf	??___flmul
  4571  0192  0832               	movf	??___flmul,w
  4572  0193  00F3               	movwf	__Umul8_16@multiplicand
  4573  0194  082F               	movf	___flmul@a+1,w
  4574  0195  120A  158A  229E  120A  118A  	fcall	__Umul8_16
  4575  019A  0874               	movf	?__Umul8_16+1,w
  4576  019B  1283               	bcf	3,5	;RP0=0, select bank0
  4577  019C  1303               	bcf	3,6	;RP1=0, select bank0
  4578  019D  00C3               	movwf	___flmul@temp+1
  4579  019E  0873               	movf	?__Umul8_16,w
  4580  019F  00C2               	movwf	___flmul@temp
  4581  01A0                     l2249:
  4582  01A0  0842               	movf	___flmul@temp,w
  4583  01A1  00B2               	movwf	??___flmul
  4584  01A2  0843               	movf	___flmul@temp+1,w
  4585  01A3  00B3               	movwf	??___flmul+1
  4586  01A4  01B4               	clrf	??___flmul+2
  4587  01A5  01B5               	clrf	??___flmul+3
  4588  01A6  0832               	movf	??___flmul,w
  4589  01A7  07B8               	addwf	___flmul@grs,f
  4590  01A8  0833               	movf	??___flmul+1,w
  4591  01A9  1103               	clrz
  4592  01AA  1803               	skipnc
  4593  01AB  3E01               	addlw	1
  4594  01AC  1903               	skipnz
  4595  01AD  29AF               	goto	u2611
  4596  01AE  07B9               	addwf	___flmul@grs+1,f
  4597  01AF                     u2611:
  4598  01AF  0834               	movf	??___flmul+2,w
  4599  01B0  1103               	clrz
  4600  01B1  1803               	skipnc
  4601  01B2  3E01               	addlw	1
  4602  01B3  1903               	skipnz
  4603  01B4  29B6               	goto	u2612
  4604  01B5  07BA               	addwf	___flmul@grs+2,f
  4605  01B6                     u2612:
  4606  01B6  0835               	movf	??___flmul+3,w
  4607  01B7  1103               	clrz
  4608  01B8  1803               	skipnc
  4609  01B9  3E01               	addlw	1
  4610  01BA  1903               	skipnz
  4611  01BB  29BD               	goto	u2613
  4612  01BC  07BB               	addwf	___flmul@grs+3,f
  4613  01BD                     u2613:
  4614  01BD                     l2251:
  4615  01BD  3008               	movlw	8
  4616  01BE  00B2               	movwf	??___flmul
  4617  01BF                     u2625:
  4618  01BF  1003               	clrc
  4619  01C0  0DB8               	rlf	___flmul@grs,f
  4620  01C1  0DB9               	rlf	___flmul@grs+1,f
  4621  01C2  0DBA               	rlf	___flmul@grs+2,f
  4622  01C3  0DBB               	rlf	___flmul@grs+3,f
  4623  01C4  0BB2               	decfsz	??___flmul,f
  4624  01C5  29BF               	goto	u2625
  4625  01C6  082A               	movf	___flmul@b,w
  4626  01C7  00B2               	movwf	??___flmul
  4627  01C8  0832               	movf	??___flmul,w
  4628  01C9  00F3               	movwf	__Umul8_16@multiplicand
  4629  01CA  082E               	movf	___flmul@a,w
  4630  01CB  120A  158A  229E  120A  118A  	fcall	__Umul8_16
  4631  01D0  0874               	movf	?__Umul8_16+1,w
  4632  01D1  1283               	bcf	3,5	;RP0=0, select bank0
  4633  01D2  1303               	bcf	3,6	;RP1=0, select bank0
  4634  01D3  00C3               	movwf	___flmul@temp+1
  4635  01D4  0873               	movf	?__Umul8_16,w
  4636  01D5  00C2               	movwf	___flmul@temp
  4637  01D6                     l2253:
  4638  01D6  0842               	movf	___flmul@temp,w
  4639  01D7  00B2               	movwf	??___flmul
  4640  01D8  0843               	movf	___flmul@temp+1,w
  4641  01D9  00B3               	movwf	??___flmul+1
  4642  01DA  01B4               	clrf	??___flmul+2
  4643  01DB  01B5               	clrf	??___flmul+3
  4644  01DC  0832               	movf	??___flmul,w
  4645  01DD  07B8               	addwf	___flmul@grs,f
  4646  01DE  0833               	movf	??___flmul+1,w
  4647  01DF  1103               	clrz
  4648  01E0  1803               	skipnc
  4649  01E1  3E01               	addlw	1
  4650  01E2  1903               	skipnz
  4651  01E3  29E5               	goto	u2631
  4652  01E4  07B9               	addwf	___flmul@grs+1,f
  4653  01E5                     u2631:
  4654  01E5  0834               	movf	??___flmul+2,w
  4655  01E6  1103               	clrz
  4656  01E7  1803               	skipnc
  4657  01E8  3E01               	addlw	1
  4658  01E9  1903               	skipnz
  4659  01EA  29EC               	goto	u2632
  4660  01EB  07BA               	addwf	___flmul@grs+2,f
  4661  01EC                     u2632:
  4662  01EC  0835               	movf	??___flmul+3,w
  4663  01ED  1103               	clrz
  4664  01EE  1803               	skipnc
  4665  01EF  3E01               	addlw	1
  4666  01F0  1903               	skipnz
  4667  01F1  29F3               	goto	u2633
  4668  01F2  07BB               	addwf	___flmul@grs+3,f
  4669  01F3                     u2633:
  4670  01F3                     l2255:
  4671  01F3  082B               	movf	___flmul@b+1,w
  4672  01F4  00B2               	movwf	??___flmul
  4673  01F5  0832               	movf	??___flmul,w
  4674  01F6  00F3               	movwf	__Umul8_16@multiplicand
  4675  01F7  0830               	movf	___flmul@a+2,w
  4676  01F8  120A  158A  229E  120A  118A  	fcall	__Umul8_16
  4677  01FD  0874               	movf	?__Umul8_16+1,w
  4678  01FE  1283               	bcf	3,5	;RP0=0, select bank0
  4679  01FF  1303               	bcf	3,6	;RP1=0, select bank0
  4680  0200  00C3               	movwf	___flmul@temp+1
  4681  0201  0873               	movf	?__Umul8_16,w
  4682  0202  00C2               	movwf	___flmul@temp
  4683  0203  0842               	movf	___flmul@temp,w
  4684  0204  00B2               	movwf	??___flmul
  4685  0205  0843               	movf	___flmul@temp+1,w
  4686  0206  00B3               	movwf	??___flmul+1
  4687  0207  01B4               	clrf	??___flmul+2
  4688  0208  01B5               	clrf	??___flmul+3
  4689  0209  0832               	movf	??___flmul,w
  4690  020A  07BE               	addwf	___flmul@prod,f
  4691  020B  0833               	movf	??___flmul+1,w
  4692  020C  1103               	clrz
  4693  020D  1803               	skipnc
  4694  020E  3E01               	addlw	1
  4695  020F  1903               	skipnz
  4696  0210  2A12               	goto	u2641
  4697  0211  07BF               	addwf	___flmul@prod+1,f
  4698  0212                     u2641:
  4699  0212  0834               	movf	??___flmul+2,w
  4700  0213  1103               	clrz
  4701  0214  1803               	skipnc
  4702  0215  3E01               	addlw	1
  4703  0216  1903               	skipnz
  4704  0217  2A19               	goto	u2642
  4705  0218  07C0               	addwf	___flmul@prod+2,f
  4706  0219                     u2642:
  4707  0219  0835               	movf	??___flmul+3,w
  4708  021A  1103               	clrz
  4709  021B  1803               	skipnc
  4710  021C  3E01               	addlw	1
  4711  021D  1903               	skipnz
  4712  021E  2A20               	goto	u2643
  4713  021F  07C1               	addwf	___flmul@prod+3,f
  4714  0220                     u2643:
  4715  0220                     l2257:
  4716  0220  082C               	movf	___flmul@b+2,w
  4717  0221  00B2               	movwf	??___flmul
  4718  0222  0832               	movf	??___flmul,w
  4719  0223  00F3               	movwf	__Umul8_16@multiplicand
  4720  0224  082F               	movf	___flmul@a+1,w
  4721  0225  120A  158A  229E  120A  118A  	fcall	__Umul8_16
  4722  022A  0874               	movf	?__Umul8_16+1,w
  4723  022B  1283               	bcf	3,5	;RP0=0, select bank0
  4724  022C  1303               	bcf	3,6	;RP1=0, select bank0
  4725  022D  00C3               	movwf	___flmul@temp+1
  4726  022E  0873               	movf	?__Umul8_16,w
  4727  022F  00C2               	movwf	___flmul@temp
  4728  0230                     l2259:
  4729  0230  0842               	movf	___flmul@temp,w
  4730  0231  00B2               	movwf	??___flmul
  4731  0232  0843               	movf	___flmul@temp+1,w
  4732  0233  00B3               	movwf	??___flmul+1
  4733  0234  01B4               	clrf	??___flmul+2
  4734  0235  01B5               	clrf	??___flmul+3
  4735  0236  0832               	movf	??___flmul,w
  4736  0237  07BE               	addwf	___flmul@prod,f
  4737  0238  0833               	movf	??___flmul+1,w
  4738  0239  1103               	clrz
  4739  023A  1803               	skipnc
  4740  023B  3E01               	addlw	1
  4741  023C  1903               	skipnz
  4742  023D  2A3F               	goto	u2651
  4743  023E  07BF               	addwf	___flmul@prod+1,f
  4744  023F                     u2651:
  4745  023F  0834               	movf	??___flmul+2,w
  4746  0240  1103               	clrz
  4747  0241  1803               	skipnc
  4748  0242  3E01               	addlw	1
  4749  0243  1903               	skipnz
  4750  0244  2A46               	goto	u2652
  4751  0245  07C0               	addwf	___flmul@prod+2,f
  4752  0246                     u2652:
  4753  0246  0835               	movf	??___flmul+3,w
  4754  0247  1103               	clrz
  4755  0248  1803               	skipnc
  4756  0249  3E01               	addlw	1
  4757  024A  1903               	skipnz
  4758  024B  2A4D               	goto	u2653
  4759  024C  07C1               	addwf	___flmul@prod+3,f
  4760  024D                     u2653:
  4761  024D  082C               	movf	___flmul@b+2,w
  4762  024E  00B2               	movwf	??___flmul
  4763  024F  0832               	movf	??___flmul,w
  4764  0250  00F3               	movwf	__Umul8_16@multiplicand
  4765  0251  0830               	movf	___flmul@a+2,w
  4766  0252  120A  158A  229E  120A  118A  	fcall	__Umul8_16
  4767  0257  0874               	movf	?__Umul8_16+1,w
  4768  0258  1283               	bcf	3,5	;RP0=0, select bank0
  4769  0259  1303               	bcf	3,6	;RP1=0, select bank0
  4770  025A  00C3               	movwf	___flmul@temp+1
  4771  025B  0873               	movf	?__Umul8_16,w
  4772  025C  00C2               	movwf	___flmul@temp
  4773  025D                     l2261:
  4774  025D  0842               	movf	___flmul@temp,w
  4775  025E  00B2               	movwf	??___flmul
  4776  025F  0843               	movf	___flmul@temp+1,w
  4777  0260  00B3               	movwf	??___flmul+1
  4778  0261  01B4               	clrf	??___flmul+2
  4779  0262  01B5               	clrf	??___flmul+3
  4780  0263  3008               	movlw	8
  4781  0264                     u2665:
  4782  0264  1003               	clrc
  4783  0265  0DB2               	rlf	??___flmul,f
  4784  0266  0DB3               	rlf	??___flmul+1,f
  4785  0267  0DB4               	rlf	??___flmul+2,f
  4786  0268  0DB5               	rlf	??___flmul+3,f
  4787  0269                     u2660:
  4788  0269  3EFF               	addlw	-1
  4789  026A  1D03               	skipz
  4790  026B  2A64               	goto	u2665
  4791  026C  0832               	movf	??___flmul,w
  4792  026D  07BE               	addwf	___flmul@prod,f
  4793  026E  0833               	movf	??___flmul+1,w
  4794  026F  1103               	clrz
  4795  0270  1803               	skipnc
  4796  0271  3E01               	addlw	1
  4797  0272  1903               	skipnz
  4798  0273  2A75               	goto	u2671
  4799  0274  07BF               	addwf	___flmul@prod+1,f
  4800  0275                     u2671:
  4801  0275  0834               	movf	??___flmul+2,w
  4802  0276  1103               	clrz
  4803  0277  1803               	skipnc
  4804  0278  3E01               	addlw	1
  4805  0279  1903               	skipnz
  4806  027A  2A7C               	goto	u2672
  4807  027B  07C0               	addwf	___flmul@prod+2,f
  4808  027C                     u2672:
  4809  027C  0835               	movf	??___flmul+3,w
  4810  027D  1103               	clrz
  4811  027E  1803               	skipnc
  4812  027F  3E01               	addlw	1
  4813  0280  1903               	skipnz
  4814  0281  2A83               	goto	u2673
  4815  0282  07C1               	addwf	___flmul@prod+3,f
  4816  0283                     u2673:
  4817  0283                     l2263:
  4818  0283  0838               	movf	___flmul@grs,w
  4819  0284  00B2               	movwf	??___flmul
  4820  0285  0839               	movf	___flmul@grs+1,w
  4821  0286  00B3               	movwf	??___flmul+1
  4822  0287  083A               	movf	___flmul@grs+2,w
  4823  0288  00B4               	movwf	??___flmul+2
  4824  0289  083B               	movf	___flmul@grs+3,w
  4825  028A  00B5               	movwf	??___flmul+3
  4826  028B  3018               	movlw	24
  4827  028C                     u2685:
  4828  028C  1003               	clrc
  4829  028D  0CB5               	rrf	??___flmul+3,f
  4830  028E  0CB4               	rrf	??___flmul+2,f
  4831  028F  0CB3               	rrf	??___flmul+1,f
  4832  0290  0CB2               	rrf	??___flmul,f
  4833  0291                     u2680:
  4834  0291  3EFF               	addlw	-1
  4835  0292  1D03               	skipz
  4836  0293  2A8C               	goto	u2685
  4837  0294  0832               	movf	??___flmul,w
  4838  0295  07BE               	addwf	___flmul@prod,f
  4839  0296  0833               	movf	??___flmul+1,w
  4840  0297  1103               	clrz
  4841  0298  1803               	skipnc
  4842  0299  3E01               	addlw	1
  4843  029A  1903               	skipnz
  4844  029B  2A9D               	goto	u2691
  4845  029C  07BF               	addwf	___flmul@prod+1,f
  4846  029D                     u2691:
  4847  029D  0834               	movf	??___flmul+2,w
  4848  029E  1103               	clrz
  4849  029F  1803               	skipnc
  4850  02A0  3E01               	addlw	1
  4851  02A1  1903               	skipnz
  4852  02A2  2AA4               	goto	u2692
  4853  02A3  07C0               	addwf	___flmul@prod+2,f
  4854  02A4                     u2692:
  4855  02A4  0835               	movf	??___flmul+3,w
  4856  02A5  1103               	clrz
  4857  02A6  1803               	skipnc
  4858  02A7  3E01               	addlw	1
  4859  02A8  1903               	skipnz
  4860  02A9  2AAB               	goto	u2693
  4861  02AA  07C1               	addwf	___flmul@prod+3,f
  4862  02AB                     u2693:
  4863  02AB                     l2265:
  4864  02AB  3008               	movlw	8
  4865  02AC  00B2               	movwf	??___flmul
  4866  02AD                     u2705:
  4867  02AD  1003               	clrc
  4868  02AE  0DB8               	rlf	___flmul@grs,f
  4869  02AF  0DB9               	rlf	___flmul@grs+1,f
  4870  02B0  0DBA               	rlf	___flmul@grs+2,f
  4871  02B1  0DBB               	rlf	___flmul@grs+3,f
  4872  02B2  0BB2               	decfsz	??___flmul,f
  4873  02B3  2AAD               	goto	u2705
  4874  02B4                     l2267:
  4875  02B4  083D               	movf	___flmul@bexp,w
  4876  02B5  073C               	addwf	___flmul@aexp,w
  4877  02B6  00B2               	movwf	??___flmul
  4878  02B7  01B3               	clrf	??___flmul+1
  4879  02B8  0DB3               	rlf	??___flmul+1,f
  4880  02B9  0832               	movf	??___flmul,w
  4881  02BA  3E82               	addlw	130
  4882  02BB  00C2               	movwf	___flmul@temp
  4883  02BC  0833               	movf	??___flmul+1,w
  4884  02BD  1803               	skipnc
  4885  02BE  3E01               	addlw	1
  4886  02BF  3EFF               	addlw	255
  4887  02C0  00C3               	movwf	___flmul@temp+1
  4888  02C1  2ADF               	goto	l2279
  4889  02C2                     l2269:
  4890  02C2  3001               	movlw	1
  4891  02C3  00B2               	movwf	??___flmul
  4892  02C4                     u2715:
  4893  02C4  1003               	clrc
  4894  02C5  0DBE               	rlf	___flmul@prod,f
  4895  02C6  0DBF               	rlf	___flmul@prod+1,f
  4896  02C7  0DC0               	rlf	___flmul@prod+2,f
  4897  02C8  0DC1               	rlf	___flmul@prod+3,f
  4898  02C9  0BB2               	decfsz	??___flmul,f
  4899  02CA  2AC4               	goto	u2715
  4900  02CB                     l2271:
  4901  02CB  1FBB               	btfss	___flmul@grs+3,7
  4902  02CC  2ACE               	goto	u2721
  4903  02CD  2ACF               	goto	u2720
  4904  02CE                     u2721:
  4905  02CE  2AD0               	goto	l2275
  4906  02CF                     u2720:
  4907  02CF                     l2273:
  4908  02CF  143E               	bsf	___flmul@prod,0
  4909  02D0                     l2275:
  4910  02D0  3001               	movlw	1
  4911  02D1  00B2               	movwf	??___flmul
  4912  02D2                     u2735:
  4913  02D2  1003               	clrc
  4914  02D3  0DB8               	rlf	___flmul@grs,f
  4915  02D4  0DB9               	rlf	___flmul@grs+1,f
  4916  02D5  0DBA               	rlf	___flmul@grs+2,f
  4917  02D6  0DBB               	rlf	___flmul@grs+3,f
  4918  02D7  0BB2               	decfsz	??___flmul,f
  4919  02D8  2AD2               	goto	u2735
  4920  02D9                     l2277:
  4921  02D9  30FF               	movlw	255
  4922  02DA  07C2               	addwf	___flmul@temp,f
  4923  02DB  1803               	skipnc
  4924  02DC  0AC3               	incf	___flmul@temp+1,f
  4925  02DD  30FF               	movlw	255
  4926  02DE  07C3               	addwf	___flmul@temp+1,f
  4927  02DF                     l2279:
  4928  02DF  1FC0               	btfss	___flmul@prod+2,7
  4929  02E0  2AE2               	goto	u2741
  4930  02E1  2AE3               	goto	u2740
  4931  02E2                     u2741:
  4932  02E2  2AC2               	goto	l2269
  4933  02E3                     u2740:
  4934  02E3                     l2281:
  4935  02E3  01BC               	clrf	___flmul@aexp
  4936  02E4                     l2283:
  4937  02E4  1FBB               	btfss	___flmul@grs+3,7
  4938  02E5  2AE7               	goto	u2751
  4939  02E6  2AE8               	goto	u2750
  4940  02E7                     u2751:
  4941  02E7  2B04               	goto	l2291
  4942  02E8                     u2750:
  4943  02E8                     l2285:
  4944  02E8  30FF               	movlw	255
  4945  02E9  0538               	andwf	___flmul@grs,w
  4946  02EA  00B2               	movwf	??___flmul
  4947  02EB  30FF               	movlw	255
  4948  02EC  0539               	andwf	___flmul@grs+1,w
  4949  02ED  00B3               	movwf	??___flmul+1
  4950  02EE  30FF               	movlw	255
  4951  02EF  053A               	andwf	___flmul@grs+2,w
  4952  02F0  00B4               	movwf	??___flmul+2
  4953  02F1  307F               	movlw	127
  4954  02F2  053B               	andwf	___flmul@grs+3,w
  4955  02F3  00B5               	movwf	??___flmul+3
  4956  02F4  0835               	movf	??___flmul+3,w
  4957  02F5  0434               	iorwf	??___flmul+2,w
  4958  02F6  0433               	iorwf	??___flmul+1,w
  4959  02F7  0432               	iorwf	??___flmul,w
  4960  02F8  1903               	skipnz
  4961  02F9  2AFB               	goto	u2761
  4962  02FA  2AFC               	goto	u2760
  4963  02FB                     u2761:
  4964  02FB  2AFF               	goto	l762
  4965  02FC                     u2760:
  4966  02FC                     l2287:
  4967  02FC  01BC               	clrf	___flmul@aexp
  4968  02FD  0ABC               	incf	___flmul@aexp,f
  4969  02FE  2B04               	goto	l2291
  4970  02FF                     l762:
  4971  02FF  1C3E               	btfss	___flmul@prod,0
  4972  0300  2B02               	goto	u2771
  4973  0301  2B03               	goto	u2770
  4974  0302                     u2771:
  4975  0302  2B04               	goto	l2291
  4976  0303                     u2770:
  4977  0303  2AFC               	goto	l2287
  4978  0304                     l2291:
  4979  0304  083C               	movf	___flmul@aexp,w
  4980  0305  1903               	btfsc	3,2
  4981  0306  2B08               	goto	u2781
  4982  0307  2B09               	goto	u2780
  4983  0308                     u2781:
  4984  0308  2B3A               	goto	l2301
  4985  0309                     u2780:
  4986  0309                     l2293:
  4987  0309  3001               	movlw	1
  4988  030A  07BE               	addwf	___flmul@prod,f
  4989  030B  3000               	movlw	0
  4990  030C  1803               	skipnc
  4991  030D  3001               	movlw	1
  4992  030E  07BF               	addwf	___flmul@prod+1,f
  4993  030F  3000               	movlw	0
  4994  0310  1803               	skipnc
  4995  0311  3001               	movlw	1
  4996  0312  07C0               	addwf	___flmul@prod+2,f
  4997  0313  3000               	movlw	0
  4998  0314  1803               	skipnc
  4999  0315  3001               	movlw	1
  5000  0316  07C1               	addwf	___flmul@prod+3,f
  5001  0317                     l2295:
  5002  0317  1C41               	btfss	___flmul@prod+3,0
  5003  0318  2B1A               	goto	u2791
  5004  0319  2B1B               	goto	u2790
  5005  031A                     u2791:
  5006  031A  2B3A               	goto	l2301
  5007  031B                     u2790:
  5008  031B                     l2297:
  5009  031B  083E               	movf	___flmul@prod,w
  5010  031C  00B2               	movwf	??___flmul
  5011  031D  083F               	movf	___flmul@prod+1,w
  5012  031E  00B3               	movwf	??___flmul+1
  5013  031F  0840               	movf	___flmul@prod+2,w
  5014  0320  00B4               	movwf	??___flmul+2
  5015  0321  0841               	movf	___flmul@prod+3,w
  5016  0322  00B5               	movwf	??___flmul+3
  5017  0323  3001               	movlw	1
  5018  0324  00B6               	movwf	??___flmul+4
  5019  0325                     u2805:
  5020  0325  0D35               	rlf	??___flmul+3,w
  5021  0326  0CB5               	rrf	??___flmul+3,f
  5022  0327  0CB4               	rrf	??___flmul+2,f
  5023  0328  0CB3               	rrf	??___flmul+1,f
  5024  0329  0CB2               	rrf	??___flmul,f
  5025  032A                     u2800:
  5026  032A  0BB6               	decfsz	??___flmul+4,f
  5027  032B  2B25               	goto	u2805
  5028  032C  0835               	movf	??___flmul+3,w
  5029  032D  00C1               	movwf	___flmul@prod+3
  5030  032E  0834               	movf	??___flmul+2,w
  5031  032F  00C0               	movwf	___flmul@prod+2
  5032  0330  0833               	movf	??___flmul+1,w
  5033  0331  00BF               	movwf	___flmul@prod+1
  5034  0332  0832               	movf	??___flmul,w
  5035  0333  00BE               	movwf	___flmul@prod
  5036  0334                     l2299:
  5037  0334  3001               	movlw	1
  5038  0335  07C2               	addwf	___flmul@temp,f
  5039  0336  1803               	skipnc
  5040  0337  0AC3               	incf	___flmul@temp+1,f
  5041  0338  3000               	movlw	0
  5042  0339  07C3               	addwf	___flmul@temp+1,f
  5043  033A                     l2301:
  5044  033A  0843               	movf	___flmul@temp+1,w
  5045  033B  3A80               	xorlw	128
  5046  033C  00FF               	movwf	btemp+1
  5047  033D  3080               	movlw	128
  5048  033E  027F               	subwf	btemp+1,w
  5049  033F  1D03               	skipz
  5050  0340  2B43               	goto	u2815
  5051  0341  30FF               	movlw	255
  5052  0342  0242               	subwf	___flmul@temp,w
  5053  0343                     u2815:
  5054  0343  1C03               	skipc
  5055  0344  2B46               	goto	u2811
  5056  0345  2B47               	goto	u2810
  5057  0346                     u2811:
  5058  0346  2B52               	goto	l2305
  5059  0347                     u2810:
  5060  0347                     l2303:
  5061  0347  307F               	movlw	127
  5062  0348  1283               	bcf	3,5	;RP0=0, select bank0
  5063  0349  1303               	bcf	3,6	;RP1=0, select bank0
  5064  034A  00C1               	movwf	___flmul@prod+3
  5065  034B  3080               	movlw	128
  5066  034C  00C0               	movwf	___flmul@prod+2
  5067  034D  3000               	movlw	0
  5068  034E  00BF               	movwf	___flmul@prod+1
  5069  034F  3000               	movlw	0
  5070  0350  00BE               	movwf	___flmul@prod
  5071  0351  2B87               	goto	l768
  5072  0352                     l2305:
  5073  0352  1283               	bcf	3,5	;RP0=0, select bank0
  5074  0353  1303               	bcf	3,6	;RP1=0, select bank0
  5075  0354  0843               	movf	___flmul@temp+1,w
  5076  0355  3A80               	xorlw	128
  5077  0356  00FF               	movwf	btemp+1
  5078  0357  3080               	movlw	128
  5079  0358  027F               	subwf	btemp+1,w
  5080  0359  1D03               	skipz
  5081  035A  2B5D               	goto	u2825
  5082  035B  3001               	movlw	1
  5083  035C  0242               	subwf	___flmul@temp,w
  5084  035D                     u2825:
  5085  035D  1803               	skipnc
  5086  035E  2B60               	goto	u2821
  5087  035F  2B61               	goto	u2820
  5088  0360                     u2821:
  5089  0360  2B6D               	goto	l2311
  5090  0361                     u2820:
  5091  0361                     l2307:
  5092  0361  3000               	movlw	0
  5093  0362  1283               	bcf	3,5	;RP0=0, select bank0
  5094  0363  1303               	bcf	3,6	;RP1=0, select bank0
  5095  0364  00C1               	movwf	___flmul@prod+3
  5096  0365  3000               	movlw	0
  5097  0366  00C0               	movwf	___flmul@prod+2
  5098  0367  3000               	movlw	0
  5099  0368  00BF               	movwf	___flmul@prod+1
  5100  0369  3000               	movlw	0
  5101  036A  00BE               	movwf	___flmul@prod
  5102  036B                     l2309:
  5103  036B  01B7               	clrf	___flmul@sign
  5104  036C  2B87               	goto	l768
  5105  036D                     l2311:
  5106  036D  1283               	bcf	3,5	;RP0=0, select bank0
  5107  036E  1303               	bcf	3,6	;RP1=0, select bank0
  5108  036F  0842               	movf	___flmul@temp,w
  5109  0370  00B2               	movwf	??___flmul
  5110  0371  0832               	movf	??___flmul,w
  5111  0372  00BD               	movwf	___flmul@bexp
  5112  0373  30FF               	movlw	255
  5113  0374  05BE               	andwf	___flmul@prod,f
  5114  0375  30FF               	movlw	255
  5115  0376  05BF               	andwf	___flmul@prod+1,f
  5116  0377  307F               	movlw	127
  5117  0378  05C0               	andwf	___flmul@prod+2,f
  5118  0379  3000               	movlw	0
  5119  037A  05C1               	andwf	___flmul@prod+3,f
  5120  037B                     l2313:
  5121  037B  1C3D               	btfss	___flmul@bexp,0
  5122  037C  2B7E               	goto	u2831
  5123  037D  2B7F               	goto	u2830
  5124  037E                     u2831:
  5125  037E  2B80               	goto	l2317
  5126  037F                     u2830:
  5127  037F                     l2315:
  5128  037F  17C0               	bsf	___flmul@prod+2,7
  5129  0380                     l2317:
  5130  0380  083D               	movf	___flmul@bexp,w
  5131  0381  00B2               	movwf	??___flmul
  5132  0382  1003               	clrc
  5133  0383  0C32               	rrf	??___flmul,w
  5134  0384  00B3               	movwf	??___flmul+1
  5135  0385  0833               	movf	??___flmul+1,w
  5136  0386  00C1               	movwf	___flmul@prod+3
  5137  0387                     l768:
  5138  0387  0837               	movf	___flmul@sign,w
  5139  0388  00B2               	movwf	??___flmul
  5140  0389  0832               	movf	??___flmul,w
  5141  038A  04C1               	iorwf	___flmul@prod+3,f
  5142  038B                     l2319:
  5143  038B  0841               	movf	___flmul@prod+3,w
  5144  038C  00AD               	movwf	?___flmul+3
  5145  038D  0840               	movf	___flmul@prod+2,w
  5146  038E  00AC               	movwf	?___flmul+2
  5147  038F  083F               	movf	___flmul@prod+1,w
  5148  0390  00AB               	movwf	?___flmul+1
  5149  0391  083E               	movf	___flmul@prod,w
  5150  0392  00AA               	movwf	?___flmul
  5151  0393                     l756:
  5152  0393  0008               	return
  5153  0394                     __end_of___flmul:
  5154                           
  5155                           	psect	text11
  5156  0A9E                     __ptext11:	
  5157 ;; *************** function __Umul8_16 *****************
  5158 ;; Defined at:
  5159 ;;		line 4 in file "C:\Program Files\Microchip\xc8\v2.31\pic\sources\c90\common\Umul8_16.c"
  5160 ;; Parameters:    Size  Location     Type
  5161 ;;  multiplier      1    wreg     unsigned char 
  5162 ;;  multiplicand    1    3[COMMON] unsigned char 
  5163 ;; Auto vars:     Size  Location     Type
  5164 ;;  multiplier      1    4[BANK0 ] unsigned char 
  5165 ;;  word_mpld       2    2[BANK0 ] unsigned int 
  5166 ;;  product         2    0[BANK0 ] unsigned int 
  5167 ;; Return value:  Size  Location     Type
  5168 ;;                  2    3[COMMON] unsigned int 
  5169 ;; Registers used:
  5170 ;;		wreg, status,2, status,0
  5171 ;; Tracked objects:
  5172 ;;		On entry : 0/0
  5173 ;;		On exit  : 0/0
  5174 ;;		Unchanged: 0/0
  5175 ;; Data sizes:     COMMON   BANK0   BANK1   BANK3   BANK2
  5176 ;;      Params:         2       0       0       0       0
  5177 ;;      Locals:         0       5       0       0       0
  5178 ;;      Temps:          2       0       0       0       0
  5179 ;;      Totals:         4       5       0       0       0
  5180 ;;Total ram usage:        9 bytes
  5181 ;; Hardware stack levels used:    1
  5182 ;; Hardware stack levels required when called:    1
  5183 ;; This function calls:
  5184 ;;		Nothing
  5185 ;; This function is called by:
  5186 ;;		___flmul
  5187 ;; This function uses a non-reentrant model
  5188 ;;
  5189                           
  5190                           
  5191                           ;psect for function __Umul8_16
  5192  0A9E                     __Umul8_16:
  5193                           
  5194                           ;incstack = 0
  5195                           ; Regs used in __Umul8_16: [wreg+status,2+status,0]
  5196                           ;__Umul8_16@multiplier stored from wreg
  5197  0A9E  1283               	bcf	3,5	;RP0=0, select bank0
  5198  0A9F  1303               	bcf	3,6	;RP1=0, select bank0
  5199  0AA0  00A4               	movwf	__Umul8_16@multiplier
  5200  0AA1                     l2063:
  5201  0AA1  01A0               	clrf	__Umul8_16@product
  5202  0AA2  01A1               	clrf	__Umul8_16@product+1
  5203  0AA3                     l2065:
  5204  0AA3  0873               	movf	__Umul8_16@multiplicand,w
  5205  0AA4  00F5               	movwf	??__Umul8_16
  5206  0AA5  01F6               	clrf	??__Umul8_16+1
  5207  0AA6  0875               	movf	??__Umul8_16,w
  5208  0AA7  00A2               	movwf	__Umul8_16@word_mpld
  5209  0AA8  0876               	movf	??__Umul8_16+1,w
  5210  0AA9  00A3               	movwf	__Umul8_16@word_mpld+1
  5211  0AAA                     l2067:
  5212  0AAA  1C24               	btfss	__Umul8_16@multiplier,0
  5213  0AAB  2AAD               	goto	u2291
  5214  0AAC  2AAE               	goto	u2290
  5215  0AAD                     u2291:
  5216  0AAD  2AB4               	goto	l775
  5217  0AAE                     u2290:
  5218  0AAE                     l2069:
  5219  0AAE  0822               	movf	__Umul8_16@word_mpld,w
  5220  0AAF  07A0               	addwf	__Umul8_16@product,f
  5221  0AB0  1803               	skipnc
  5222  0AB1  0AA1               	incf	__Umul8_16@product+1,f
  5223  0AB2  0823               	movf	__Umul8_16@word_mpld+1,w
  5224  0AB3  07A1               	addwf	__Umul8_16@product+1,f
  5225  0AB4                     l775:
  5226  0AB4  3001               	movlw	1
  5227  0AB5                     u2305:
  5228  0AB5  1003               	clrc
  5229  0AB6  0DA2               	rlf	__Umul8_16@word_mpld,f
  5230  0AB7  0DA3               	rlf	__Umul8_16@word_mpld+1,f
  5231  0AB8  3EFF               	addlw	-1
  5232  0AB9  1D03               	skipz
  5233  0ABA  2AB5               	goto	u2305
  5234  0ABB  1003               	clrc
  5235  0ABC  0CA4               	rrf	__Umul8_16@multiplier,f
  5236  0ABD                     l2071:
  5237  0ABD  0824               	movf	__Umul8_16@multiplier,w
  5238  0ABE  1D03               	btfss	3,2
  5239  0ABF  2AC1               	goto	u2311
  5240  0AC0  2AC2               	goto	u2310
  5241  0AC1                     u2311:
  5242  0AC1  2AAA               	goto	l2067
  5243  0AC2                     u2310:
  5244  0AC2                     l2073:
  5245  0AC2  0821               	movf	__Umul8_16@product+1,w
  5246  0AC3  00F4               	movwf	?__Umul8_16+1
  5247  0AC4  0820               	movf	__Umul8_16@product,w
  5248  0AC5  00F3               	movwf	?__Umul8_16
  5249  0AC6                     l777:
  5250  0AC6  0008               	return
  5251  0AC7                     __end_of__Umul8_16:
  5252                           
  5253                           	psect	text12
  5254  0A77                     __ptext12:	
  5255 ;; *************** function _cursorLCD *****************
  5256 ;; Defined at:
  5257 ;;		line 50 in file "LCDD2.c"
  5258 ;; Parameters:    Size  Location     Type
  5259 ;;  fila            1    wreg     unsigned char 
  5260 ;;  columna         1    6[COMMON] unsigned char 
  5261 ;; Auto vars:     Size  Location     Type
  5262 ;;  fila            1    0[BANK0 ] unsigned char 
  5263 ;;  temp            1    1[BANK0 ] unsigned char 
  5264 ;; Return value:  Size  Location     Type
  5265 ;;                  1    wreg      void 
  5266 ;; Registers used:
  5267 ;;		wreg, status,2, status,0, pclath, cstack
  5268 ;; Tracked objects:
  5269 ;;		On entry : 0/0
  5270 ;;		On exit  : 0/0
  5271 ;;		Unchanged: 0/0
  5272 ;; Data sizes:     COMMON   BANK0   BANK1   BANK3   BANK2
  5273 ;;      Params:         1       0       0       0       0
  5274 ;;      Locals:         0       2       0       0       0
  5275 ;;      Temps:          1       0       0       0       0
  5276 ;;      Totals:         2       2       0       0       0
  5277 ;;Total ram usage:        4 bytes
  5278 ;; Hardware stack levels used:    1
  5279 ;; Hardware stack levels required when called:    2
  5280 ;; This function calls:
  5281 ;;		_comandoLCD
  5282 ;; This function is called by:
  5283 ;;		_main
  5284 ;; This function uses a non-reentrant model
  5285 ;;
  5286                           
  5287                           
  5288                           ;psect for function _cursorLCD
  5289  0A77                     _cursorLCD:
  5290                           
  5291                           ;incstack = 0
  5292                           ; Regs used in _cursorLCD: [wreg+status,2+status,0+pclath+cstack]
  5293                           ;cursorLCD@fila stored from wreg
  5294  0A77  1283               	bcf	3,5	;RP0=0, select bank0
  5295  0A78  1303               	bcf	3,6	;RP1=0, select bank0
  5296  0A79  00A0               	movwf	cursorLCD@fila
  5297  0A7A                     l3061:
  5298                           
  5299                           ;LCDD2.c: 51:     uint8_t temp;;LCDD2.c: 52:     if(fila == 1){
  5300  0A7A  0320               	decf	cursorLCD@fila,w
  5301  0A7B  1D03               	btfss	3,2
  5302  0A7C  2A7E               	goto	u3951
  5303  0A7D  2A7F               	goto	u3950
  5304  0A7E                     u3951:
  5305  0A7E  2A8A               	goto	l3067
  5306  0A7F                     u3950:
  5307  0A7F                     l3063:
  5308                           
  5309                           ;LCDD2.c: 53:         temp = 0X80 + columna - 1;
  5310  0A7F  0876               	movf	cursorLCD@columna,w
  5311  0A80  3E7F               	addlw	127
  5312  0A81  00F7               	movwf	??_cursorLCD
  5313  0A82  0877               	movf	??_cursorLCD,w
  5314  0A83  00A1               	movwf	cursorLCD@temp
  5315  0A84                     l3065:
  5316                           
  5317                           ;LCDD2.c: 54:         comandoLCD(temp);
  5318  0A84  0821               	movf	cursorLCD@temp,w
  5319  0A85  120A  158A  21CF  120A  158A  	fcall	_comandoLCD
  5320  0A8A                     l3067:
  5321                           
  5322                           ;LCDD2.c: 57:     if(fila == 2){
  5323  0A8A  3002               	movlw	2
  5324  0A8B  1283               	bcf	3,5	;RP0=0, select bank0
  5325  0A8C  1303               	bcf	3,6	;RP1=0, select bank0
  5326  0A8D  0620               	xorwf	cursorLCD@fila,w
  5327  0A8E  1D03               	btfss	3,2
  5328  0A8F  2A91               	goto	u3961
  5329  0A90  2A92               	goto	u3960
  5330  0A91                     u3961:
  5331  0A91  2A9D               	goto	l269
  5332  0A92                     u3960:
  5333  0A92                     l3069:
  5334                           
  5335                           ;LCDD2.c: 58:         temp = 0XC0 + columna -1;
  5336  0A92  0876               	movf	cursorLCD@columna,w
  5337  0A93  3EBF               	addlw	191
  5338  0A94  00F7               	movwf	??_cursorLCD
  5339  0A95  0877               	movf	??_cursorLCD,w
  5340  0A96  00A1               	movwf	cursorLCD@temp
  5341  0A97                     l3071:
  5342                           
  5343                           ;LCDD2.c: 59:         comandoLCD(temp);
  5344  0A97  0821               	movf	cursorLCD@temp,w
  5345  0A98  120A  158A  21CF  120A  158A  	fcall	_comandoLCD
  5346  0A9D                     l269:
  5347  0A9D  0008               	return
  5348  0A9E                     __end_of_cursorLCD:
  5349                           
  5350                           	psect	text13
  5351  09CF                     __ptext13:	
  5352 ;; *************** function _comandoLCD *****************
  5353 ;; Defined at:
  5354 ;;		line 63 in file "LCDD2.c"
  5355 ;; Parameters:    Size  Location     Type
  5356 ;;  cmd             1    wreg     unsigned char 
  5357 ;; Auto vars:     Size  Location     Type
  5358 ;;  cmd             1    5[COMMON] unsigned char 
  5359 ;; Return value:  Size  Location     Type
  5360 ;;                  1    wreg      void 
  5361 ;; Registers used:
  5362 ;;		wreg
  5363 ;; Tracked objects:
  5364 ;;		On entry : 0/0
  5365 ;;		On exit  : 0/0
  5366 ;;		Unchanged: 0/0
  5367 ;; Data sizes:     COMMON   BANK0   BANK1   BANK3   BANK2
  5368 ;;      Params:         0       0       0       0       0
  5369 ;;      Locals:         1       0       0       0       0
  5370 ;;      Temps:          2       0       0       0       0
  5371 ;;      Totals:         3       0       0       0       0
  5372 ;;Total ram usage:        3 bytes
  5373 ;; Hardware stack levels used:    1
  5374 ;; Hardware stack levels required when called:    1
  5375 ;; This function calls:
  5376 ;;		Nothing
  5377 ;; This function is called by:
  5378 ;;		_initLCD
  5379 ;;		_cursorLCD
  5380 ;;		_ClearLCD
  5381 ;; This function uses a non-reentrant model
  5382 ;;
  5383                           
  5384                           
  5385                           ;psect for function _comandoLCD
  5386  09CF                     _comandoLCD:
  5387                           
  5388                           ;incstack = 0
  5389                           ; Regs used in _comandoLCD: [wreg]
  5390                           ;comandoLCD@cmd stored from wreg
  5391  09CF  00F5               	movwf	comandoLCD@cmd
  5392  09D0                     l2929:
  5393                           
  5394                           ;LCDD2.c: 64:     RE1 = 0;
  5395  09D0  1283               	bcf	3,5	;RP0=0, select bank0
  5396  09D1  1303               	bcf	3,6	;RP1=0, select bank0
  5397  09D2  1089               	bcf	9,1	;volatile
  5398  09D3                     l2931:
  5399                           
  5400                           ;LCDD2.c: 65:     PORTD = cmd;
  5401  09D3  0875               	movf	comandoLCD@cmd,w
  5402  09D4  0088               	movwf	8	;volatile
  5403  09D5                     l2933:
  5404                           
  5405                           ;LCDD2.c: 66:     RE2 = 1;
  5406  09D5  1509               	bsf	9,2	;volatile
  5407                           
  5408                           ;LCDD2.c: 67:     _delay((unsigned long)((4)*(8000000/4000.0)));
  5409  09D6  300B               	movlw	11
  5410  09D7  00F4               	movwf	??_comandoLCD+1
  5411  09D8  3062               	movlw	98
  5412  09D9  00F3               	movwf	??_comandoLCD
  5413  09DA                     u4137:
  5414  09DA  0BF3               	decfsz	??_comandoLCD,f
  5415  09DB  29DA               	goto	u4137
  5416  09DC  0BF4               	decfsz	??_comandoLCD+1,f
  5417  09DD  29DA               	goto	u4137
  5418  09DE  0000               	nop
  5419  09DF                     l2935:
  5420                           
  5421                           ;LCDD2.c: 68:     RE2 = 0;
  5422  09DF  1283               	bcf	3,5	;RP0=0, select bank0
  5423  09E0  1303               	bcf	3,6	;RP1=0, select bank0
  5424  09E1  1109               	bcf	9,2	;volatile
  5425  09E2                     l272:
  5426  09E2  0008               	return
  5427  09E3                     __end_of_comandoLCD:
  5428                           
  5429                           	psect	text14
  5430  0B99                     __ptext14:	
  5431 ;; *************** function ___awmod *****************
  5432 ;; Defined at:
  5433 ;;		line 5 in file "C:\Program Files\Microchip\xc8\v2.31\pic\sources\c90\common\awmod.c"
  5434 ;; Parameters:    Size  Location     Type
  5435 ;;  divisor         2    3[COMMON] int 
  5436 ;;  dividend        2    5[COMMON] int 
  5437 ;; Auto vars:     Size  Location     Type
  5438 ;;  sign            1    1[BANK0 ] unsigned char 
  5439 ;;  counter         1    0[BANK0 ] unsigned char 
  5440 ;; Return value:  Size  Location     Type
  5441 ;;                  2    3[COMMON] int 
  5442 ;; Registers used:
  5443 ;;		wreg, status,2, status,0
  5444 ;; Tracked objects:
  5445 ;;		On entry : 0/0
  5446 ;;		On exit  : 0/0
  5447 ;;		Unchanged: 0/0
  5448 ;; Data sizes:     COMMON   BANK0   BANK1   BANK3   BANK2
  5449 ;;      Params:         4       0       0       0       0
  5450 ;;      Locals:         0       2       0       0       0
  5451 ;;      Temps:          1       0       0       0       0
  5452 ;;      Totals:         5       2       0       0       0
  5453 ;;Total ram usage:        7 bytes
  5454 ;; Hardware stack levels used:    1
  5455 ;; Hardware stack levels required when called:    1
  5456 ;; This function calls:
  5457 ;;		Nothing
  5458 ;; This function is called by:
  5459 ;;		_main
  5460 ;; This function uses a non-reentrant model
  5461 ;;
  5462                           
  5463                           
  5464                           ;psect for function ___awmod
  5465  0B99                     ___awmod:
  5466  0B99                     l3073:	
  5467                           ;incstack = 0
  5468                           ; Regs used in ___awmod: [wreg+status,2+status,0]
  5469                           
  5470  0B99  1283               	bcf	3,5	;RP0=0, select bank0
  5471  0B9A  1303               	bcf	3,6	;RP1=0, select bank0
  5472  0B9B  01A1               	clrf	___awmod@sign
  5473  0B9C                     l3075:
  5474  0B9C  1FF6               	btfss	___awmod@dividend+1,7
  5475  0B9D  2B9F               	goto	u3971
  5476  0B9E  2BA0               	goto	u3970
  5477  0B9F                     u3971:
  5478  0B9F  2BA7               	goto	l3081
  5479  0BA0                     u3970:
  5480  0BA0                     l3077:
  5481  0BA0  09F5               	comf	___awmod@dividend,f
  5482  0BA1  09F6               	comf	___awmod@dividend+1,f
  5483  0BA2  0AF5               	incf	___awmod@dividend,f
  5484  0BA3  1903               	skipnz
  5485  0BA4  0AF6               	incf	___awmod@dividend+1,f
  5486  0BA5                     l3079:
  5487  0BA5  01A1               	clrf	___awmod@sign
  5488  0BA6  0AA1               	incf	___awmod@sign,f
  5489  0BA7                     l3081:
  5490  0BA7  1FF4               	btfss	___awmod@divisor+1,7
  5491  0BA8  2BAA               	goto	u3981
  5492  0BA9  2BAB               	goto	u3980
  5493  0BAA                     u3981:
  5494  0BAA  2BB0               	goto	l3085
  5495  0BAB                     u3980:
  5496  0BAB                     l3083:
  5497  0BAB  09F3               	comf	___awmod@divisor,f
  5498  0BAC  09F4               	comf	___awmod@divisor+1,f
  5499  0BAD  0AF3               	incf	___awmod@divisor,f
  5500  0BAE  1903               	skipnz
  5501  0BAF  0AF4               	incf	___awmod@divisor+1,f
  5502  0BB0                     l3085:
  5503  0BB0  0873               	movf	___awmod@divisor,w
  5504  0BB1  0474               	iorwf	___awmod@divisor+1,w
  5505  0BB2  1903               	btfsc	3,2
  5506  0BB3  2BB5               	goto	u3991
  5507  0BB4  2BB6               	goto	u3990
  5508  0BB5                     u3991:
  5509  0BB5  2BE5               	goto	l3103
  5510  0BB6                     u3990:
  5511  0BB6                     l3087:
  5512  0BB6  01A0               	clrf	___awmod@counter
  5513  0BB7  0AA0               	incf	___awmod@counter,f
  5514  0BB8  2BC4               	goto	l3093
  5515  0BB9                     l3089:
  5516  0BB9  3001               	movlw	1
  5517  0BBA                     u4005:
  5518  0BBA  1003               	clrc
  5519  0BBB  0DF3               	rlf	___awmod@divisor,f
  5520  0BBC  0DF4               	rlf	___awmod@divisor+1,f
  5521  0BBD  3EFF               	addlw	-1
  5522  0BBE  1D03               	skipz
  5523  0BBF  2BBA               	goto	u4005
  5524  0BC0                     l3091:
  5525  0BC0  3001               	movlw	1
  5526  0BC1  00F7               	movwf	??___awmod
  5527  0BC2  0877               	movf	??___awmod,w
  5528  0BC3  07A0               	addwf	___awmod@counter,f
  5529  0BC4                     l3093:
  5530  0BC4  1FF4               	btfss	___awmod@divisor+1,7
  5531  0BC5  2BC7               	goto	u4011
  5532  0BC6  2BC8               	goto	u4010
  5533  0BC7                     u4011:
  5534  0BC7  2BB9               	goto	l3089
  5535  0BC8                     u4010:
  5536  0BC8                     l3095:
  5537  0BC8  0874               	movf	___awmod@divisor+1,w
  5538  0BC9  0276               	subwf	___awmod@dividend+1,w
  5539  0BCA  1D03               	skipz
  5540  0BCB  2BCE               	goto	u4025
  5541  0BCC  0873               	movf	___awmod@divisor,w
  5542  0BCD  0275               	subwf	___awmod@dividend,w
  5543  0BCE                     u4025:
  5544  0BCE  1C03               	skipc
  5545  0BCF  2BD1               	goto	u4021
  5546  0BD0  2BD2               	goto	u4020
  5547  0BD1                     u4021:
  5548  0BD1  2BD8               	goto	l3099
  5549  0BD2                     u4020:
  5550  0BD2                     l3097:
  5551  0BD2  0873               	movf	___awmod@divisor,w
  5552  0BD3  02F5               	subwf	___awmod@dividend,f
  5553  0BD4  0874               	movf	___awmod@divisor+1,w
  5554  0BD5  1C03               	skipc
  5555  0BD6  03F6               	decf	___awmod@dividend+1,f
  5556  0BD7  02F6               	subwf	___awmod@dividend+1,f
  5557  0BD8                     l3099:
  5558  0BD8  3001               	movlw	1
  5559  0BD9                     u4035:
  5560  0BD9  1003               	clrc
  5561  0BDA  0CF4               	rrf	___awmod@divisor+1,f
  5562  0BDB  0CF3               	rrf	___awmod@divisor,f
  5563  0BDC  3EFF               	addlw	-1
  5564  0BDD  1D03               	skipz
  5565  0BDE  2BD9               	goto	u4035
  5566  0BDF                     l3101:
  5567  0BDF  3001               	movlw	1
  5568  0BE0  02A0               	subwf	___awmod@counter,f
  5569  0BE1  1D03               	btfss	3,2
  5570  0BE2  2BE4               	goto	u4041
  5571  0BE3  2BE5               	goto	u4040
  5572  0BE4                     u4041:
  5573  0BE4  2BC8               	goto	l3095
  5574  0BE5                     u4040:
  5575  0BE5                     l3103:
  5576  0BE5  0821               	movf	___awmod@sign,w
  5577  0BE6  1903               	btfsc	3,2
  5578  0BE7  2BE9               	goto	u4051
  5579  0BE8  2BEA               	goto	u4050
  5580  0BE9                     u4051:
  5581  0BE9  2BEF               	goto	l3107
  5582  0BEA                     u4050:
  5583  0BEA                     l3105:
  5584  0BEA  09F5               	comf	___awmod@dividend,f
  5585  0BEB  09F6               	comf	___awmod@dividend+1,f
  5586  0BEC  0AF5               	incf	___awmod@dividend,f
  5587  0BED  1903               	skipnz
  5588  0BEE  0AF6               	incf	___awmod@dividend+1,f
  5589  0BEF                     l3107:
  5590  0BEF  0876               	movf	___awmod@dividend+1,w
  5591  0BF0  00F4               	movwf	?___awmod+1
  5592  0BF1  0875               	movf	___awmod@dividend,w
  5593  0BF2  00F3               	movwf	?___awmod
  5594  0BF3                     l533:
  5595  0BF3  0008               	return
  5596  0BF4                     __end_of___awmod:
  5597                           
  5598                           	psect	text15
  5599  098A                     __ptext15:	
  5600 ;; *************** function _MasterStop_I2C *****************
  5601 ;; Defined at:
  5602 ;;		line 34 in file "I2C.c"
  5603 ;; Parameters:    Size  Location     Type
  5604 ;;		None
  5605 ;; Auto vars:     Size  Location     Type
  5606 ;;		None
  5607 ;; Return value:  Size  Location     Type
  5608 ;;                  1    wreg      void 
  5609 ;; Registers used:
  5610 ;;		wreg, status,2, status,0, pclath, cstack
  5611 ;; Tracked objects:
  5612 ;;		On entry : 0/0
  5613 ;;		On exit  : 0/0
  5614 ;;		Unchanged: 0/0
  5615 ;; Data sizes:     COMMON   BANK0   BANK1   BANK3   BANK2
  5616 ;;      Params:         0       0       0       0       0
  5617 ;;      Locals:         0       0       0       0       0
  5618 ;;      Temps:          0       0       0       0       0
  5619 ;;      Totals:         0       0       0       0       0
  5620 ;;Total ram usage:        0 bytes
  5621 ;; Hardware stack levels used:    1
  5622 ;; Hardware stack levels required when called:    2
  5623 ;; This function calls:
  5624 ;;		_waitCondition
  5625 ;; This function is called by:
  5626 ;;		_main
  5627 ;; This function uses a non-reentrant model
  5628 ;;
  5629                           
  5630                           
  5631                           ;psect for function _MasterStop_I2C
  5632  098A                     _MasterStop_I2C:
  5633  098A                     l2427:	
  5634                           ;incstack = 0
  5635                           ; Regs used in _MasterStop_I2C: [wreg+status,2+status,0+pclath+cstack]
  5636                           
  5637                           
  5638                           ;I2C.c: 35:     waitCondition();
  5639  098A  120A  158A  219E  120A  158A  	fcall	_waitCondition
  5640  098F                     l2429:
  5641                           
  5642                           ;I2C.c: 36:     SSPCON2bits.PEN = 1;
  5643  098F  1683               	bsf	3,5	;RP0=1, select bank1
  5644  0990  1303               	bcf	3,6	;RP1=0, select bank1
  5645  0991  1511               	bsf	17,2	;volatile
  5646  0992                     l167:
  5647  0992  0008               	return
  5648  0993                     __end_of_MasterStop_I2C:
  5649                           
  5650                           	psect	text16
  5651  0981                     __ptext16:	
  5652 ;; *************** function _MasterStart_I2C *****************
  5653 ;; Defined at:
  5654 ;;		line 29 in file "I2C.c"
  5655 ;; Parameters:    Size  Location     Type
  5656 ;;		None
  5657 ;; Auto vars:     Size  Location     Type
  5658 ;;		None
  5659 ;; Return value:  Size  Location     Type
  5660 ;;                  1    wreg      void 
  5661 ;; Registers used:
  5662 ;;		wreg, status,2, status,0, pclath, cstack
  5663 ;; Tracked objects:
  5664 ;;		On entry : 0/0
  5665 ;;		On exit  : 0/0
  5666 ;;		Unchanged: 0/0
  5667 ;; Data sizes:     COMMON   BANK0   BANK1   BANK3   BANK2
  5668 ;;      Params:         0       0       0       0       0
  5669 ;;      Locals:         0       0       0       0       0
  5670 ;;      Temps:          0       0       0       0       0
  5671 ;;      Totals:         0       0       0       0       0
  5672 ;;Total ram usage:        0 bytes
  5673 ;; Hardware stack levels used:    1
  5674 ;; Hardware stack levels required when called:    2
  5675 ;; This function calls:
  5676 ;;		_waitCondition
  5677 ;; This function is called by:
  5678 ;;		_main
  5679 ;; This function uses a non-reentrant model
  5680 ;;
  5681                           
  5682                           
  5683                           ;psect for function _MasterStart_I2C
  5684  0981                     _MasterStart_I2C:
  5685  0981                     l2419:	
  5686                           ;incstack = 0
  5687                           ; Regs used in _MasterStart_I2C: [wreg+status,2+status,0+pclath+cstack]
  5688                           
  5689                           
  5690                           ;I2C.c: 30:     waitCondition();
  5691  0981  120A  158A  219E  120A  158A  	fcall	_waitCondition
  5692  0986                     l2421:
  5693                           
  5694                           ;I2C.c: 31:     SSPCON2bits.SEN = 1;
  5695  0986  1683               	bsf	3,5	;RP0=1, select bank1
  5696  0987  1303               	bcf	3,6	;RP1=0, select bank1
  5697  0988  1411               	bsf	17,0	;volatile
  5698  0989                     l164:
  5699  0989  0008               	return
  5700  098A                     __end_of_MasterStart_I2C:
  5701                           
  5702                           	psect	text17
  5703  0993                     __ptext17:	
  5704 ;; *************** function _MasterSend_I2C *****************
  5705 ;; Defined at:
  5706 ;;		line 44 in file "I2C.c"
  5707 ;; Parameters:    Size  Location     Type
  5708 ;;  dato            1    wreg     unsigned char 
  5709 ;; Auto vars:     Size  Location     Type
  5710 ;;  dato            1    3[COMMON] unsigned char 
  5711 ;; Return value:  Size  Location     Type
  5712 ;;                  1    wreg      void 
  5713 ;; Registers used:
  5714 ;;		wreg, status,2, status,0, pclath, cstack
  5715 ;; Tracked objects:
  5716 ;;		On entry : 0/0
  5717 ;;		On exit  : 0/0
  5718 ;;		Unchanged: 0/0
  5719 ;; Data sizes:     COMMON   BANK0   BANK1   BANK3   BANK2
  5720 ;;      Params:         0       0       0       0       0
  5721 ;;      Locals:         1       0       0       0       0
  5722 ;;      Temps:          0       0       0       0       0
  5723 ;;      Totals:         1       0       0       0       0
  5724 ;;Total ram usage:        1 bytes
  5725 ;; Hardware stack levels used:    1
  5726 ;; Hardware stack levels required when called:    2
  5727 ;; This function calls:
  5728 ;;		_waitCondition
  5729 ;; This function is called by:
  5730 ;;		_main
  5731 ;; This function uses a non-reentrant model
  5732 ;;
  5733                           
  5734                           
  5735                           ;psect for function _MasterSend_I2C
  5736  0993                     _MasterSend_I2C:
  5737                           
  5738                           ;incstack = 0
  5739                           ; Regs used in _MasterSend_I2C: [wreg+status,2+status,0+pclath+cstack]
  5740                           ;MasterSend_I2C@dato stored from wreg
  5741  0993  00F3               	movwf	MasterSend_I2C@dato
  5742  0994                     l2423:
  5743                           
  5744                           ;I2C.c: 45:     waitCondition();
  5745  0994  120A  158A  219E  120A  158A  	fcall	_waitCondition
  5746  0999                     l2425:
  5747                           
  5748                           ;I2C.c: 46:     SSPBUF = dato;
  5749  0999  0873               	movf	MasterSend_I2C@dato,w
  5750  099A  1283               	bcf	3,5	;RP0=0, select bank0
  5751  099B  1303               	bcf	3,6	;RP1=0, select bank0
  5752  099C  0093               	movwf	19	;volatile
  5753  099D                     l173:
  5754  099D  0008               	return
  5755  099E                     __end_of_MasterSend_I2C:
  5756                           
  5757                           	psect	text18
  5758  0978                     __ptext18:	
  5759 ;; *************** function _MasterRepeatS_I2C *****************
  5760 ;; Defined at:
  5761 ;;		line 39 in file "I2C.c"
  5762 ;; Parameters:    Size  Location     Type
  5763 ;;		None
  5764 ;; Auto vars:     Size  Location     Type
  5765 ;;		None
  5766 ;; Return value:  Size  Location     Type
  5767 ;;                  1    wreg      void 
  5768 ;; Registers used:
  5769 ;;		wreg, status,2, status,0, pclath, cstack
  5770 ;; Tracked objects:
  5771 ;;		On entry : 0/0
  5772 ;;		On exit  : 0/0
  5773 ;;		Unchanged: 0/0
  5774 ;; Data sizes:     COMMON   BANK0   BANK1   BANK3   BANK2
  5775 ;;      Params:         0       0       0       0       0
  5776 ;;      Locals:         0       0       0       0       0
  5777 ;;      Temps:          0       0       0       0       0
  5778 ;;      Totals:         0       0       0       0       0
  5779 ;;Total ram usage:        0 bytes
  5780 ;; Hardware stack levels used:    1
  5781 ;; Hardware stack levels required when called:    2
  5782 ;; This function calls:
  5783 ;;		_waitCondition
  5784 ;; This function is called by:
  5785 ;;		_main
  5786 ;; This function uses a non-reentrant model
  5787 ;;
  5788                           
  5789                           
  5790                           ;psect for function _MasterRepeatS_I2C
  5791  0978                     _MasterRepeatS_I2C:
  5792  0978                     l2431:	
  5793                           ;incstack = 0
  5794                           ; Regs used in _MasterRepeatS_I2C: [wreg+status,2+status,0+pclath+cstack]
  5795                           
  5796                           
  5797                           ;I2C.c: 40:     waitCondition();
  5798  0978  120A  158A  219E  120A  158A  	fcall	_waitCondition
  5799  097D                     l2433:
  5800                           
  5801                           ;I2C.c: 41:     SSPCON2bits.RSEN = 1;
  5802  097D  1683               	bsf	3,5	;RP0=1, select bank1
  5803  097E  1303               	bcf	3,6	;RP1=0, select bank1
  5804  097F  1491               	bsf	17,1	;volatile
  5805  0980                     l170:
  5806  0980  0008               	return
  5807  0981                     __end_of_MasterRepeatS_I2C:
  5808                           
  5809                           	psect	text19
  5810  0A32                     __ptext19:	
  5811 ;; *************** function _MasterReceive_I2C *****************
  5812 ;; Defined at:
  5813 ;;		line 49 in file "I2C.c"
  5814 ;; Parameters:    Size  Location     Type
  5815 ;;  valor           1    wreg     PTR unsigned char 
  5816 ;;		 -> TempDEC(1), TempENT(1), 
  5817 ;; Auto vars:     Size  Location     Type
  5818 ;;  valor           1    4[COMMON] PTR unsigned char 
  5819 ;;		 -> TempDEC(1), TempENT(1), 
  5820 ;; Return value:  Size  Location     Type
  5821 ;;                  1    wreg      void 
  5822 ;; Registers used:
  5823 ;;		wreg, fsr0l, fsr0h, status,2, status,0, pclath, cstack
  5824 ;; Tracked objects:
  5825 ;;		On entry : 0/0
  5826 ;;		On exit  : 0/0
  5827 ;;		Unchanged: 0/0
  5828 ;; Data sizes:     COMMON   BANK0   BANK1   BANK3   BANK2
  5829 ;;      Params:         0       0       0       0       0
  5830 ;;      Locals:         1       0       0       0       0
  5831 ;;      Temps:          1       0       0       0       0
  5832 ;;      Totals:         2       0       0       0       0
  5833 ;;Total ram usage:        2 bytes
  5834 ;; Hardware stack levels used:    1
  5835 ;; Hardware stack levels required when called:    2
  5836 ;; This function calls:
  5837 ;;		_waitCondition
  5838 ;; This function is called by:
  5839 ;;		_main
  5840 ;; This function uses a non-reentrant model
  5841 ;;
  5842                           
  5843                           
  5844                           ;psect for function _MasterReceive_I2C
  5845  0A32                     _MasterReceive_I2C:
  5846                           
  5847                           ;incstack = 0
  5848                           ; Regs used in _MasterReceive_I2C: [wreg-fsr0h+status,2+status,0+pclath+cstack]
  5849                           ;MasterReceive_I2C@valor stored from wreg
  5850  0A32  00F4               	movwf	MasterReceive_I2C@valor
  5851  0A33                     l2435:
  5852                           
  5853                           ;I2C.c: 50:     waitCondition();
  5854  0A33  120A  158A  219E  120A  158A  	fcall	_waitCondition
  5855  0A38                     l2437:
  5856                           
  5857                           ;I2C.c: 51:     SSPCON2bits.RCEN = 1;
  5858  0A38  1683               	bsf	3,5	;RP0=1, select bank1
  5859  0A39  1303               	bcf	3,6	;RP1=0, select bank1
  5860  0A3A  1591               	bsf	17,3	;volatile
  5861                           
  5862                           ;I2C.c: 52:     waitCondition();
  5863  0A3B  120A  158A  219E  120A  158A  	fcall	_waitCondition
  5864  0A40                     l2439:
  5865                           
  5866                           ;I2C.c: 53:     *valor = SSPBUF;
  5867  0A40  1283               	bcf	3,5	;RP0=0, select bank0
  5868  0A41  1303               	bcf	3,6	;RP1=0, select bank0
  5869  0A42  0813               	movf	19,w	;volatile
  5870  0A43  00F3               	movwf	??_MasterReceive_I2C
  5871  0A44  0874               	movf	MasterReceive_I2C@valor,w
  5872  0A45  0084               	movwf	4
  5873  0A46  0873               	movf	??_MasterReceive_I2C,w
  5874  0A47  1383               	bcf	3,7	;select IRP bank0
  5875  0A48  0080               	movwf	0
  5876  0A49                     l2441:
  5877                           
  5878                           ;I2C.c: 54:     waitCondition();
  5879  0A49  120A  158A  219E  120A  158A  	fcall	_waitCondition
  5880  0A4E                     l2443:
  5881                           
  5882                           ;I2C.c: 55:     SSPCON2bits.ACKDT = 0;
  5883  0A4E  1683               	bsf	3,5	;RP0=1, select bank1
  5884  0A4F  1303               	bcf	3,6	;RP1=0, select bank1
  5885  0A50  1291               	bcf	17,5	;volatile
  5886  0A51                     l2445:
  5887                           
  5888                           ;I2C.c: 56:     SSPCON2bits.ACKEN = 1;
  5889  0A51  1611               	bsf	17,4	;volatile
  5890  0A52                     l176:
  5891  0A52  0008               	return
  5892  0A53                     __end_of_MasterReceive_I2C:
  5893                           
  5894                           	psect	text20
  5895  099E                     __ptext20:	
  5896 ;; *************** function _waitCondition *****************
  5897 ;; Defined at:
  5898 ;;		line 23 in file "I2C.c"
  5899 ;; Parameters:    Size  Location     Type
  5900 ;;		None
  5901 ;; Auto vars:     Size  Location     Type
  5902 ;;		None
  5903 ;; Return value:  Size  Location     Type
  5904 ;;                  1    wreg      void 
  5905 ;; Registers used:
  5906 ;;		wreg, status,2
  5907 ;; Tracked objects:
  5908 ;;		On entry : 0/0
  5909 ;;		On exit  : 0/0
  5910 ;;		Unchanged: 0/0
  5911 ;; Data sizes:     COMMON   BANK0   BANK1   BANK3   BANK2
  5912 ;;      Params:         0       0       0       0       0
  5913 ;;      Locals:         0       0       0       0       0
  5914 ;;      Temps:          0       0       0       0       0
  5915 ;;      Totals:         0       0       0       0       0
  5916 ;;Total ram usage:        0 bytes
  5917 ;; Hardware stack levels used:    1
  5918 ;; Hardware stack levels required when called:    1
  5919 ;; This function calls:
  5920 ;;		Nothing
  5921 ;; This function is called by:
  5922 ;;		_MasterStart_I2C
  5923 ;;		_MasterStop_I2C
  5924 ;;		_MasterRepeatS_I2C
  5925 ;;		_MasterSend_I2C
  5926 ;;		_MasterReceive_I2C
  5927 ;; This function uses a non-reentrant model
  5928 ;;
  5929                           
  5930                           
  5931                           ;psect for function _waitCondition
  5932  099E                     _waitCondition:
  5933  099E                     l2129:	
  5934                           ;incstack = 0
  5935                           ; Regs used in _waitCondition: [wreg+status,2]
  5936                           
  5937  099E                     l158:	
  5938                           ;I2C.c: 24:     while ((SSPSTAT & 0x04) || (SSPCON2 & 0x1F));
  5939                           
  5940  099E  1683               	bsf	3,5	;RP0=1, select bank1
  5941  099F  1303               	bcf	3,6	;RP1=0, select bank1
  5942  09A0  1914               	btfsc	20,2	;volatile
  5943  09A1  29A3               	goto	u2351
  5944  09A2  29A4               	goto	u2350
  5945  09A3                     u2351:
  5946  09A3  299E               	goto	l158
  5947  09A4                     u2350:
  5948  09A4                     l2131:
  5949  09A4  0811               	movf	17,w	;volatile
  5950  09A5  391F               	andlw	31
  5951  09A6  1D03               	btfss	3,2
  5952  09A7  29A9               	goto	u2361
  5953  09A8  29AA               	goto	u2360
  5954  09A9                     u2361:
  5955  09A9  299E               	goto	l158
  5956  09AA                     u2360:
  5957  09AA                     l161:
  5958  09AA  0008               	return
  5959  09AB                     __end_of_waitCondition:
  5960                           
  5961                           	psect	text21
  5962  0A13                     __ptext21:	
  5963 ;; *************** function _LCDstring *****************
  5964 ;; Defined at:
  5965 ;;		line 75 in file "LCDD2.c"
  5966 ;; Parameters:    Size  Location     Type
  5967 ;;  mensaje         1    wreg     PTR unsigned char 
  5968 ;;		 -> STR_2(8), STR_1(7), 
  5969 ;; Auto vars:     Size  Location     Type
  5970 ;;  mensaje         1    6[COMMON] PTR unsigned char 
  5971 ;;		 -> STR_2(8), STR_1(7), 
  5972 ;; Return value:  Size  Location     Type
  5973 ;;                  1    wreg      void 
  5974 ;; Registers used:
  5975 ;;		wreg, fsr0l, fsr0h, status,2, status,0, pclath, cstack
  5976 ;; Tracked objects:
  5977 ;;		On entry : 0/0
  5978 ;;		On exit  : 0/0
  5979 ;;		Unchanged: 0/0
  5980 ;; Data sizes:     COMMON   BANK0   BANK1   BANK3   BANK2
  5981 ;;      Params:         0       0       0       0       0
  5982 ;;      Locals:         1       0       0       0       0
  5983 ;;      Temps:          1       0       0       0       0
  5984 ;;      Totals:         2       0       0       0       0
  5985 ;;Total ram usage:        2 bytes
  5986 ;; Hardware stack levels used:    1
  5987 ;; Hardware stack levels required when called:    2
  5988 ;; This function calls:
  5989 ;;		_dispCHAR
  5990 ;; This function is called by:
  5991 ;;		_main
  5992 ;; This function uses a non-reentrant model
  5993 ;;
  5994                           
  5995                           
  5996                           ;psect for function _LCDstring
  5997  0A13                     _LCDstring:
  5998                           
  5999                           ;incstack = 0
  6000                           ; Regs used in _LCDstring: [wreg-fsr0h+status,2+status,0+pclath+cstack]
  6001                           ;LCDstring@mensaje stored from wreg
  6002  0A13  00F6               	movwf	LCDstring@mensaje
  6003  0A14                     l2481:
  6004                           
  6005                           ;LCDD2.c: 76:     while(*mensaje != 0x00){
  6006  0A14  2A25               	goto	l2487
  6007  0A15                     l2483:
  6008                           
  6009                           ;LCDD2.c: 77:         dispCHAR(*mensaje);
  6010  0A15  0876               	movf	LCDstring@mensaje,w
  6011  0A16  0084               	movwf	4
  6012  0A17  120A  158A  2000  120A  158A  	fcall	stringdir
  6013  0A1C  120A  118A  27F0  120A  158A  	fcall	_dispCHAR
  6014  0A21                     l2485:
  6015                           
  6016                           ;LCDD2.c: 78:         mensaje ++;
  6017  0A21  3001               	movlw	1
  6018  0A22  00F5               	movwf	??_LCDstring
  6019  0A23  0875               	movf	??_LCDstring,w
  6020  0A24  07F6               	addwf	LCDstring@mensaje,f
  6021  0A25                     l2487:
  6022                           
  6023                           ;LCDD2.c: 76:     while(*mensaje != 0x00){
  6024  0A25  0876               	movf	LCDstring@mensaje,w
  6025  0A26  0084               	movwf	4
  6026  0A27  120A  158A  2000  120A  158A  	fcall	stringdir
  6027  0A2C  3A00               	xorlw	0
  6028  0A2D  1D03               	skipz
  6029  0A2E  2A30               	goto	u3001
  6030  0A2F  2A31               	goto	u3000
  6031  0A30                     u3001:
  6032  0A30  2A15               	goto	l2483
  6033  0A31                     u3000:
  6034  0A31                     l281:
  6035  0A31  0008               	return
  6036  0A32                     __end_of_LCDstring:
  6037                           
  6038                           	psect	text22
  6039  07F0                     __ptext22:	
  6040 ;; *************** function _dispCHAR *****************
  6041 ;; Defined at:
  6042 ;;		line 40 in file "LCDD2.c"
  6043 ;; Parameters:    Size  Location     Type
  6044 ;;  b               1    wreg     unsigned char 
  6045 ;; Auto vars:     Size  Location     Type
  6046 ;;  b               1    4[COMMON] unsigned char 
  6047 ;; Return value:  Size  Location     Type
  6048 ;;                  1    wreg      void 
  6049 ;; Registers used:
  6050 ;;		wreg
  6051 ;; Tracked objects:
  6052 ;;		On entry : 0/0
  6053 ;;		On exit  : 0/0
  6054 ;;		Unchanged: 0/0
  6055 ;; Data sizes:     COMMON   BANK0   BANK1   BANK3   BANK2
  6056 ;;      Params:         0       0       0       0       0
  6057 ;;      Locals:         1       0       0       0       0
  6058 ;;      Temps:          1       0       0       0       0
  6059 ;;      Totals:         2       0       0       0       0
  6060 ;;Total ram usage:        2 bytes
  6061 ;; Hardware stack levels used:    1
  6062 ;; Hardware stack levels required when called:    1
  6063 ;; This function calls:
  6064 ;;		Nothing
  6065 ;; This function is called by:
  6066 ;;		_main
  6067 ;;		_LCDstring
  6068 ;; This function uses a non-reentrant model
  6069 ;;
  6070                           
  6071                           
  6072                           ;psect for function _dispCHAR
  6073  07F0                     _dispCHAR:
  6074                           
  6075                           ;incstack = 0
  6076                           ; Regs used in _dispCHAR: [wreg]
  6077                           ;dispCHAR@b stored from wreg
  6078  07F0  00F4               	movwf	dispCHAR@b
  6079  07F1                     l2077:
  6080                           
  6081                           ;LCDD2.c: 42:     RE1 = 1;
  6082  07F1  1283               	bcf	3,5	;RP0=0, select bank0
  6083  07F2  1303               	bcf	3,6	;RP1=0, select bank0
  6084  07F3  1489               	bsf	9,1	;volatile
  6085  07F4                     l2079:
  6086                           
  6087                           ;LCDD2.c: 43:     PORTD = b;
  6088  07F4  0874               	movf	dispCHAR@b,w
  6089  07F5  0088               	movwf	8	;volatile
  6090  07F6                     l2081:
  6091                           
  6092                           ;LCDD2.c: 44:     RE2 = 1;
  6093  07F6  1509               	bsf	9,2	;volatile
  6094                           
  6095                           ;LCDD2.c: 45:     _delay((unsigned long)((40)*(8000000/4000000.0)));
  6096  07F7  301A               	movlw	26
  6097  07F8  00F3               	movwf	??_dispCHAR
  6098  07F9                     u4147:
  6099  07F9  0BF3               	decfsz	??_dispCHAR,f
  6100  07FA  2FF9               	goto	u4147
  6101  07FB  0000               	nop
  6102  07FC                     l2083:
  6103                           
  6104                           ;LCDD2.c: 46:     RE2 = 0;
  6105  07FC  1283               	bcf	3,5	;RP0=0, select bank0
  6106  07FD  1303               	bcf	3,6	;RP1=0, select bank0
  6107  07FE  1109               	bcf	9,2	;volatile
  6108  07FF                     l264:
  6109  07FF  0008               	return
  6110  0800                     __end_of_dispCHAR:
  6111                           
  6112                           	psect	text23
  6113  09F8                     __ptext23:	
  6114 ;; *************** function _DHT11_START *****************
  6115 ;; Defined at:
  6116 ;;		line 11 in file "DHT11.c"
  6117 ;; Parameters:    Size  Location     Type
  6118 ;;		None
  6119 ;; Auto vars:     Size  Location     Type
  6120 ;;		None
  6121 ;; Return value:  Size  Location     Type
  6122 ;;                  1    wreg      void 
  6123 ;; Registers used:
  6124 ;;		wreg
  6125 ;; Tracked objects:
  6126 ;;		On entry : 0/0
  6127 ;;		On exit  : 0/0
  6128 ;;		Unchanged: 0/0
  6129 ;; Data sizes:     COMMON   BANK0   BANK1   BANK3   BANK2
  6130 ;;      Params:         0       0       0       0       0
  6131 ;;      Locals:         0       0       0       0       0
  6132 ;;      Temps:          2       0       0       0       0
  6133 ;;      Totals:         2       0       0       0       0
  6134 ;;Total ram usage:        2 bytes
  6135 ;; Hardware stack levels used:    1
  6136 ;; Hardware stack levels required when called:    1
  6137 ;; This function calls:
  6138 ;;		Nothing
  6139 ;; This function is called by:
  6140 ;;		_main
  6141 ;; This function uses a non-reentrant model
  6142 ;;
  6143                           
  6144                           
  6145                           ;psect for function _DHT11_START
  6146  09F8                     _DHT11_START:
  6147  09F8                     l2489:	
  6148                           ;incstack = 0
  6149                           ; Regs used in _DHT11_START: [wreg]
  6150                           
  6151                           
  6152                           ;DHT11.c: 15:     TRISEbits.TRISE0 = 0;
  6153  09F8  1683               	bsf	3,5	;RP0=1, select bank1
  6154  09F9  1303               	bcf	3,6	;RP1=0, select bank1
  6155  09FA  1009               	bcf	9,0	;volatile
  6156                           
  6157                           ;DHT11.c: 16:     RE0 = 0;
  6158  09FB  1283               	bcf	3,5	;RP0=0, select bank0
  6159  09FC  1303               	bcf	3,6	;RP1=0, select bank0
  6160  09FD  1009               	bcf	9,0	;volatile
  6161  09FE                     l2491:
  6162                           
  6163                           ;DHT11.c: 17:     _delay((unsigned long)((25)*(8000000/4000.0)));
  6164  09FE  3041               	movlw	65
  6165  09FF  00F4               	movwf	??_DHT11_START+1
  6166  0A00  30EE               	movlw	238
  6167  0A01  00F3               	movwf	??_DHT11_START
  6168  0A02                     u4157:
  6169  0A02  0BF3               	decfsz	??_DHT11_START,f
  6170  0A03  2A02               	goto	u4157
  6171  0A04  0BF4               	decfsz	??_DHT11_START+1,f
  6172  0A05  2A02               	goto	u4157
  6173  0A06  0000               	nop
  6174  0A07                     l2493:
  6175                           
  6176                           ;DHT11.c: 18:     RE0 = 1;
  6177  0A07  1283               	bcf	3,5	;RP0=0, select bank0
  6178  0A08  1303               	bcf	3,6	;RP1=0, select bank0
  6179  0A09  1409               	bsf	9,0	;volatile
  6180                           
  6181                           ;DHT11.c: 19:     _delay((unsigned long)((25)*(8000000/4000000.0)));
  6182  0A0A  3010               	movlw	16
  6183  0A0B  00F3               	movwf	??_DHT11_START
  6184  0A0C                     u4167:
  6185  0A0C  0BF3               	decfsz	??_DHT11_START,f
  6186  0A0D  2A0C               	goto	u4167
  6187  0A0E  0000               	nop
  6188  0A0F                     l2495:
  6189                           
  6190                           ;DHT11.c: 20:     TRISEbits.TRISE0 = 1;
  6191  0A0F  1683               	bsf	3,5	;RP0=1, select bank1
  6192  0A10  1303               	bcf	3,6	;RP1=0, select bank1
  6193  0A11  1409               	bsf	9,0	;volatile
  6194  0A12                     l194:
  6195  0A12  0008               	return
  6196  0A13                     __end_of_DHT11_START:
  6197                           
  6198                           	psect	text24
  6199  0AF3                     __ptext24:	
  6200 ;; *************** function _DHT11_ReadData *****************
  6201 ;; Defined at:
  6202 ;;		line 45 in file "DHT11.c"
  6203 ;; Parameters:    Size  Location     Type
  6204 ;;  datos           1    wreg     PTR unsigned char 
  6205 ;;		 -> CHECKSUM(1), dummyT1(1), Temp1(1), dummyHum1(1), 
  6206 ;;		 -> Hum1(1), 
  6207 ;; Auto vars:     Size  Location     Type
  6208 ;;  datos           1    6[COMMON] PTR unsigned char 
  6209 ;;		 -> CHECKSUM(1), dummyT1(1), Temp1(1), dummyHum1(1), 
  6210 ;;		 -> Hum1(1), 
  6211 ;;  i               1    5[COMMON] unsigned char 
  6212 ;; Return value:  Size  Location     Type
  6213 ;;                  1    wreg      void 
  6214 ;; Registers used:
  6215 ;;		wreg, fsr0l, fsr0h, status,2, status,0
  6216 ;; Tracked objects:
  6217 ;;		On entry : 0/0
  6218 ;;		On exit  : 0/0
  6219 ;;		Unchanged: 0/0
  6220 ;; Data sizes:     COMMON   BANK0   BANK1   BANK3   BANK2
  6221 ;;      Params:         0       0       0       0       0
  6222 ;;      Locals:         2       0       0       0       0
  6223 ;;      Temps:          2       0       0       0       0
  6224 ;;      Totals:         4       0       0       0       0
  6225 ;;Total ram usage:        4 bytes
  6226 ;; Hardware stack levels used:    1
  6227 ;; Hardware stack levels required when called:    1
  6228 ;; This function calls:
  6229 ;;		Nothing
  6230 ;; This function is called by:
  6231 ;;		_main
  6232 ;; This function uses a non-reentrant model
  6233 ;;
  6234                           
  6235                           
  6236                           ;psect for function _DHT11_ReadData
  6237  0AF3                     _DHT11_ReadData:
  6238                           
  6239                           ;incstack = 0
  6240                           ; Regs used in _DHT11_ReadData: [wreg-fsr0h+status,2+status,0]
  6241                           ;DHT11_ReadData@datos stored from wreg
  6242  0AF3  00F6               	movwf	DHT11_ReadData@datos
  6243  0AF4                     l2527:
  6244                           
  6245                           ;DHT11.c: 46:     uint8_t i;;DHT11.c: 47:     *datos = 0;
  6246  0AF4  0876               	movf	DHT11_ReadData@datos,w
  6247  0AF5  0084               	movwf	4
  6248  0AF6  1383               	bcf	3,7	;select IRP bank0
  6249  0AF7  0180               	clrf	0
  6250  0AF8                     l2529:
  6251                           
  6252                           ;DHT11.c: 48:     for(i=0; i<8; i++){
  6253  0AF8  01F5               	clrf	DHT11_ReadData@i
  6254  0AF9                     l216:
  6255  0AF9  1283               	bcf	3,5	;RP0=0, select bank0
  6256  0AFA  1303               	bcf	3,6	;RP1=0, select bank0
  6257  0AFB  1C09               	btfss	9,0	;volatile
  6258  0AFC  2AFE               	goto	u3071
  6259  0AFD  2AFF               	goto	u3070
  6260  0AFE                     u3071:
  6261  0AFE  2AF9               	goto	l216
  6262  0AFF                     u3070:
  6263  0AFF                     l2535:
  6264                           
  6265                           ;DHT11.c: 50:         TMR1H = 0;
  6266  0AFF  018F               	clrf	15	;volatile
  6267                           
  6268                           ;DHT11.c: 51:         TMR1L = 0;
  6269  0B00  018E               	clrf	14	;volatile
  6270  0B01                     l219:	
  6271                           ;DHT11.c: 52:         while(RE0);
  6272                           
  6273  0B01  1809               	btfsc	9,0	;volatile
  6274  0B02  2B04               	goto	u3081
  6275  0B03  2B05               	goto	u3080
  6276  0B04                     u3081:
  6277  0B04  2B01               	goto	l219
  6278  0B05                     u3080:
  6279  0B05                     l2537:
  6280                           
  6281                           ;DHT11.c: 53:         if(TMR1L > 50)*datos |= (1 << (7-i));
  6282  0B05  3033               	movlw	51
  6283  0B06  020E               	subwf	14,w	;volatile
  6284  0B07  1C03               	skipc
  6285  0B08  2B0A               	goto	u3091
  6286  0B09  2B0B               	goto	u3090
  6287  0B0A                     u3091:
  6288  0B0A  2B1D               	goto	l2541
  6289  0B0B                     u3090:
  6290  0B0B                     l2539:
  6291  0B0B  3001               	movlw	1
  6292  0B0C  00F3               	movwf	??_DHT11_ReadData
  6293  0B0D  0875               	movf	DHT11_ReadData@i,w
  6294  0B0E  3C07               	sublw	7
  6295  0B0F  3E01               	addlw	1
  6296  0B10  2B13               	goto	u3104
  6297  0B11                     u3105:
  6298  0B11  1003               	clrc
  6299  0B12  0DF3               	rlf	??_DHT11_ReadData,f
  6300  0B13                     u3104:
  6301  0B13  3EFF               	addlw	-1
  6302  0B14  1D03               	skipz
  6303  0B15  2B11               	goto	u3105
  6304  0B16  0873               	movf	??_DHT11_ReadData,w
  6305  0B17  00F4               	movwf	??_DHT11_ReadData+1
  6306  0B18  0876               	movf	DHT11_ReadData@datos,w
  6307  0B19  0084               	movwf	4
  6308  0B1A  0874               	movf	??_DHT11_ReadData+1,w
  6309  0B1B  1383               	bcf	3,7	;select IRP bank0
  6310  0B1C  0480               	iorwf	0,f
  6311  0B1D                     l2541:
  6312                           
  6313                           ;DHT11.c: 56:     }
  6314  0B1D  3001               	movlw	1
  6315  0B1E  00F3               	movwf	??_DHT11_ReadData
  6316  0B1F  0873               	movf	??_DHT11_ReadData,w
  6317  0B20  07F5               	addwf	DHT11_ReadData@i,f
  6318  0B21                     l2543:
  6319  0B21  3008               	movlw	8
  6320  0B22  0275               	subwf	DHT11_ReadData@i,w
  6321  0B23  1C03               	skipc
  6322  0B24  2B26               	goto	u3111
  6323  0B25  2B27               	goto	u3110
  6324  0B26                     u3111:
  6325  0B26  2AF9               	goto	l216
  6326  0B27                     u3110:
  6327  0B27                     l223:
  6328  0B27  0008               	return
  6329  0B28                     __end_of_DHT11_ReadData:
  6330                           
  6331                           	psect	text25
  6332  0AC7                     __ptext25:	
  6333 ;; *************** function _DHT11_ALIVE *****************
  6334 ;; Defined at:
  6335 ;;		line 24 in file "DHT11.c"
  6336 ;; Parameters:    Size  Location     Type
  6337 ;;		None
  6338 ;; Auto vars:     Size  Location     Type
  6339 ;;		None
  6340 ;; Return value:  Size  Location     Type
  6341 ;;                  1    wreg      unsigned char 
  6342 ;; Registers used:
  6343 ;;		wreg, status,2
  6344 ;; Tracked objects:
  6345 ;;		On entry : 0/0
  6346 ;;		On exit  : 0/0
  6347 ;;		Unchanged: 0/0
  6348 ;; Data sizes:     COMMON   BANK0   BANK1   BANK3   BANK2
  6349 ;;      Params:         0       0       0       0       0
  6350 ;;      Locals:         0       0       0       0       0
  6351 ;;      Temps:          0       0       0       0       0
  6352 ;;      Totals:         0       0       0       0       0
  6353 ;;Total ram usage:        0 bytes
  6354 ;; Hardware stack levels used:    1
  6355 ;; Hardware stack levels required when called:    1
  6356 ;; This function calls:
  6357 ;;		Nothing
  6358 ;; This function is called by:
  6359 ;;		_main
  6360 ;; This function uses a non-reentrant model
  6361 ;;
  6362                           
  6363                           
  6364                           ;psect for function _DHT11_ALIVE
  6365  0AC7                     _DHT11_ALIVE:
  6366  0AC7                     l2497:	
  6367                           ;incstack = 0
  6368                           ; Regs used in _DHT11_ALIVE: [wreg+status,2]
  6369                           
  6370                           
  6371                           ;DHT11.c: 29:     TMR1H = 0;
  6372  0AC7  1283               	bcf	3,5	;RP0=0, select bank0
  6373  0AC8  1303               	bcf	3,6	;RP1=0, select bank0
  6374  0AC9  018F               	clrf	15	;volatile
  6375                           
  6376                           ;DHT11.c: 30:     TMR1L = 0;
  6377  0ACA  018E               	clrf	14	;volatile
  6378  0ACB                     l2499:
  6379                           
  6380                           ;DHT11.c: 31:     T1CONbits.TMR1ON = 1;
  6381  0ACB  1410               	bsf	16,0	;volatile
  6382  0ACC                     l197:	
  6383                           ;DHT11.c: 32:     while(!RE0 && TMR1L < 100);
  6384                           
  6385  0ACC  1809               	btfsc	9,0	;volatile
  6386  0ACD  2ACF               	goto	u3011
  6387  0ACE  2AD0               	goto	u3010
  6388  0ACF                     u3011:
  6389  0ACF  2AD6               	goto	l2503
  6390  0AD0                     u3010:
  6391  0AD0                     l2501:
  6392  0AD0  3064               	movlw	100
  6393  0AD1  020E               	subwf	14,w	;volatile
  6394  0AD2  1C03               	skipc
  6395  0AD3  2AD5               	goto	u3021
  6396  0AD4  2AD6               	goto	u3020
  6397  0AD5                     u3021:
  6398  0AD5  2ACC               	goto	l197
  6399  0AD6                     u3020:
  6400  0AD6                     l2503:
  6401                           
  6402                           ;DHT11.c: 34:     if(TMR1L > 99)return 0;
  6403  0AD6  3064               	movlw	100
  6404  0AD7  020E               	subwf	14,w	;volatile
  6405  0AD8  1C03               	skipc
  6406  0AD9  2ADB               	goto	u3031
  6407  0ADA  2ADC               	goto	u3030
  6408  0ADB                     u3031:
  6409  0ADB  2ADE               	goto	l2511
  6410  0ADC                     u3030:
  6411  0ADC                     l2505:
  6412  0ADC  3000               	movlw	0
  6413  0ADD  2AF2               	goto	l203
  6414  0ADE                     l2511:
  6415                           
  6416                           ;DHT11.c: 36:         TMR1H = 0;
  6417  0ADE  018F               	clrf	15	;volatile
  6418                           
  6419                           ;DHT11.c: 37:         TMR1L = 0;
  6420  0ADF  018E               	clrf	14	;volatile
  6421  0AE0                     l205:	
  6422                           ;DHT11.c: 38:         while(RE0 && TMR1L < 100);
  6423                           
  6424  0AE0  1C09               	btfss	9,0	;volatile
  6425  0AE1  2AE3               	goto	u3041
  6426  0AE2  2AE4               	goto	u3040
  6427  0AE3                     u3041:
  6428  0AE3  2AEA               	goto	l2515
  6429  0AE4                     u3040:
  6430  0AE4                     l2513:
  6431  0AE4  3064               	movlw	100
  6432  0AE5  020E               	subwf	14,w	;volatile
  6433  0AE6  1C03               	skipc
  6434  0AE7  2AE9               	goto	u3051
  6435  0AE8  2AEA               	goto	u3050
  6436  0AE9                     u3051:
  6437  0AE9  2AE0               	goto	l205
  6438  0AEA                     u3050:
  6439  0AEA                     l2515:
  6440                           
  6441                           ;DHT11.c: 40:         if(TMR1L > 99) return 0;
  6442  0AEA  3064               	movlw	100
  6443  0AEB  020E               	subwf	14,w	;volatile
  6444  0AEC  1C03               	skipc
  6445  0AED  2AEF               	goto	u3061
  6446  0AEE  2AF0               	goto	u3060
  6447  0AEF                     u3061:
  6448  0AEF  2AF1               	goto	l2523
  6449  0AF0                     u3060:
  6450  0AF0  2ADC               	goto	l2505
  6451  0AF1                     l2523:
  6452  0AF1  3001               	movlw	1
  6453  0AF2                     l203:
  6454  0AF2  0008               	return
  6455  0AF3                     __end_of_DHT11_ALIVE:
  6456                           
  6457                           	psect	text26
  6458  0B28                     __ptext26:	
  6459 ;; *************** function _CONFIG *****************
  6460 ;; Defined at:
  6461 ;;		line 171 in file "main.c"
  6462 ;; Parameters:    Size  Location     Type
  6463 ;;		None
  6464 ;; Auto vars:     Size  Location     Type
  6465 ;;		None
  6466 ;; Return value:  Size  Location     Type
  6467 ;;                  1    wreg      void 
  6468 ;; Registers used:
  6469 ;;		wreg, status,2, status,0, pclath, cstack
  6470 ;; Tracked objects:
  6471 ;;		On entry : 0/0
  6472 ;;		On exit  : 0/0
  6473 ;;		Unchanged: 0/0
  6474 ;; Data sizes:     COMMON   BANK0   BANK1   BANK3   BANK2
  6475 ;;      Params:         0       0       0       0       0
  6476 ;;      Locals:         0       0       0       0       0
  6477 ;;      Temps:          0       0       0       0       0
  6478 ;;      Totals:         0       0       0       0       0
  6479 ;;Total ram usage:        0 bytes
  6480 ;; Hardware stack levels used:    1
  6481 ;; Hardware stack levels required when called:    3
  6482 ;; This function calls:
  6483 ;;		_MasterInit_I2C
  6484 ;;		_configUART
  6485 ;; This function is called by:
  6486 ;;		_main
  6487 ;; This function uses a non-reentrant model
  6488 ;;
  6489                           
  6490                           
  6491                           ;psect for function _CONFIG
  6492  0B28                     _CONFIG:
  6493  0B28                     l2987:	
  6494                           ;incstack = 0
  6495                           ; Regs used in _CONFIG: [wreg+status,2+status,0+pclath+cstack]
  6496                           
  6497                           
  6498                           ;main.c: 172:     ANSEL = 0X00;
  6499  0B28  1683               	bsf	3,5	;RP0=1, select bank3
  6500  0B29  1703               	bsf	3,6	;RP1=1, select bank3
  6501  0B2A  0188               	clrf	8	;volatile
  6502                           
  6503                           ;main.c: 173:     ANSELH = 0X00;
  6504  0B2B  0189               	clrf	9	;volatile
  6505                           
  6506                           ;main.c: 174:     TRISA = 0X00;
  6507  0B2C  1683               	bsf	3,5	;RP0=1, select bank1
  6508  0B2D  1303               	bcf	3,6	;RP1=0, select bank1
  6509  0B2E  0185               	clrf	5	;volatile
  6510                           
  6511                           ;main.c: 175:     TRISB = 0X00;
  6512  0B2F  0186               	clrf	6	;volatile
  6513                           
  6514                           ;main.c: 176:     TRISD = 0X00;
  6515  0B30  0188               	clrf	8	;volatile
  6516  0B31                     l2989:
  6517                           
  6518                           ;main.c: 177:     TRISEbits.TRISE1 = 0;
  6519  0B31  1089               	bcf	9,1	;volatile
  6520  0B32                     l2991:
  6521                           
  6522                           ;main.c: 178:     TRISEbits.TRISE2 = 0;
  6523  0B32  1109               	bcf	9,2	;volatile
  6524                           
  6525                           ;main.c: 179:     PORTA = 0X00;
  6526  0B33  1283               	bcf	3,5	;RP0=0, select bank0
  6527  0B34  1303               	bcf	3,6	;RP1=0, select bank0
  6528  0B35  0185               	clrf	5	;volatile
  6529                           
  6530                           ;main.c: 180:     PORTB = 0X00;
  6531  0B36  0186               	clrf	6	;volatile
  6532                           
  6533                           ;main.c: 181:     PORTD = 0X00;
  6534  0B37  0188               	clrf	8	;volatile
  6535  0B38                     l2993:
  6536                           
  6537                           ;main.c: 183:     configUART();
  6538  0B38  120A  158A  21BD  120A  158A  	fcall	_configUART
  6539  0B3D                     l2995:
  6540                           
  6541                           ;main.c: 186:     OSCCONbits.IRCF = 0b111;
  6542  0B3D  3070               	movlw	112
  6543  0B3E  1683               	bsf	3,5	;RP0=1, select bank1
  6544  0B3F  1303               	bcf	3,6	;RP1=0, select bank1
  6545  0B40  048F               	iorwf	15,f	;volatile
  6546  0B41                     l2997:
  6547                           
  6548                           ;main.c: 187:     OSCCONbits.SCS = 0b1;
  6549  0B41  140F               	bsf	15,0	;volatile
  6550  0B42                     l2999:
  6551                           
  6552                           ;main.c: 190:     INTCONbits.GIE = 1;
  6553  0B42  178B               	bsf	11,7	;volatile
  6554  0B43                     l3001:
  6555                           
  6556                           ;main.c: 191:     INTCONbits.PEIE = 1;
  6557  0B43  170B               	bsf	11,6	;volatile
  6558  0B44                     l3003:
  6559                           
  6560                           ;main.c: 192:     PIR1bits.RCIF = 0;
  6561  0B44  1283               	bcf	3,5	;RP0=0, select bank0
  6562  0B45  1303               	bcf	3,6	;RP1=0, select bank0
  6563  0B46  128C               	bcf	12,5	;volatile
  6564  0B47                     l3005:
  6565                           
  6566                           ;main.c: 193:     PIE1bits.RCIE = 1;
  6567  0B47  1683               	bsf	3,5	;RP0=1, select bank1
  6568  0B48  1303               	bcf	3,6	;RP1=0, select bank1
  6569  0B49  168C               	bsf	12,5	;volatile
  6570  0B4A                     l3007:
  6571                           
  6572                           ;main.c: 196:     T1CON = 0X10;
  6573  0B4A  3010               	movlw	16
  6574  0B4B  1283               	bcf	3,5	;RP0=0, select bank0
  6575  0B4C  1303               	bcf	3,6	;RP1=0, select bank0
  6576  0B4D  0090               	movwf	16	;volatile
  6577  0B4E                     l3009:
  6578                           
  6579                           ;main.c: 197:     TMR1H = 0;
  6580  0B4E  018F               	clrf	15	;volatile
  6581  0B4F                     l3011:
  6582                           
  6583                           ;main.c: 198:     TMR1L = 0;
  6584  0B4F  018E               	clrf	14	;volatile
  6585  0B50                     l3013:
  6586                           
  6587                           ;main.c: 199:     MasterInit_I2C(100000);
  6588  0B50  3000               	movlw	0
  6589  0B51  00B0               	movwf	MasterInit_I2C@frec+3
  6590  0B52  3001               	movlw	1
  6591  0B53  00AF               	movwf	MasterInit_I2C@frec+2
  6592  0B54  3086               	movlw	134
  6593  0B55  00AE               	movwf	MasterInit_I2C@frec+1
  6594  0B56  30A0               	movlw	160
  6595  0B57  00AD               	movwf	MasterInit_I2C@frec
  6596  0B58  120A  158A  235E  120A  158A  	fcall	_MasterInit_I2C
  6597  0B5D                     l126:
  6598  0B5D  0008               	return
  6599  0B5E                     __end_of_CONFIG:
  6600                           
  6601                           	psect	text27
  6602  09BD                     __ptext27:	
  6603 ;; *************** function _configUART *****************
  6604 ;; Defined at:
  6605 ;;		line 11 in file "UART.c"
  6606 ;; Parameters:    Size  Location     Type
  6607 ;;		None
  6608 ;; Auto vars:     Size  Location     Type
  6609 ;;		None
  6610 ;; Return value:  Size  Location     Type
  6611 ;;                  1    wreg      void 
  6612 ;; Registers used:
  6613 ;;		wreg
  6614 ;; Tracked objects:
  6615 ;;		On entry : 0/0
  6616 ;;		On exit  : 0/0
  6617 ;;		Unchanged: 0/0
  6618 ;; Data sizes:     COMMON   BANK0   BANK1   BANK3   BANK2
  6619 ;;      Params:         0       0       0       0       0
  6620 ;;      Locals:         0       0       0       0       0
  6621 ;;      Temps:          0       0       0       0       0
  6622 ;;      Totals:         0       0       0       0       0
  6623 ;;Total ram usage:        0 bytes
  6624 ;; Hardware stack levels used:    1
  6625 ;; Hardware stack levels required when called:    1
  6626 ;; This function calls:
  6627 ;;		Nothing
  6628 ;; This function is called by:
  6629 ;;		_CONFIG
  6630 ;; This function uses a non-reentrant model
  6631 ;;
  6632                           
  6633                           
  6634                           ;psect for function _configUART
  6635  09BD                     _configUART:
  6636  09BD                     l2085:	
  6637                           ;incstack = 0
  6638                           ; Regs used in _configUART: [wreg]
  6639                           
  6640                           
  6641                           ;UART.c: 13:     TRISCbits.TRISC6 = 0;
  6642  09BD  1683               	bsf	3,5	;RP0=1, select bank1
  6643  09BE  1303               	bcf	3,6	;RP1=0, select bank1
  6644  09BF  1307               	bcf	7,6	;volatile
  6645                           
  6646                           ;UART.c: 14:     TRISCbits.TRISC7 = 1;
  6647  09C0  1787               	bsf	7,7	;volatile
  6648  09C1                     l2087:
  6649                           
  6650                           ;UART.c: 15:     SPBRG = 12;
  6651  09C1  300C               	movlw	12
  6652  09C2  0099               	movwf	25	;volatile
  6653  09C3                     l2089:
  6654                           
  6655                           ;UART.c: 16:     TXSTAbits.BRGH = 0;
  6656  09C3  1118               	bcf	24,2	;volatile
  6657  09C4                     l2091:
  6658                           
  6659                           ;UART.c: 17:     TXSTAbits.TXEN = 1;
  6660  09C4  1698               	bsf	24,5	;volatile
  6661  09C5                     l2093:
  6662                           
  6663                           ;UART.c: 18:     RCSTAbits.CREN = 1;
  6664  09C5  1283               	bcf	3,5	;RP0=0, select bank0
  6665  09C6  1303               	bcf	3,6	;RP1=0, select bank0
  6666  09C7  1618               	bsf	24,4	;volatile
  6667  09C8                     l2095:
  6668                           
  6669                           ;UART.c: 19:     TXSTAbits.SYNC = 0;
  6670  09C8  1683               	bsf	3,5	;RP0=1, select bank1
  6671  09C9  1303               	bcf	3,6	;RP1=0, select bank1
  6672  09CA  1218               	bcf	24,4	;volatile
  6673  09CB                     l2097:
  6674                           
  6675                           ;UART.c: 20:     RCSTAbits.SPEN = 1;
  6676  09CB  1283               	bcf	3,5	;RP0=0, select bank0
  6677  09CC  1303               	bcf	3,6	;RP1=0, select bank0
  6678  09CD  1798               	bsf	24,7	;volatile
  6679  09CE                     l236:
  6680  09CE  0008               	return
  6681  09CF                     __end_of_configUART:
  6682                           
  6683                           	psect	text28
  6684  0B5E                     __ptext28:	
  6685 ;; *************** function _MasterInit_I2C *****************
  6686 ;; Defined at:
  6687 ;;		line 13 in file "I2C.c"
  6688 ;; Parameters:    Size  Location     Type
  6689 ;;  frec            4   13[BANK0 ] unsigned long 
  6690 ;; Auto vars:     Size  Location     Type
  6691 ;;		None
  6692 ;; Return value:  Size  Location     Type
  6693 ;;                  1    wreg      void 
  6694 ;; Registers used:
  6695 ;;		wreg, status,2, status,0, pclath, cstack
  6696 ;; Tracked objects:
  6697 ;;		On entry : 0/0
  6698 ;;		On exit  : 0/0
  6699 ;;		Unchanged: 0/0
  6700 ;; Data sizes:     COMMON   BANK0   BANK1   BANK3   BANK2
  6701 ;;      Params:         0       4       0       0       0
  6702 ;;      Locals:         0       0       0       0       0
  6703 ;;      Temps:          4       0       0       0       0
  6704 ;;      Totals:         4       4       0       0       0
  6705 ;;Total ram usage:        8 bytes
  6706 ;; Hardware stack levels used:    1
  6707 ;; Hardware stack levels required when called:    2
  6708 ;; This function calls:
  6709 ;;		___lldiv
  6710 ;; This function is called by:
  6711 ;;		_CONFIG
  6712 ;; This function uses a non-reentrant model
  6713 ;;
  6714                           
  6715                           
  6716                           ;psect for function _MasterInit_I2C
  6717  0B5E                     _MasterInit_I2C:
  6718  0B5E                     l2899:	
  6719                           ;incstack = 0
  6720                           ; Regs used in _MasterInit_I2C: [wreg+status,2+status,0+pclath+cstack]
  6721                           
  6722                           
  6723                           ;I2C.c: 14:     SSPCON = 0X28;
  6724  0B5E  3028               	movlw	40
  6725  0B5F  1283               	bcf	3,5	;RP0=0, select bank0
  6726  0B60  1303               	bcf	3,6	;RP1=0, select bank0
  6727  0B61  0094               	movwf	20	;volatile
  6728  0B62                     l2901:
  6729                           
  6730                           ;I2C.c: 15:     SSPCON2 = 0X00;
  6731  0B62  1683               	bsf	3,5	;RP0=1, select bank1
  6732  0B63  1303               	bcf	3,6	;RP1=0, select bank1
  6733  0B64  0191               	clrf	17	;volatile
  6734  0B65                     l2903:
  6735                           
  6736                           ;I2C.c: 16:     SSPSTAT = 0X80;
  6737  0B65  3080               	movlw	128
  6738  0B66  0094               	movwf	20	;volatile
  6739  0B67                     l2905:
  6740                           
  6741                           ;I2C.c: 17:     SSPADD = (8000000/(4*frec))-1;
  6742  0B67  1283               	bcf	3,5	;RP0=0, select bank0
  6743  0B68  1303               	bcf	3,6	;RP1=0, select bank0
  6744  0B69  082D               	movf	MasterInit_I2C@frec,w
  6745  0B6A  00F4               	movwf	??_MasterInit_I2C
  6746  0B6B  082E               	movf	MasterInit_I2C@frec+1,w
  6747  0B6C  00F5               	movwf	??_MasterInit_I2C+1
  6748  0B6D  082F               	movf	MasterInit_I2C@frec+2,w
  6749  0B6E  00F6               	movwf	??_MasterInit_I2C+2
  6750  0B6F  0830               	movf	MasterInit_I2C@frec+3,w
  6751  0B70  00F7               	movwf	??_MasterInit_I2C+3
  6752  0B71  3002               	movlw	2
  6753  0B72                     u3785:
  6754  0B72  1003               	clrc
  6755  0B73  0DF4               	rlf	??_MasterInit_I2C,f
  6756  0B74  0DF5               	rlf	??_MasterInit_I2C+1,f
  6757  0B75  0DF6               	rlf	??_MasterInit_I2C+2,f
  6758  0B76  0DF7               	rlf	??_MasterInit_I2C+3,f
  6759  0B77                     u3780:
  6760  0B77  3EFF               	addlw	-1
  6761  0B78  1D03               	skipz
  6762  0B79  2B72               	goto	u3785
  6763  0B7A  0877               	movf	??_MasterInit_I2C+3,w
  6764  0B7B  00A3               	movwf	___lldiv@divisor+3
  6765  0B7C  0876               	movf	??_MasterInit_I2C+2,w
  6766  0B7D  00A2               	movwf	___lldiv@divisor+2
  6767  0B7E  0875               	movf	??_MasterInit_I2C+1,w
  6768  0B7F  00A1               	movwf	___lldiv@divisor+1
  6769  0B80  0874               	movf	??_MasterInit_I2C,w
  6770  0B81  00A0               	movwf	___lldiv@divisor
  6771  0B82  3000               	movlw	0
  6772  0B83  00A7               	movwf	___lldiv@dividend+3
  6773  0B84  307A               	movlw	122
  6774  0B85  00A6               	movwf	___lldiv@dividend+2
  6775  0B86  3012               	movlw	18
  6776  0B87  00A5               	movwf	___lldiv@dividend+1
  6777  0B88  3000               	movlw	0
  6778  0B89  00A4               	movwf	___lldiv@dividend
  6779  0B8A  120A  158A  23F4  120A  158A  	fcall	___lldiv
  6780  0B8F  1283               	bcf	3,5	;RP0=0, select bank0
  6781  0B90  1303               	bcf	3,6	;RP1=0, select bank0
  6782  0B91  0820               	movf	?___lldiv,w
  6783  0B92  3EFF               	addlw	255
  6784  0B93  1683               	bsf	3,5	;RP0=1, select bank1
  6785  0B94  1303               	bcf	3,6	;RP1=0, select bank1
  6786  0B95  0093               	movwf	19	;volatile
  6787  0B96                     l2907:
  6788                           
  6789                           ;I2C.c: 19:     TRISCbits.TRISC3 = 1;
  6790  0B96  1587               	bsf	7,3	;volatile
  6791  0B97                     l2909:
  6792                           
  6793                           ;I2C.c: 20:     TRISCbits.TRISC4 = 1;
  6794  0B97  1607               	bsf	7,4	;volatile
  6795  0B98                     l155:
  6796  0B98  0008               	return
  6797  0B99                     __end_of_MasterInit_I2C:
  6798                           
  6799                           	psect	text29
  6800  0BF4                     __ptext29:	
  6801 ;; *************** function ___lldiv *****************
  6802 ;; Defined at:
  6803 ;;		line 5 in file "C:\Program Files\Microchip\xc8\v2.31\pic\sources\c90\common\__lldiv.c"
  6804 ;; Parameters:    Size  Location     Type
  6805 ;;  divisor         4    0[BANK0 ] unsigned long 
  6806 ;;  dividend        4    4[BANK0 ] unsigned long 
  6807 ;; Auto vars:     Size  Location     Type
  6808 ;;  quotient        4    8[BANK0 ] unsigned long 
  6809 ;;  counter         1   12[BANK0 ] unsigned char 
  6810 ;; Return value:  Size  Location     Type
  6811 ;;                  4    0[BANK0 ] unsigned long 
  6812 ;; Registers used:
  6813 ;;		wreg, status,2, status,0
  6814 ;; Tracked objects:
  6815 ;;		On entry : 0/0
  6816 ;;		On exit  : 0/0
  6817 ;;		Unchanged: 0/0
  6818 ;; Data sizes:     COMMON   BANK0   BANK1   BANK3   BANK2
  6819 ;;      Params:         0       8       0       0       0
  6820 ;;      Locals:         0       5       0       0       0
  6821 ;;      Temps:          1       0       0       0       0
  6822 ;;      Totals:         1      13       0       0       0
  6823 ;;Total ram usage:       14 bytes
  6824 ;; Hardware stack levels used:    1
  6825 ;; Hardware stack levels required when called:    1
  6826 ;; This function calls:
  6827 ;;		Nothing
  6828 ;; This function is called by:
  6829 ;;		_MasterInit_I2C
  6830 ;; This function uses a non-reentrant model
  6831 ;;
  6832                           
  6833                           
  6834                           ;psect for function ___lldiv
  6835  0BF4                     ___lldiv:
  6836  0BF4                     l2681:	
  6837                           ;incstack = 0
  6838                           ; Regs used in ___lldiv: [wreg+status,2+status,0]
  6839                           
  6840  0BF4  3000               	movlw	0
  6841  0BF5  1283               	bcf	3,5	;RP0=0, select bank0
  6842  0BF6  1303               	bcf	3,6	;RP1=0, select bank0
  6843  0BF7  00AB               	movwf	___lldiv@quotient+3
  6844  0BF8  3000               	movlw	0
  6845  0BF9  00AA               	movwf	___lldiv@quotient+2
  6846  0BFA  3000               	movlw	0
  6847  0BFB  00A9               	movwf	___lldiv@quotient+1
  6848  0BFC  3000               	movlw	0
  6849  0BFD  00A8               	movwf	___lldiv@quotient
  6850  0BFE  0823               	movf	___lldiv@divisor+3,w
  6851  0BFF  0422               	iorwf	___lldiv@divisor+2,w
  6852  0C00  0421               	iorwf	___lldiv@divisor+1,w
  6853  0C01  0420               	iorwf	___lldiv@divisor,w
  6854  0C02  1903               	skipnz
  6855  0C03  2C05               	goto	u3251
  6856  0C04  2C06               	goto	u3250
  6857  0C05                     u3251:
  6858  0C05  2C53               	goto	l2701
  6859  0C06                     u3250:
  6860  0C06                     l2683:
  6861  0C06  01AC               	clrf	___lldiv@counter
  6862  0C07  0AAC               	incf	___lldiv@counter,f
  6863  0C08  2C16               	goto	l2687
  6864  0C09                     l2685:
  6865  0C09  3001               	movlw	1
  6866  0C0A  00F3               	movwf	??___lldiv
  6867  0C0B                     u3265:
  6868  0C0B  1003               	clrc
  6869  0C0C  0DA0               	rlf	___lldiv@divisor,f
  6870  0C0D  0DA1               	rlf	___lldiv@divisor+1,f
  6871  0C0E  0DA2               	rlf	___lldiv@divisor+2,f
  6872  0C0F  0DA3               	rlf	___lldiv@divisor+3,f
  6873  0C10  0BF3               	decfsz	??___lldiv,f
  6874  0C11  2C0B               	goto	u3265
  6875  0C12  3001               	movlw	1
  6876  0C13  00F3               	movwf	??___lldiv
  6877  0C14  0873               	movf	??___lldiv,w
  6878  0C15  07AC               	addwf	___lldiv@counter,f
  6879  0C16                     l2687:
  6880  0C16  1FA3               	btfss	___lldiv@divisor+3,7
  6881  0C17  2C19               	goto	u3271
  6882  0C18  2C1A               	goto	u3270
  6883  0C19                     u3271:
  6884  0C19  2C09               	goto	l2685
  6885  0C1A                     u3270:
  6886  0C1A                     l2689:
  6887  0C1A  3001               	movlw	1
  6888  0C1B  00F3               	movwf	??___lldiv
  6889  0C1C                     u3285:
  6890  0C1C  1003               	clrc
  6891  0C1D  0DA8               	rlf	___lldiv@quotient,f
  6892  0C1E  0DA9               	rlf	___lldiv@quotient+1,f
  6893  0C1F  0DAA               	rlf	___lldiv@quotient+2,f
  6894  0C20  0DAB               	rlf	___lldiv@quotient+3,f
  6895  0C21  0BF3               	decfsz	??___lldiv,f
  6896  0C22  2C1C               	goto	u3285
  6897  0C23                     l2691:
  6898  0C23  0823               	movf	___lldiv@divisor+3,w
  6899  0C24  0227               	subwf	___lldiv@dividend+3,w
  6900  0C25  1D03               	skipz
  6901  0C26  2C31               	goto	u3295
  6902  0C27  0822               	movf	___lldiv@divisor+2,w
  6903  0C28  0226               	subwf	___lldiv@dividend+2,w
  6904  0C29  1D03               	skipz
  6905  0C2A  2C31               	goto	u3295
  6906  0C2B  0821               	movf	___lldiv@divisor+1,w
  6907  0C2C  0225               	subwf	___lldiv@dividend+1,w
  6908  0C2D  1D03               	skipz
  6909  0C2E  2C31               	goto	u3295
  6910  0C2F  0820               	movf	___lldiv@divisor,w
  6911  0C30  0224               	subwf	___lldiv@dividend,w
  6912  0C31                     u3295:
  6913  0C31  1C03               	skipc
  6914  0C32  2C34               	goto	u3291
  6915  0C33  2C35               	goto	u3290
  6916  0C34                     u3291:
  6917  0C34  2C44               	goto	l2697
  6918  0C35                     u3290:
  6919  0C35                     l2693:
  6920  0C35  0820               	movf	___lldiv@divisor,w
  6921  0C36  02A4               	subwf	___lldiv@dividend,f
  6922  0C37  0821               	movf	___lldiv@divisor+1,w
  6923  0C38  1C03               	skipc
  6924  0C39  0F21               	incfsz	___lldiv@divisor+1,w
  6925  0C3A  02A5               	subwf	___lldiv@dividend+1,f
  6926  0C3B  0822               	movf	___lldiv@divisor+2,w
  6927  0C3C  1C03               	skipc
  6928  0C3D  0F22               	incfsz	___lldiv@divisor+2,w
  6929  0C3E  02A6               	subwf	___lldiv@dividend+2,f
  6930  0C3F  0823               	movf	___lldiv@divisor+3,w
  6931  0C40  1C03               	skipc
  6932  0C41  0F23               	incfsz	___lldiv@divisor+3,w
  6933  0C42  02A7               	subwf	___lldiv@dividend+3,f
  6934  0C43                     l2695:
  6935  0C43  1428               	bsf	___lldiv@quotient,0
  6936  0C44                     l2697:
  6937  0C44  3001               	movlw	1
  6938  0C45                     u3305:
  6939  0C45  1003               	clrc
  6940  0C46  0CA3               	rrf	___lldiv@divisor+3,f
  6941  0C47  0CA2               	rrf	___lldiv@divisor+2,f
  6942  0C48  0CA1               	rrf	___lldiv@divisor+1,f
  6943  0C49  0CA0               	rrf	___lldiv@divisor,f
  6944  0C4A  3EFF               	addlw	-1
  6945  0C4B  1D03               	skipz
  6946  0C4C  2C45               	goto	u3305
  6947  0C4D                     l2699:
  6948  0C4D  3001               	movlw	1
  6949  0C4E  02AC               	subwf	___lldiv@counter,f
  6950  0C4F  1D03               	btfss	3,2
  6951  0C50  2C52               	goto	u3311
  6952  0C51  2C53               	goto	u3310
  6953  0C52                     u3311:
  6954  0C52  2C1A               	goto	l2689
  6955  0C53                     u3310:
  6956  0C53                     l2701:
  6957  0C53  082B               	movf	___lldiv@quotient+3,w
  6958  0C54  00A3               	movwf	?___lldiv+3
  6959  0C55  082A               	movf	___lldiv@quotient+2,w
  6960  0C56  00A2               	movwf	?___lldiv+2
  6961  0C57  0829               	movf	___lldiv@quotient+1,w
  6962  0C58  00A1               	movwf	?___lldiv+1
  6963  0C59  0828               	movf	___lldiv@quotient,w
  6964  0C5A  00A0               	movwf	?___lldiv
  6965  0C5B                     l403:
  6966  0C5B  0008               	return
  6967  0C5C                     __end_of___lldiv:
  6968                           
  6969                           	psect	text30
  6970  09AB                     __ptext30:	
  6971 ;; *************** function _interrupcion *****************
  6972 ;; Defined at:
  6973 ;;		line 60 in file "main.c"
  6974 ;; Parameters:    Size  Location     Type
  6975 ;;		None
  6976 ;; Auto vars:     Size  Location     Type
  6977 ;;		None
  6978 ;; Return value:  Size  Location     Type
  6979 ;;                  1    wreg      void 
  6980 ;; Registers used:
  6981 ;;		wreg
  6982 ;; Tracked objects:
  6983 ;;		On entry : 0/0
  6984 ;;		On exit  : 0/0
  6985 ;;		Unchanged: 0/0
  6986 ;; Data sizes:     COMMON   BANK0   BANK1   BANK3   BANK2
  6987 ;;      Params:         0       0       0       0       0
  6988 ;;      Locals:         0       0       0       0       0
  6989 ;;      Temps:          3       0       0       0       0
  6990 ;;      Totals:         3       0       0       0       0
  6991 ;;Total ram usage:        3 bytes
  6992 ;; Hardware stack levels used:    1
  6993 ;; This function calls:
  6994 ;;		Nothing
  6995 ;; This function is called by:
  6996 ;;		Interrupt level 1
  6997 ;; This function uses a non-reentrant model
  6998 ;;
  6999                           
  7000                           
  7001                           ;psect for function _interrupcion
  7002  09AB                     _interrupcion:
  7003  09AB                     i1l2583:
  7004                           
  7005                           ;main.c: 62:     if(PIR1bits.RCIF){
  7006  09AB  1283               	bcf	3,5	;RP0=0, select bank0
  7007  09AC  1303               	bcf	3,6	;RP1=0, select bank0
  7008  09AD  1E8C               	btfss	12,5	;volatile
  7009  09AE  29B0               	goto	u321_21
  7010  09AF  29B1               	goto	u321_20
  7011  09B0                     u321_21:
  7012  09B0  29B6               	goto	i1l106
  7013  09B1                     u321_20:
  7014  09B1                     i1l2585:
  7015                           
  7016                           ;main.c: 63:         UARTData = RCREG;
  7017  09B1  081A               	movf	26,w	;volatile
  7018  09B2  00F0               	movwf	??_interrupcion
  7019  09B3  0870               	movf	??_interrupcion,w
  7020  09B4  00E2               	movwf	_UARTData
  7021  09B5                     i1l2587:
  7022                           
  7023                           ;main.c: 64:         PIR1bits.RCIF = 0;
  7024  09B5  128C               	bcf	12,5	;volatile
  7025  09B6                     i1l106:
  7026  09B6  0872               	movf	??_interrupcion+2,w
  7027  09B7  008A               	movwf	10
  7028  09B8  0E71               	swapf	??_interrupcion+1,w
  7029  09B9  0083               	movwf	3
  7030  09BA  0EFE               	swapf	btemp,f
  7031  09BB  0E7E               	swapf	btemp,w
  7032  09BC  0009               	retfie
  7033  09BD                     __end_of_interrupcion:
  7034  007E                     btemp	set	126	;btemp
  7035  007E                     wtemp0	set	126
  7036                           
  7037                           	psect	intentry
  7038  0004                     __pintentry:	
  7039                           ;incstack = 0
  7040                           ; Regs used in _interrupcion: [wreg]
  7041                           
  7042  0004                     interrupt_function:
  7043  007E                     saved_w	set	btemp
  7044  0004  00FE               	movwf	btemp
  7045  0005  0E03               	swapf	3,w
  7046  0006  00F1               	movwf	??_interrupcion+1
  7047  0007  080A               	movf	10,w
  7048  0008  00F2               	movwf	??_interrupcion+2
  7049  0009  120A  158A  29AB   	ljmp	_interrupcion
  7050                           
  7051                           	psect	config
  7052                           
  7053                           ;Config register CONFIG1 @ 0x2007
  7054                           ;	Oscillator Selection bits
  7055                           ;	FOSC = INTRC_NOCLKOUT, INTOSCIO oscillator: I/O function on RA6/OSC2/CLKOUT pin, I/O f
      +                          unction on RA7/OSC1/CLKIN
  7056                           ;	Watchdog Timer Enable bit
  7057                           ;	WDTE = OFF, WDT disabled and can be enabled by SWDTEN bit of the WDTCON register
  7058                           ;	Power-up Timer Enable bit
  7059                           ;	PWRTE = OFF, PWRT disabled
  7060                           ;	RE3/MCLR pin function select bit
  7061                           ;	MCLRE = ON, RE3/MCLR pin function is MCLR
  7062                           ;	Code Protection bit
  7063                           ;	CP = OFF, Program memory code protection is disabled
  7064                           ;	Data Code Protection bit
  7065                           ;	CPD = OFF, Data memory code protection is disabled
  7066                           ;	Brown Out Reset Selection bits
  7067                           ;	BOREN = OFF, BOR disabled
  7068                           ;	Internal External Switchover bit
  7069                           ;	IESO = OFF, Internal/External Switchover mode is disabled
  7070                           ;	Fail-Safe Clock Monitor Enabled bit
  7071                           ;	FCMEN = OFF, Fail-Safe Clock Monitor is disabled
  7072                           ;	Low Voltage Programming Enable bit
  7073                           ;	LVP = OFF, RB3 pin has digital I/O, HV on MCLR must be used for programming
  7074                           ;	In-Circuit Debugger Mode bit
  7075                           ;	DEBUG = 0x1, unprogrammed default
  7076  2007                     	org	8199
  7077  2007  20F4               	dw	8436
  7078                           
  7079                           ;Config register CONFIG2 @ 0x2008
  7080                           ;	Brown-out Reset Selection bit
  7081                           ;	BOR4V = BOR40V, Brown-out Reset set to 4.0V
  7082                           ;	Flash Program Memory Self Write Enable bits
  7083                           ;	WRT = OFF, Write protection off
  7084  2008                     	org	8200
  7085  2008  3FFF               	dw	16383

Data Sizes:
    Strings     15
    Constant    0
    Data        1
    BSS         22
    Persistent  0
    Stack       0

Auto Spaces:
    Space          Size  Autos    Used
    COMMON           14      8      11
    BANK0            80     66      74
    BANK1            80     10      22
    BANK3            96      0       0
    BANK2            96      0       0

Pointer List with Targets:

    LCDstring@mensaje	PTR unsigned char  size(1) Largest target is 8
		 -> STR_2(CODE[8]), STR_1(CODE[7]), 

    DHT11_ReadData@datos	PTR unsigned char  size(1) Largest target is 1
		 -> CHECKSUM(BANK0[1]), dummyT1(BANK0[1]), Temp1(BANK0[1]), dummyHum1(BANK0[1]), 
		 -> Hum1(BANK0[1]), 

    MasterReceive_I2C@valor	PTR unsigned char  size(1) Largest target is 1
		 -> TempDEC(BANK0[1]), TempENT(BANK0[1]), 

    divisiondecimal@cent	PTR unsigned char  size(1) Largest target is 3
		 -> floToChar@digdecimal(BANK0[3]), 

    divisiondecimal@dec	PTR unsigned char  size(1) Largest target is 3
		 -> floToChar@digdecimal(BANK0[3]), 

    divisiondecimal@un	PTR unsigned char  size(1) Largest target is 3
		 -> floToChar@digdecimal(BANK0[3]), 

    floToChar@salida	PTR unsigned char  size(1) Largest target is 6
		 -> TEMPdig(BANK1[6]), 


Critical Paths under _main in COMMON

    _main->___awdiv
    _main->___awmod
    _main->_cursorLCD
    _main->_initLCD
    _initLCD->_comandoLCD
    _divisiondecimal->___awdiv
    ___flsub->___fladd
    ___flsub->___xxtofl
    ___flmul->__Umul8_16
    ___flmul->___xxtofl
    _cursorLCD->_comandoLCD
    _LCDstring->_dispCHAR
    _CONFIG->_MasterInit_I2C
    _MasterInit_I2C->___lldiv

Critical Paths under _interrupcion in COMMON

    None.

Critical Paths under _main in BANK0

    _main->_floToChar
    _floToChar->___fltol
    _divisiondecimal->___awdiv
    ___fltol->___flmul
    ___flsub->___fladd
    ___flmul->___xxtofl
    _CONFIG->_MasterInit_I2C
    _MasterInit_I2C->___lldiv

Critical Paths under _interrupcion in BANK0

    None.

Critical Paths under _main in BANK1

    None.

Critical Paths under _interrupcion in BANK1

    None.

Critical Paths under _main in BANK3

    None.

Critical Paths under _interrupcion in BANK3

    None.

Critical Paths under _main in BANK2

    None.

Critical Paths under _interrupcion in BANK2

    None.

Call Graph Tables:

 ---------------------------------------------------------------------------------
 (Depth) Function   	        Calls       Base Space   Used Autos Params    Refs
 ---------------------------------------------------------------------------------
 (0) _main                                                10    10      0   16117
                                              0 BANK1     10    10      0
                             _CONFIG
                        _DHT11_ALIVE
                     _DHT11_ReadData
                        _DHT11_START
                          _LCDstring
                  _MasterReceive_I2C
                  _MasterRepeatS_I2C
                     _MasterSend_I2C
                    _MasterStart_I2C
                     _MasterStop_I2C
                            ___awdiv
                            ___awmod
                            ___flmul
                           ___xxtofl
                          _cursorLCD
                           _dispCHAR
                          _floToChar
                            _initLCD
 ---------------------------------------------------------------------------------
 (1) _initLCD                                              2     2      0      31
                                              6 COMMON     2     2      0
                         _comandoLCD
 ---------------------------------------------------------------------------------
 (1) _floToChar                                           19    14      5   10005
                                             47 BANK0     19    14      5
                            ___flmul
                            ___flsub
                            ___fltol
                           ___xxtofl
                    _divisiondecimal
 ---------------------------------------------------------------------------------
 (2) _divisiondecimal                                      8     5      3    2045
                                              4 BANK0      8     5      3
                            ___awdiv
                             ___bmul
 ---------------------------------------------------------------------------------
 (3) ___bmul                                               4     3      1     244
                                              3 COMMON     4     3      1
 ---------------------------------------------------------------------------------
 (3) ___awdiv                                              9     5      4     756
                                              3 COMMON     5     1      4
                                              0 BANK0      4     4      0
 ---------------------------------------------------------------------------------
 (2) ___xxtofl                                            14    10      4     656
                                              3 COMMON     4     0      4
                                              0 BANK0     10    10      0
 ---------------------------------------------------------------------------------
 (2) ___fltol                                             11     7      4     381
                                             36 BANK0     11     7      4
                            ___flmul (ARG)
 ---------------------------------------------------------------------------------
 (2) ___flsub                                              8     0      8    3367
                                             16 BANK0      8     0      8
                            ___fladd
                           ___xxtofl (ARG)
 ---------------------------------------------------------------------------------
 (3) ___fladd                                             20    12      8    3122
                                              3 COMMON     4     4      0
                                              0 BANK0     16     8      8
 ---------------------------------------------------------------------------------
 (2) ___flmul                                             26    18      8    2569
                                             10 BANK0     26    18      8
                          __Umul8_16
                           ___xxtofl (ARG)
 ---------------------------------------------------------------------------------
 (3) __Umul8_16                                            9     7      2     799
                                              3 COMMON     4     2      2
                                              0 BANK0      5     5      0
 ---------------------------------------------------------------------------------
 (1) _cursorLCD                                            4     3      1     403
                                              6 COMMON     2     1      1
                                              0 BANK0      2     2      0
                         _comandoLCD
 ---------------------------------------------------------------------------------
 (2) _comandoLCD                                           3     3      0      31
                                              3 COMMON     3     3      0
 ---------------------------------------------------------------------------------
 (1) ___awmod                                              7     3      4     613
                                              3 COMMON     5     1      4
                                              0 BANK0      2     2      0
 ---------------------------------------------------------------------------------
 (1) _MasterStop_I2C                                       0     0      0       0
                      _waitCondition
 ---------------------------------------------------------------------------------
 (1) _MasterStart_I2C                                      0     0      0       0
                      _waitCondition
 ---------------------------------------------------------------------------------
 (1) _MasterSend_I2C                                       1     1      0      22
                                              3 COMMON     1     1      0
                      _waitCondition
 ---------------------------------------------------------------------------------
 (1) _MasterRepeatS_I2C                                    0     0      0       0
                      _waitCondition
 ---------------------------------------------------------------------------------
 (1) _MasterReceive_I2C                                    2     2      0      88
                                              3 COMMON     2     2      0
                      _waitCondition
 ---------------------------------------------------------------------------------
 (2) _waitCondition                                        0     0      0       0
 ---------------------------------------------------------------------------------
 (1) _LCDstring                                            2     2      0     133
                                              5 COMMON     2     2      0
                           _dispCHAR
 ---------------------------------------------------------------------------------
 (1) _dispCHAR                                             2     2      0      22
                                              3 COMMON     2     2      0
 ---------------------------------------------------------------------------------
 (1) _DHT11_START                                          2     2      0       0
                                              3 COMMON     2     2      0
 ---------------------------------------------------------------------------------
 (1) _DHT11_ReadData                                       4     4      0     277
                                              3 COMMON     4     4      0
 ---------------------------------------------------------------------------------
 (1) _DHT11_ALIVE                                          0     0      0       0
 ---------------------------------------------------------------------------------
 (1) _CONFIG                                               0     0      0     542
                     _MasterInit_I2C
                         _configUART
 ---------------------------------------------------------------------------------
 (2) _configUART                                           0     0      0       0
 ---------------------------------------------------------------------------------
 (2) _MasterInit_I2C                                       8     4      4     542
                                              4 COMMON     4     4      0
                                             13 BANK0      4     0      4
                            ___lldiv
 ---------------------------------------------------------------------------------
 (3) ___lldiv                                             14     6      8     421
                                              3 COMMON     1     1      0
                                              0 BANK0     13     5      8
 ---------------------------------------------------------------------------------
 Estimated maximum stack depth 3
 ---------------------------------------------------------------------------------
 (Depth) Function   	        Calls       Base Space   Used Autos Params    Refs
 ---------------------------------------------------------------------------------
 (4) _interrupcion                                         3     3      0       0
                                              0 COMMON     3     3      0
 ---------------------------------------------------------------------------------
 Estimated maximum stack depth 4
 ---------------------------------------------------------------------------------

 Call Graph Graphs:

 _main (ROOT)
   _CONFIG
     _MasterInit_I2C
       ___lldiv
     _configUART
   _DHT11_ALIVE
   _DHT11_ReadData
   _DHT11_START
   _LCDstring
     _dispCHAR
   _MasterReceive_I2C
     _waitCondition
   _MasterRepeatS_I2C
     _waitCondition
   _MasterSend_I2C
     _waitCondition
   _MasterStart_I2C
     _waitCondition
   _MasterStop_I2C
     _waitCondition
   ___awdiv
   ___awmod
   ___flmul
     __Umul8_16
     ___xxtofl (ARG)
   ___xxtofl
   _cursorLCD
     _comandoLCD
   _dispCHAR
   _floToChar
     ___flmul
       __Umul8_16
       ___xxtofl (ARG)
     ___flsub
       ___fladd
       ___xxtofl (ARG)
     ___fltol
       ___flmul (ARG)
         __Umul8_16
         ___xxtofl (ARG)
     ___xxtofl
     _divisiondecimal
       ___awdiv
       ___bmul
   _initLCD
     _comandoLCD

 _interrupcion (ROOT)

 Address spaces:
Name               Size   Autos  Total    Cost      Usage
BANK3               60      0       0       9        0.0%
BITBANK3            60      0       0       8        0.0%
SFR3                 0      0       0       4        0.0%
BITSFR3              0      0       0       4        0.0%
BANK2               60      0       0      11        0.0%
BITBANK2            60      0       0      10        0.0%
SFR2                 0      0       0       5        0.0%
BITSFR2              0      0       0       5        0.0%
BANK1               50      A      16       7       27.5%
BITBANK1            50      0       0       6        0.0%
SFR1                 0      0       0       2        0.0%
BITSFR1              0      0       0       2        0.0%
BANK0               50     42      4A       5       92.5%
BITBANK0            50      0       0       4        0.0%
SFR0                 0      0       0       1        0.0%
BITSFR0              0      0       0       1        0.0%
COMMON               E      8       B       1       78.6%
BITCOMMON            E      0       0       0        0.0%
CODE                 0      0       0       0        0.0%
DATA                 0      0      6B      12        0.0%
ABS                  0      0      6B       3        0.0%
NULL                 0      0       0       0        0.0%
STACK                0      0       0       2        0.0%
EEDATA             100      0       0       0        0.0%


Microchip Technology PIC Macro Assembler V2.31 build 20201012212115 
Symbol Table                                                                                   Fri Aug 20 15:11:58 2021

                         pc 0002              ___bmul@product 0075                ___awdiv@sign 0021  
                        fsr 0004         __Umul8_16@word_mpld 0022                         l111 0DE8  
                       l113 0F13                         l203 0AF2                         l115 0F1A  
                       l116 0F21                         l205 0AE0                         l117 0F28  
                       l126 0B5D                         l118 0F2F                         l223 0B27  
                       l216 0AF9                         l161 09AA                         l129 06E9  
                       l170 0980                         l138 0DBD                         l403 0C5B  
                       l155 0B98                         l219 0B01                         l236 09CE  
                       l164 0989                         l173 099D                         l261 07EF  
                       l158 099E                         l167 0992                         l264 07FF  
                       l176 0A52                         l272 09E2                         l520 0CC4  
                       l281 0A31                         l194 0A12                         l197 0ACC  
                       l533 0BF3                         l269 0A9D                         l702 0617  
                       l703 0623                         l560 0D2B                         l800 070E  
                       l553 0D40                         l393 09F7                         l706 0A76  
                       l802 07A5                         l563 0D40                         l660 03F7  
                       l813 076F                         l814 077B                         l806 0753  
                       l664 04A0                         l681 0571                         l673 0623  
                       l762 02FF                         l666 0475                         l691 05B7  
                       l756 0393                         l685 0595                         l694 05F5  
                       l775 0AB4                         l768 0387                         l777 0AC6  
                       _RE0 0048                         _RE1 0049                         _RE2 004A  
                       fsr0 0004                         indf 0000                ___awmod@sign 0021  
              ___flmul@aexp 003C                ___flmul@bexp 003D                ___flmul@sign 0037  
              ___flmul@temp 0042                ___flmul@prod 003E                ___fltol@exp1 004E  
                      l3001 0B43                        l2201 0061                        l3011 0B4F  
                      l3003 0B44                        l2131 09A4                        l2211 0076  
                      l2203 0066                        l3013 0B50                        l3005 0B47  
                      l3101 0BDF                        l2301 033A                        l2221 0092  
                      l2213 007B                        l2205 006C                        l2141 0CC5  
                      l3021 07B3                        l3007 0B4A                        l3103 0BE5  
                      l2071 0ABD                        l2063 0AA1                        l2311 036D  
                      l2303 0347                        l2231 00BD                        l2223 0097  
                      l2215 0083                        l2207 0070                        l2151 0CF1  
                      l2143 0CD2                        l3031 07D7                        l3023 07B9  
                      l3015 07A6                        l3111 0DBE                        l3009 0B4E  
                      l2081 07F6                        l2129 099E                        l3105 0BEA  
                      l2073 0AC2                        l2065 0AA3                        l2313 037B  
                      l2305 0352                        l2241 015A                        l2233 00DA  
                      l2217 0085                        l2209 0071                        l2153 0CF9  
                      l3041 0639                        l3033 07DD                        l3025 07C2  
                      l3017 07A9                        l3121 0E15                        l3113 0DC8  
                      l2091 09C4                        l2083 07FC                        l3107 0BEF  
                      l2067 0AAA                        l2315 037F                        l2307 0361  
                      l2251 01BD                        l2243 0163                        l2235 00F6  
                      l2227 00A0                        l2219 008D                        l2171 0D20  
                      l2163 0D07                        l2155 0CFB                        l2147 0CDB  
                      l3051 06BA                        l3043 066D                        l3035 07E3  
                      l3027 07C8                        l3019 07AA                        l3203 0F42  
                      l3131 0EAA                        l3123 0E3A                        l3115 0DCB  
                      l2093 09C5                        l2085 09BD                        l2501 0AD0  
                      l2077 07F1                        l2421 0986                        l3061 0A7A  
                      l2069 0AAE                        l2317 0380                        l2309 036B  
                      l2261 025D                        l2253 01D6                        l2245 0173  
                      l2237 0122                        l2229 00B0                        l2173 0D30  
                      l2157 0CFF                        l2165 0D19                        l2149 0CF0  
                      l3053 06C1                        l3045 0697                        l3037 07E9  
                      l3029 07D1                        l3141 0ED4                        l3133 0EB3  
                      l3125 0E79                        l3117 0E04                        l2095 09C8  
                      l2087 09C1                        l2511 0ADE                        l2503 0AD6  
                      l2079 07F4                        l2431 0978                        l2423 0994  
                      l3071 0A97                        l3063 0A7F                        l2319 038B  
                      l2271 02CB                        l2263 0283                        l2255 01F3  
                      l2247 0190                        l2239 013E                        l2191 0045  
                      l2183 0033                        l2175 0D35                        l3055 06D3  
                      l3047 06A9                        l3039 0624                        l3151 0EFA  
                      l3143 0EDD                        l3135 0EBC                        l3127 0E9C  
                      l3119 0E0A                        l2097 09CB                        l2089 09C3  
                      l2513 0AE4                        l2505 0ADC                        l2441 0A49  
                      l2433 097D                        l2425 0999                        l3081 0BA7  
                      l3073 0B99                        l3065 0A84                        l2281 02E3  
                      l2273 02CF                        l2265 02AB                        l2257 0220  
                      l2249 01A0                        l2193 004A                        l2185 003A  
                      l3057 06DD                        l3049 06B3                        l3161 0F36  
                      l3153 0F00                        l3145 0EE6                        l3137 0EC5  
                      l3129 0EA4                        l2523 0AF1                        l2515 0AEA  
                      l2443 0A4E                        l2435 0A33                        l2419 0981  
                      l2427 098A                        l3091 0BC0                        l3083 0BAB  
                      l3075 0B9C                        l3067 0A8A                        l2291 0304  
                      l2283 02E4                        l2275 02D0                        l2267 02B4  
                      l2259 0230                        l2195 004F                        l2187 0040  
                      l3059 06E3                        l3171 0FB8                        l3163 0F53  
                      l3155 0F06                        l3147 0EEC                        l3139 0ECB  
                      l2701 0C53                        l2541 0B1D                        l2445 0A51  
                      l2437 0A38                        l2429 098F                        l3093 0BC4  
                      l3085 0BB0                        l3077 0BA0                        l3069 0A92  
                      l2293 0309                        l2285 02E8                        l2277 02D9  
                      l2269 02C2                        l2197 0057                        l2189 0044  
                      l3173 0FEE                        l3165 0F58                        l3157 0F0C  
                      l3149 0EF2                        l2543 0B21                        l2535 0AFF  
                      l2527 0AF4                        l2439 0A40                        l3095 0BC8  
                      l3087 0BB6                        l3079 0BA5                        l2295 0317  
                      l2287 02FC                        l2279 02DF                        l2199 0059  
                      l2711 03A5                        l1831 0C68                        l3175 0FF1  
                      l3167 0F62                        l2537 0B05                        l2529 0AF8  
                      l2481 0A14                        l3097 0BD2                        l3089 0BB9  
                      l2297 031B                        l2801 049A                        l2721 03B9  
                      l2713 03A6                        l2705 0394                        l1841 0C79  
                      l1833 0C6A                        l1825 0C5C                        l3169 0F80  
                      l2539 0B0B                        l2491 09FE                        l2483 0A15  
                      l3099 0BD8                        l2299 0334                        l2811 04CD  
                      l2803 04A4                        l2731 03CF                        l2715 03AB  
                      l2723 03BB                        l2707 039B                        l1851 0C91  
                      l1843 0C7F                        l1835 0C6E                        l1827 0C5F  
                      l2901 0B62                        l2493 0A07                        l2485 0A21  
                      l2821 04E4                        l2813 04D1                        l2805 04A9  
                      l2741 03E4                        l2733 03D5                        l2725 03C3  
                      l2717 03B0                        l2709 03A1                        l1853 0CA2  
                      l1845 0C82                        l1861 0CB6                        l1837 0C73  
                      l1829 0C63                        l2903 0B65                        l2495 0A0F  
                      l2487 0A25                        l2831 0549                        l2823 04E5  
                      l2815 04D5                        l2751 0401                        l2743 03EC  
                      l2735 03D9                        l2727 03C8                        l2719 03B8  
                      l1863 0CBB                        l1855 0CA8                        l1847 0C89  
                      l1839 0C77                        l1791 09E9                        l2911 0D44  
                      l2681 0BF4                        l2905 0B67                        l2497 0AC7  
                      l2489 09F8                        l2841 057E                        l2833 054F  
                      l2825 04EE                        l2817 04DE                        l2809 04B4  
                      l2761 0415                        l2753 0405                        l2745 03ED  
                      l2737 03DA                        l2729 03CE                        l1865 0CC0  
                      l1857 0CA9                        l1849 0C8D                        l1793 09ED  
                      l2921 0D7E                        l2913 0D48                        l2691 0C23  
                      l2683 0C06                        l2907 0B96                        l2499 0ACB  
                      l2931 09D3                        l2851 0599                        l2835 0554  
                      l2819 04E0                        l2827 04F3                        l2771 0429  
                      l2763 0419                        l2755 0409                        l2739 03DF  
                      l2747 03EF                        l1859 0CB0                        l1795 09EF  
                      l1787 09E4                        l2923 0D85                        l2915 0D4C  
                      l2693 0C35                        l2685 0C09                        l2909 0B97  
                      l2933 09D5                        l2853 059C                        l2845 0587  
                      l2829 050B                        l2837 0563                        l2861 05A9  
                      l2781 043D                        l2773 042D                        l2765 041D  
                      l2757 040D                        l2749 03FD                        l1797 09F6  
                      l1789 09E5                        l2925 0DB0                        l2917 0D4F  
                      l2695 0C43                        l2687 0C16                        l2935 09DF  
                      l2871 05BC                        l2863 05AA                        l2855 059E  
                      l2847 0590                        l2839 0579                        l2791 0484  
                      l2775 0431                        l2767 0421                        l2759 0411  
                      l2783 0441                        l2951 0716                        l2943 06ED  
                      l2927 0DB6                        l2919 0D53                        l2697 0C44  
                      l2689 0C1A                        l2929 09D0                        l2881 05FA  
                      l2873 05C1                        l2865 05AE                        l2857 05A3  
                      l2849 0594                        l2793 0486                        l2785 0442  
                      l2777 0435                        l2769 0425                        l2937 0A53  
                      l2961 0738                        l2945 06F2                        l2699 0C4D  
                      l2891 0611                        l2883 05FF                        l2875 05CF  
                      l2867 05B4                        l2859 05A5                        l2795 048C  
                      l2787 0459                        l2779 0439                        l2939 0A57  
                      l2971 0769                        l2963 073C                        l2955 071F  
                      l2947 06F6                        l2893 0613                        l2885 0607  
                      l2877 05D3                        l2797 048D                        l2789 0479  
                      l2981 079C                        l2973 0773                        l2965 074A  
                      l2957 0724                        l2949 0706                        l2991 0B32  
                      l2895 061E                        l2887 060C                        l2879 05F1  
                      l2799 0496                        l2983 079D                        l2975 077D  
                      l2967 075A                        l2959 0731                        l2993 0B38  
                      l2897 0622                        l2889 060D                        l2977 0793  
                      l2969 0765                        l2899 0B5E                        l2995 0B3D  
                      l2987 0B28                        l2979 0798                        l2997 0B41  
                      l2989 0B31                        l2999 0B42                        STR_1 080E  
                      STR_2 0806                        u3000 0A31                        u3001 0A30  
                      u3010 0AD0                        u3011 0ACF                        u3020 0AD6  
                      u3021 0AD5                        u3030 0ADC                        u3110 0B27  
                      u2310 0AC2                        u3031 0ADB                        u3111 0B26  
                      u2311 0AC1                        u3040 0AE4                        u3104 0B13  
                      u2400 0D06                        u3041 0AE3                        u3105 0B11  
                      u2305 0AB5                        u2401 0D05                        u3050 0AEA  
                      u4010 0BC8                        u3051 0AE9                        u4011 0BC7  
                      u3060 0AF0                        u4020 0BD2                        u2500 0070  
                      u2420 0D18                        u3061 0AEF                        u4021 0BD1  
                      u4005 0BBA                        u2501 006F                        u2421 0D17  
                      u3310 0C53                        u3070 0AFF                        u2350 09A4  
                      u2510 0076                        u2430 0D1F                        u3311 0C52  
                      u3071 0AFE                        u2351 09A3                        u2511 0075  
                      u2431 0D1E                        u2415 0D08                        u3080 0B05  
                      u2360 09AA                        u4040 0BE5                        u2520 007B  
                      u3400 0401                        u3320 03A5                        u1640 09E9  
                      u3305 0C45                        u3081 0B04                        u2361 09A9  
                      u4041 0BE4                        u4025 0BCE                        u2601 0182  
                      u2521 007A                        u3401 0400                        u3321 03A4  
                      u1641 09E8                        u3250 0C06                        u3090 0B0B  
                      u4050 0BEA                        u2290 0AAE                        u2602 0189  
                      u2530 0092                        u3410 0459                        u3330 03AB  
                      u2450 0D30                        u2370 0CD2                        u1810 0CB6  
                      u1730 0C63                        u1650 09F6                        u3251 0C05  
                      u3091 0B0A                        u4051 0BE9                        u4035 0BD9  
                      u2291 0AAD                        u2611 01AF                        u2603 0190  
                      u2531 0091                        u3411 0458                        u3331 03AA  
                      u2451 0D2F                        u2371 0CD1                        u1811 0CB5  
                      u1731 0C62                        u1651 09F5                        u4107 07AE  
                      u2612 01B6                        u2540 0097                        u3420 0464  
                      u3340 03B0                        u2460 0D35                        u2380 0CE9  
                      u1820 0CBB                        u1740 0C6E                        u2613 01BD  
                      u2541 0096                        u3501 04BF                        u3421 0462  
                      u3341 03AF                        u2461 0D34                        u2445 0D22  
                      u1821 0CBA                        u1805 0CAA                        u1741 0C6D  
                      u4117 07BD                        u3270 0C1A                        u2470 0044  
                      u3510 04D1                        u3502 04C6                        u3430 0465  
                      u3350 03CE                        u2390 0CFF                        u1750 0C7F  
                      u4070 0F62                        u3271 0C19                        u2631 01E5  
                      u2551 00E8                        u2471 0043                        u3511 04D0  
                      u3503 04CD                        u3415 0455                        u3351 03CD  
                      u2391 0CFE                        u1751 0C7E                        u4127 07CC  
                      u4071 0F61                        u2800 032A                        u2720 02CF  
                      u2632 01EC                        u2552 00EF                        u2480 004A  
                      u3600 057E                        u3520 04D5                        u3440 0479  
                      u3360 03D9                        u4080 0FB8                        u3265 0C0B  
                      u4137 09DA                        u2721 02CE                        u2705 02AD  
                      u2641 0212                        u2633 01F3                        u2625 01BF  
                      u2561 0104                        u2553 00F6                        u2481 0049  
                      u3601 057D                        u3521 04D4                        u3441 0478  
                      u3361 03D8                        u2385 0CE4                        u4081 0FB7  
                      u4065 0E1C                        u3290 0C35                        u2810 0347  
                      u2642 0219                        u2562 010B                        u2490 004F  
                      u3530 04E4                        u3450 048C                        u3370 03DF  
                      u1770 0C91                        u3291 0C34                        u4147 07F9  
                      u2811 0346                        u2715 02C4                        u2651 023F  
                      u2643 0220                        u2571 0130                        u2563 0112  
                      u2491 004E                        u3531 04E3                        u3451 048B  
                      u3371 03DE                        u1771 0C90                        u2820 0361  
                      u2740 02E3                        u2660 0269                        u2652 0246  
                      u2572 0137                        u3700 05D3                        u3620 0594  
                      u3380 03E4                        u3285 0C1C                        u4157 0A02  
                      u2821 0360                        u2805 0325                        u2741 02E2  
                      u2653 024D                        u2581 014C                        u2573 013E  
                      u3701 05D2                        u3621 0593                        u3381 03E3  
                      u1765 0C83                        u4085 0FB4                        u2830 037F  
                      u2750 02E8                        u2582 0153                        u3710 05E2  
                      u3630 0599                        u3550 050B                        u3470 04A0  
                      u3390 03FD                        u1790 0CA2                        u3295 0C31  
                      u4167 0A0C                        u2831 037E                        u2815 0343  
                      u2751 02E7                        u2735 02D2                        u2671 0275  
                      u2583 015A                        u3631 0598                        u3615 0589  
                      u3551 050A                        u3471 049F                        u3391 03FC  
                      u1791 0CA1                        u2760 02FC                        u2680 0291  
                      u2672 027C                        u3720 05F1                        u3640 05A3  
                      u3480 04A4                        u3800 0DB6                        u2825 035D  
                      u2761 02FB                        u2673 0283                        u2665 0264  
                      u3721 05F0                        u3641 05A2                        u3561 0522  
                      u3553 0507                        u3545 04E7                        u3481 04A3  
                      u3465 048F                        u1785 0C92                        u3801 0DB5  
                      u4097 0FF7                        u2770 0303                        u3730 05FA  
                      u3650 05A9                        u3570 0536                        u3562 0523  
                      u3490 04A9                        u3810 06F2                        u2771 0302  
                      u2691 029D                        u2595 015C                        u3731 05F9  
                      u3715 05DD                        u3651 05A8                        u3571 0537  
                      u3563 0528                        u3491 04A8                        u3811 06F1  
                      u1795 0C9E                        u2780 0309                        u2692 02A4  
                      u3740 05FF                        u3660 05AE                        u3580 0554  
                      u3572 053C                        u3564 0529                        u3900 076F  
                      u3820 06F6                        u2781 0308                        u2693 02AB  
                      u2685 028C                        u3741 05FE                        u3661 05AD  
                      u3581 0553                        u3573 053D                        u3565 052E  
                      u3901 076E                        u3821 06F5                        u2790 031B  
                      u3750 060C                        u3670 05B4                        u3590 0579  
                      u3566 052F                        u3910 0773                        u3830 0716  
                      u2791 031A                        u3751 060B                        u3671 05B3  
                      u3591 0578                        u3911 0772                        u3831 0715  
                      u3760 0611                        u3680 05BB                        u3920 0788  
                      u3761 0610                        u3681 05BA                        u3770 0622  
                      u3690 05C1                        u3930 0798                        u3850 0737  
                      u3771 0621                        u3691 05C0                        u3931 0797  
                      u3851 0736                        u3780 0B77                        u3940 079C  
                      u3941 079B                        u3925 0783                        u3845 0729  
                      u3950 0A7F                        u3870 0759                        u3790 0D84  
                      u3951 0A7E                        u3871 0758                        u3791 0D83  
                      u3960 0A92                        u3785 0B72                        u3961 0A91  
                      u3865 074B                        u3970 0BA0                        u3890 0769  
                      u3971 0B9F                        u3891 0768                        u3980 0BAB  
                      u3981 0BAA                        u3885 075E                        u3990 0BB6  
                      u3991 0BB5                        _Hum1 0067                        _HumR 0078  
      __size_of_DHT11_ALIVE 002C                        _main 0DBE                        _temp 00A4  
                      btemp 007E        __size_of_DHT11_START 001B             _divisiondecimal 0D41  
                      start 000C            ??_DHT11_ReadData 0073         DHT11_ReadData@datos 0076  
         ___bmul@multiplier 0076          __size_of_LCDstring 001F               ___fltol@sign1 004D  
           __end_of___fladd 0624                       ?_main 0070             __end_of___awdiv 0CC5  
           __end_of___awmod 0BF4             __end_of___flmul 0394             __end_of___flsub 0A77  
           __end_of___fltol 0D41                       _ANSEL 0188             __end_of___lldiv 0C5C  
           ___awdiv@divisor 0073                       _T1CON 0010                       i1l106 09B6  
           ___awdiv@counter 0020                       _RCREG 001A                       _TMR1H 000F  
                     _TMR1L 000E                       _SPBRG 0099                       _PORTA 0005  
                     _PORTB 0006                       _PORTD 0008                       _TRISA 0085  
                     _TRISB 0086                       _TRISD 0088                       _TXREG 0019  
                     _Temp1 0069     __size_of_MasterInit_I2C 003B             __end_of_initLCD 07F0  
   __size_of_MasterSend_I2C 000B                       pclath 000A                       status 0003  
                     wtemp0 007E     __size_of_MasterStop_I2C 0009             __initialization 000F  
              __end_of_main 1000         floToChar@digdecimal 005F                      ??_main 00AC  
       divisiondecimal@cent 0026            ___awdiv@dividend 0075     __end_of_divisiondecimal 0DBE  
                    _ANSELH 0189                      _CONFIG 0B28          MasterInit_I2C@frec 002D  
                    i1l2583 09AB                      i1l2585 09B1                      i1l2587 09B5  
         __end_of_LCDstring 0A32                      u321_20 09B1                      u321_21 09B0  
                    _SSPADD 0093                      _SSPCON 0014                      _SSPBUF 0013  
          __end_of___xxtofl 07A6            __end_of_dispCHAR 0800                      ___bmul 09E3  
                 ??___fladd 0028                   ??___awdiv 0077                   ??___awmod 0077  
                 ??___flmul 0032                   ??___flsub 0077                   ??___fltol 0048  
                 ??___lldiv 0073            ___awdiv@quotient 0022             ___awmod@divisor 0073  
           ___awmod@counter 0020                   ??_initLCD 0076                __pdataCOMMON 007A  
        __size_of__Umul8_16 0029                      saved_w 007E       __end_of_waitCondition 09AB  
              ___xxtofl@arg 0026                ___xxtofl@exp 0025                ___xxtofl@val 0073  
   __end_of__initialization 002F    __size_of_MasterStart_I2C 0009                  ___fltol@f1 0044  
    MasterReceive_I2C@valor 0074         ___bmul@multiplicand 0073              __pcstackCOMMON 0070  
             ?_interrupcion 0070          __size_of_floToChar 00C6              _MasterInit_I2C 0B5E  
            _MasterSend_I2C 0993                     ?_CONFIG 0070            ?_divisiondecimal 0024  
                __pbssBANK0 0062                  __pbssBANK1 00A0          __size_of_cursorLCD 0027  
            _MasterStop_I2C 098A           __end_of__Umul8_16 0AC7              ??_interrupcion 0070  
                __pmaintext 0DBE                     ?___bmul 0073                  __pintentry 0004  
    __end_of_MasterInit_I2C 0B99                  _comandoLCD 09CF                  _configUART 09BD  
                 ?___xxtofl 0073      __end_of_MasterSend_I2C 099E                   ?_dispCHAR 0070  
                   _TEMPdig 00A6               ??_DHT11_ALIVE 0073                     _SSPCON2 0091  
                   _SSPSTAT 0094                  __stringtab 0800               ??_DHT11_START 0073  
           __size_of_CONFIG 0036      __end_of_MasterStop_I2C 0993                     _TempDEC 0063  
                   _TempENT 0064           __end_of_floToChar 06EA             __size_of___bmul 0015  
                   ___fladd 0394                     ___awdiv 0C5C           ??_MasterStart_I2C 0073  
                   ___awmod 0B99                     ___flmul 0033                     ___flsub 0A53  
                   ___fltol 0CC5                     ___lldiv 0BF4                     _digTemp 00A0  
                   __ptext1 07A6                     __ptext2 0624                     __ptext3 0D41  
                   __ptext4 09E3                     __ptext5 0C5C                     __ptext6 06EA  
                   __ptext7 0CC5                     __ptext8 0A53                     __ptext9 0394  
                   _initLCD 07A6                   _T1CONbits 0010             ?_MasterInit_I2C 002D  
                   _dummyT1 0068           __end_of_cursorLCD 0A9E                  ??___xxtofl 0020  
          ___awmod@dividend 0075                  ??_dispCHAR 0073             ?_MasterSend_I2C 0070  
      end_of_initialization 002F           _MasterReceive_I2C 0A32             ?_MasterStop_I2C 0070  
       __end_of_DHT11_ALIVE 0AF3                   _LCDstring 0A13          ?_MasterReceive_I2C 0070  
           ___lldiv@divisor 0020         __end_of_DHT11_START 0A13             ___lldiv@counter 002C  
                 _RCSTAbits 0018         ??_MasterReceive_I2C 0073                   _PORTBbits 0006  
   __size_of_DHT11_ReadData 0035                 ?_comandoLCD 0070                 ___fladd@grs 0076  
               ?_configUART 0070           _MasterRepeatS_I2C 0978               ___xxtofl@sign 0024  
                 _TRISCbits 0087                   _TRISEbits 0089          MasterSend_I2C@dato 0073  
        ?_MasterRepeatS_I2C 0070        __end_of_interrupcion 09BD   __end_of_MasterReceive_I2C 0A53  
               ___flmul@grs 0038              __end_of_CONFIG 0B5E         ??_MasterRepeatS_I2C 0073  
                 _TXSTAbits 0098                  ?_LCDstring 0070              __end_of___bmul 09F8  
             __pidataCOMMON 0003   __end_of_MasterRepeatS_I2C 0981         start_initialization 000F  
               _DHT11_ALIVE 0AC7                    ??_CONFIG 0078          divisiondecimal@dec 0025  
        divisiondecimal@div 002B                 _DHT11_START 09F8         __size_of_comandoLCD 0014  
       __size_of_configUART 0012                    ??___bmul 0074                   __Umul8_16 0A9E  
    __size_of_waitCondition 000D                   ___fladd@a 0024                   ___fladd@b 0020  
     divisiondecimal@conteo 002A                   ___flmul@a 002E                   ___flmul@b 002A  
               __pbssCOMMON 0078                   ___flsub@a 0030                   ___flsub@b 0034  
                 ___latbits 0002               __pcstackBANK0 0020               __pcstackBANK1 00AC  
         __size_of___xxtofl 00BC            floToChar@decimal 005C           __size_of_dispCHAR 0010  
__size_of_MasterReceive_I2C 0021             _MasterStart_I2C 0981                 ??_LCDstring 0075  
  __size_of_divisiondecimal 007D                    ?___fladd 0020                    ?___awdiv 0073  
                  ?___awmod 0073                    ?___flmul 002A                    ?___flsub 0030  
                  ?___fltol 0044                    ?___lldiv 0020                  ?__Umul8_16 0073  
          ??_MasterInit_I2C 0074                   _floToChar 0624              _DHT11_ReadData 0AF3  
                 __pstrings 0800  __size_of_MasterRepeatS_I2C 0009            ??_MasterSend_I2C 0073  
     __size_of_interrupcion 0012                    ?_initLCD 0070                    _CHECKSUM 0065  
                 _dummyHum1 0066            ??_MasterStop_I2C 0073                   _cursorLCD 0A77  
             _waitCondition 099E           interrupt_function 0004                    _PIE1bits 008C  
                 dispCHAR@b 0074                    _PIR1bits 000C                    _UARTData 0062  
              _interrupcion 09AB      __end_of_DHT11_ReadData 0B28                  ?_floToChar 004F  
               __stringbase 0805                ??_comandoLCD 0073                ??_configUART 0073  
   __end_of_MasterStart_I2C 098A                  ?_cursorLCD 0076              ?_waitCondition 0070  
         divisiondecimal@un 0024          __end_of_comandoLCD 09E3          __end_of_configUART 09CF  
               ??__Umul8_16 0075             ?_DHT11_ReadData 0070            __size_of___fladd 0290  
          __size_of___awdiv 0069            __size_of___awmod 005B            __size_of___flmul 0361  
          __size_of___flsub 0024            __size_of___fltol 007C            __size_of___lldiv 0068  
         ??_divisiondecimal 0027             DHT11_ReadData@i 0075          __end_of__stringtab 0806  
           floToChar@entero 005E             floToChar@salida 0053            __size_of_initLCD 004A  
                  ___xxtofl 06EA                    _dispCHAR 07F0                    __ptext10 0033  
                  __ptext11 0A9E                    __ptext20 099E                    __ptext12 0A77  
                  __ptext21 0A13                    __ptext13 09CF                    __ptext30 09AB  
                  __ptext22 07F0                    __ptext14 0B99                    __ptext23 09F8  
                  __ptext15 098A                    __ptext24 0AF3                    __ptext16 0981  
                  __ptext25 0AC7                    __ptext17 0993                    __ptext26 0B28  
                  __ptext18 0978                    __ptext27 09BD                    __ptext19 0A32  
                  __ptext28 0B5E                    __ptext29 0BF4            LCDstring@mensaje 0076  
              ?_DHT11_ALIVE 0070                ?_DHT11_START 0070               __size_of_main 0242  
              _slaveAddress 007A               cursorLCD@fila 0020               cursorLCD@temp 0021  
               ??_floToChar 0054                  _INTCONbits 000B             ??_waitCondition 0073  
          ?_MasterStart_I2C 0070                 ??_cursorLCD 0077                    intlevel1 0000  
            floToChar@valor 004F            ___lldiv@dividend 0024                   stringcode 0800  
                _OSCCONbits 008F            cursorLCD@columna 0076      __Umul8_16@multiplicand 0073  
             floToChar@temp 0058            ___lldiv@quotient 0028                    stringdir 0800  
                  stringtab 0800                 _SSPCON2bits 0091               ___fladd@signs 0073  
              ___fladd@aexp 0074                ___fladd@bexp 0075        __Umul8_16@multiplier 0024  
         __Umul8_16@product 0020               comandoLCD@cmd 0075  
