

Microchip MPLAB XC8 Assembler V2.31 build 20201012212115 
                                                                                               Fri Aug 20 09:28:22 2021

Microchip MPLAB XC8 C Compiler v2.31 (Free license) build 20201012212115 Og1 
     1                           	processor	16F887
     2                           	pagewidth 120
     3                           	opt	flic
     4                           	psect	idataCOMMON,global,class=CODE,delta=2,noexec
     5                           	psect	cinit,global,class=CODE,merge=1,delta=2
     6                           	psect	bssCOMMON,global,class=COMMON,space=1,delta=1,noexec
     7                           	psect	dataCOMMON,global,class=COMMON,space=1,delta=1,noexec
     8                           	psect	bssBANK0,global,class=BANK0,space=1,delta=1,noexec
     9                           	psect	bssBANK1,global,class=BANK1,space=1,delta=1,noexec
    10                           	psect	cstackBANK1,global,class=BANK1,space=1,delta=1,noexec
    11                           	psect	cstackCOMMON,global,class=COMMON,space=1,delta=1,noexec
    12                           	psect	cstackBANK0,global,class=BANK0,space=1,delta=1,noexec
    13                           	psect	maintext,global,class=CODE,split=1,delta=2
    14                           	psect	text1,local,class=CODE,merge=1,delta=2
    15                           	psect	text2,local,class=CODE,merge=1,delta=2
    16                           	psect	text3,local,class=CODE,merge=1,delta=2,group=1
    17                           	psect	text4,local,class=CODE,merge=1,delta=2,group=1
    18                           	psect	text5,local,class=CODE,merge=1,delta=2,group=1
    19                           	psect	text6,local,class=CODE,merge=1,delta=2,group=1
    20                           	psect	text7,local,class=CODE,merge=1,delta=2,group=1
    21                           	psect	text8,local,class=CODE,merge=1,delta=2,group=1
    22                           	psect	text9,local,class=CODE,merge=1,delta=2,group=1
    23                           	psect	text10,local,class=CODE,merge=1,delta=2,group=1
    24                           	psect	text11,local,class=CODE,merge=1,delta=2
    25                           	psect	text12,local,class=CODE,merge=1,delta=2,group=1
    26                           	psect	text13,local,class=CODE,merge=1,delta=2
    27                           	psect	text14,local,class=CODE,merge=1,delta=2
    28                           	psect	text15,local,class=CODE,merge=1,delta=2
    29                           	psect	text16,local,class=CODE,merge=1,delta=2
    30                           	psect	text17,local,class=CODE,merge=1,delta=2
    31                           	psect	text18,local,class=CODE,merge=1,delta=2
    32                           	psect	text19,local,class=CODE,merge=1,delta=2
    33                           	psect	text20,local,class=CODE,merge=1,delta=2
    34                           	psect	text21,local,class=CODE,merge=1,delta=2
    35                           	psect	text22,local,class=CODE,merge=1,delta=2
    36                           	psect	text23,local,class=CODE,merge=1,delta=2
    37                           	psect	text24,local,class=CODE,merge=1,delta=2,group=1
    38                           	psect	text25,local,class=CODE,merge=1,delta=2
    39                           	psect	intentry,global,class=CODE,delta=2
    40                           	psect	config,global,abs,ovrld,class=CONFIG,space=4,delta=2,noexec
    41                           	dabs	1,0x7E,2
    42  0000                     
    43                           ; Version 2.20
    44                           ; Generated 12/02/2020 GMT
    45                           ; 
    46                           ; Copyright © 2020, Microchip Technology Inc. and its subsidiaries ("Microchip")
    47                           ; All rights reserved.
    48                           ; 
    49                           ; This software is developed by Microchip Technology Inc. and its subsidiaries ("Microch
      +                          ip").
    50                           ; 
    51                           ; Redistribution and use in source and binary forms, with or without modification, are
    52                           ; permitted provided that the following conditions are met:
    53                           ; 
    54                           ;     1. Redistributions of source code must retain the above copyright notice, this lis
      +                          t of
    55                           ;        conditions and the following disclaimer.
    56                           ; 
    57                           ;     2. Redistributions in binary form must reproduce the above copyright notice, this 
      +                          list
    58                           ;        of conditions and the following disclaimer in the documentation and/or other
    59                           ;        materials provided with the distribution.
    60                           ; 
    61                           ;     3. Microchip's name may not be used to endorse or promote products derived from th
      +                          is
    62                           ;        software without specific prior written permission.
    63                           ; 
    64                           ; THIS SOFTWARE IS PROVIDED BY MICROCHIP "AS IS" AND ANY EXPRESS OR IMPLIED WARRANTIES,
    65                           ; INCLUDING, BUT NOT LIMITED TO, THE IMPLIED WARRANTIES OF MERCHANTABILITY AND FITNESS F
      +                          OR
    66                           ; PURPOSE ARE DISCLAIMED.  IN NO EVENT SHALL MICROCHIP BE LIABLE FOR ANY DIRECT, INDIREC
      +                          T,
    67                           ; INCIDENTAL, SPECIAL, EXEMPLARY, OR CONSEQUENTIAL DAMAGES (INCLUDING BUT NOT LIMITED TO
    68                           ; PROCUREMENT OF SUBSTITUTE GOODS OR SERVICES; LOSS OF USE, DATA OR PROFITS; OR BUSINESS
    69                           ; INTERRUPTION) HOWSOEVER CAUSED AND ON ANY THEORY OF LIABILITY, WHETHER IN CONTRACT, ST
      +                          RICT
    70                           ; LIABILITY, OR TORT (INCLUDING NEGLIGENCE OR OTHERWISE) ARISING IN ANY WAY OUT OF THE U
      +                          SE OF
    71                           ; THIS SOFTWARE, EVEN IF ADVISED OF THE POSSIBILITY OF SUCH DAMAGE.
    72                           ; 
    73                           ; 
    74                           ; Code-generator required, PIC16F887 Definitions
    75                           ; 
    76                           ; SFR Addresses
    77  0000                     	;# 
    78  0001                     	;# 
    79  0002                     	;# 
    80  0003                     	;# 
    81  0004                     	;# 
    82  0005                     	;# 
    83  0006                     	;# 
    84  0007                     	;# 
    85  0008                     	;# 
    86  0009                     	;# 
    87  000A                     	;# 
    88  000B                     	;# 
    89  000C                     	;# 
    90  000D                     	;# 
    91  000E                     	;# 
    92  000E                     	;# 
    93  000F                     	;# 
    94  0010                     	;# 
    95  0011                     	;# 
    96  0012                     	;# 
    97  0013                     	;# 
    98  0014                     	;# 
    99  0015                     	;# 
   100  0015                     	;# 
   101  0016                     	;# 
   102  0017                     	;# 
   103  0018                     	;# 
   104  0019                     	;# 
   105  001A                     	;# 
   106  001B                     	;# 
   107  001B                     	;# 
   108  001C                     	;# 
   109  001D                     	;# 
   110  001E                     	;# 
   111  001F                     	;# 
   112  0081                     	;# 
   113  0085                     	;# 
   114  0086                     	;# 
   115  0087                     	;# 
   116  0088                     	;# 
   117  0089                     	;# 
   118  008C                     	;# 
   119  008D                     	;# 
   120  008E                     	;# 
   121  008F                     	;# 
   122  0090                     	;# 
   123  0091                     	;# 
   124  0092                     	;# 
   125  0093                     	;# 
   126  0093                     	;# 
   127  0093                     	;# 
   128  0094                     	;# 
   129  0095                     	;# 
   130  0096                     	;# 
   131  0097                     	;# 
   132  0098                     	;# 
   133  0099                     	;# 
   134  009A                     	;# 
   135  009B                     	;# 
   136  009C                     	;# 
   137  009D                     	;# 
   138  009E                     	;# 
   139  009F                     	;# 
   140  0105                     	;# 
   141  0107                     	;# 
   142  0108                     	;# 
   143  0109                     	;# 
   144  010C                     	;# 
   145  010C                     	;# 
   146  010D                     	;# 
   147  010E                     	;# 
   148  010F                     	;# 
   149  0185                     	;# 
   150  0187                     	;# 
   151  0188                     	;# 
   152  0189                     	;# 
   153  018C                     	;# 
   154  018D                     	;# 
   155  0000                     	;# 
   156  0001                     	;# 
   157  0002                     	;# 
   158  0003                     	;# 
   159  0004                     	;# 
   160  0005                     	;# 
   161  0006                     	;# 
   162  0007                     	;# 
   163  0008                     	;# 
   164  0009                     	;# 
   165  000A                     	;# 
   166  000B                     	;# 
   167  000C                     	;# 
   168  000D                     	;# 
   169  000E                     	;# 
   170  000E                     	;# 
   171  000F                     	;# 
   172  0010                     	;# 
   173  0011                     	;# 
   174  0012                     	;# 
   175  0013                     	;# 
   176  0014                     	;# 
   177  0015                     	;# 
   178  0015                     	;# 
   179  0016                     	;# 
   180  0017                     	;# 
   181  0018                     	;# 
   182  0019                     	;# 
   183  001A                     	;# 
   184  001B                     	;# 
   185  001B                     	;# 
   186  001C                     	;# 
   187  001D                     	;# 
   188  001E                     	;# 
   189  001F                     	;# 
   190  0081                     	;# 
   191  0085                     	;# 
   192  0086                     	;# 
   193  0087                     	;# 
   194  0088                     	;# 
   195  0089                     	;# 
   196  008C                     	;# 
   197  008D                     	;# 
   198  008E                     	;# 
   199  008F                     	;# 
   200  0090                     	;# 
   201  0091                     	;# 
   202  0092                     	;# 
   203  0093                     	;# 
   204  0093                     	;# 
   205  0093                     	;# 
   206  0094                     	;# 
   207  0095                     	;# 
   208  0096                     	;# 
   209  0097                     	;# 
   210  0098                     	;# 
   211  0099                     	;# 
   212  009A                     	;# 
   213  009B                     	;# 
   214  009C                     	;# 
   215  009D                     	;# 
   216  009E                     	;# 
   217  009F                     	;# 
   218  0105                     	;# 
   219  0107                     	;# 
   220  0108                     	;# 
   221  0109                     	;# 
   222  010C                     	;# 
   223  010C                     	;# 
   224  010D                     	;# 
   225  010E                     	;# 
   226  010F                     	;# 
   227  0185                     	;# 
   228  0187                     	;# 
   229  0188                     	;# 
   230  0189                     	;# 
   231  018C                     	;# 
   232  018D                     	;# 
   233  0000                     	;# 
   234  0001                     	;# 
   235  0002                     	;# 
   236  0003                     	;# 
   237  0004                     	;# 
   238  0005                     	;# 
   239  0006                     	;# 
   240  0007                     	;# 
   241  0008                     	;# 
   242  0009                     	;# 
   243  000A                     	;# 
   244  000B                     	;# 
   245  000C                     	;# 
   246  000D                     	;# 
   247  000E                     	;# 
   248  000E                     	;# 
   249  000F                     	;# 
   250  0010                     	;# 
   251  0011                     	;# 
   252  0012                     	;# 
   253  0013                     	;# 
   254  0014                     	;# 
   255  0015                     	;# 
   256  0015                     	;# 
   257  0016                     	;# 
   258  0017                     	;# 
   259  0018                     	;# 
   260  0019                     	;# 
   261  001A                     	;# 
   262  001B                     	;# 
   263  001B                     	;# 
   264  001C                     	;# 
   265  001D                     	;# 
   266  001E                     	;# 
   267  001F                     	;# 
   268  0081                     	;# 
   269  0085                     	;# 
   270  0086                     	;# 
   271  0087                     	;# 
   272  0088                     	;# 
   273  0089                     	;# 
   274  008C                     	;# 
   275  008D                     	;# 
   276  008E                     	;# 
   277  008F                     	;# 
   278  0090                     	;# 
   279  0091                     	;# 
   280  0092                     	;# 
   281  0093                     	;# 
   282  0093                     	;# 
   283  0093                     	;# 
   284  0094                     	;# 
   285  0095                     	;# 
   286  0096                     	;# 
   287  0097                     	;# 
   288  0098                     	;# 
   289  0099                     	;# 
   290  009A                     	;# 
   291  009B                     	;# 
   292  009C                     	;# 
   293  009D                     	;# 
   294  009E                     	;# 
   295  009F                     	;# 
   296  0105                     	;# 
   297  0107                     	;# 
   298  0108                     	;# 
   299  0109                     	;# 
   300  010C                     	;# 
   301  010C                     	;# 
   302  010D                     	;# 
   303  010E                     	;# 
   304  010F                     	;# 
   305  0185                     	;# 
   306  0187                     	;# 
   307  0188                     	;# 
   308  0189                     	;# 
   309  018C                     	;# 
   310  018D                     	;# 
   311  0000                     	;# 
   312  0001                     	;# 
   313  0002                     	;# 
   314  0003                     	;# 
   315  0004                     	;# 
   316  0005                     	;# 
   317  0006                     	;# 
   318  0007                     	;# 
   319  0008                     	;# 
   320  0009                     	;# 
   321  000A                     	;# 
   322  000B                     	;# 
   323  000C                     	;# 
   324  000D                     	;# 
   325  000E                     	;# 
   326  000E                     	;# 
   327  000F                     	;# 
   328  0010                     	;# 
   329  0011                     	;# 
   330  0012                     	;# 
   331  0013                     	;# 
   332  0014                     	;# 
   333  0015                     	;# 
   334  0015                     	;# 
   335  0016                     	;# 
   336  0017                     	;# 
   337  0018                     	;# 
   338  0019                     	;# 
   339  001A                     	;# 
   340  001B                     	;# 
   341  001B                     	;# 
   342  001C                     	;# 
   343  001D                     	;# 
   344  001E                     	;# 
   345  001F                     	;# 
   346  0081                     	;# 
   347  0085                     	;# 
   348  0086                     	;# 
   349  0087                     	;# 
   350  0088                     	;# 
   351  0089                     	;# 
   352  008C                     	;# 
   353  008D                     	;# 
   354  008E                     	;# 
   355  008F                     	;# 
   356  0090                     	;# 
   357  0091                     	;# 
   358  0092                     	;# 
   359  0093                     	;# 
   360  0093                     	;# 
   361  0093                     	;# 
   362  0094                     	;# 
   363  0095                     	;# 
   364  0096                     	;# 
   365  0097                     	;# 
   366  0098                     	;# 
   367  0099                     	;# 
   368  009A                     	;# 
   369  009B                     	;# 
   370  009C                     	;# 
   371  009D                     	;# 
   372  009E                     	;# 
   373  009F                     	;# 
   374  0105                     	;# 
   375  0107                     	;# 
   376  0108                     	;# 
   377  0109                     	;# 
   378  010C                     	;# 
   379  010C                     	;# 
   380  010D                     	;# 
   381  010E                     	;# 
   382  010F                     	;# 
   383  0185                     	;# 
   384  0187                     	;# 
   385  0188                     	;# 
   386  0189                     	;# 
   387  018C                     	;# 
   388  018D                     	;# 
   389  0000                     	;# 
   390  0001                     	;# 
   391  0002                     	;# 
   392  0003                     	;# 
   393  0004                     	;# 
   394  0005                     	;# 
   395  0006                     	;# 
   396  0007                     	;# 
   397  0008                     	;# 
   398  0009                     	;# 
   399  000A                     	;# 
   400  000B                     	;# 
   401  000C                     	;# 
   402  000D                     	;# 
   403  000E                     	;# 
   404  000E                     	;# 
   405  000F                     	;# 
   406  0010                     	;# 
   407  0011                     	;# 
   408  0012                     	;# 
   409  0013                     	;# 
   410  0014                     	;# 
   411  0015                     	;# 
   412  0015                     	;# 
   413  0016                     	;# 
   414  0017                     	;# 
   415  0018                     	;# 
   416  0019                     	;# 
   417  001A                     	;# 
   418  001B                     	;# 
   419  001B                     	;# 
   420  001C                     	;# 
   421  001D                     	;# 
   422  001E                     	;# 
   423  001F                     	;# 
   424  0081                     	;# 
   425  0085                     	;# 
   426  0086                     	;# 
   427  0087                     	;# 
   428  0088                     	;# 
   429  0089                     	;# 
   430  008C                     	;# 
   431  008D                     	;# 
   432  008E                     	;# 
   433  008F                     	;# 
   434  0090                     	;# 
   435  0091                     	;# 
   436  0092                     	;# 
   437  0093                     	;# 
   438  0093                     	;# 
   439  0093                     	;# 
   440  0094                     	;# 
   441  0095                     	;# 
   442  0096                     	;# 
   443  0097                     	;# 
   444  0098                     	;# 
   445  0099                     	;# 
   446  009A                     	;# 
   447  009B                     	;# 
   448  009C                     	;# 
   449  009D                     	;# 
   450  009E                     	;# 
   451  009F                     	;# 
   452  0105                     	;# 
   453  0107                     	;# 
   454  0108                     	;# 
   455  0109                     	;# 
   456  010C                     	;# 
   457  010C                     	;# 
   458  010D                     	;# 
   459  010E                     	;# 
   460  010F                     	;# 
   461  0185                     	;# 
   462  0187                     	;# 
   463  0188                     	;# 
   464  0189                     	;# 
   465  018C                     	;# 
   466  018D                     	;# 
   467                           
   468                           	psect	idataCOMMON
   469  07FF                     __pidataCOMMON:
   470                           
   471                           ;initializer for _SlaveAddress
   472  07FF  3420               	retlw	32
   473  0019                     _TXREG	set	25
   474  0018                     _RCSTAbits	set	24
   475  0013                     _SSPBUF	set	19
   476  0014                     _SSPCON	set	20
   477  0010                     _T1CON	set	16
   478  000B                     _INTCONbits	set	11
   479  0008                     _PORTD	set	8
   480  0006                     _PORTB	set	6
   481  0005                     _PORTA	set	5
   482  0010                     _T1CONbits	set	16
   483  0006                     _PORTBbits	set	6
   484  000E                     _TMR1L	set	14
   485  000F                     _TMR1H	set	15
   486  001A                     _RCREG	set	26
   487  000C                     _PIR1bits	set	12
   488  0048                     _RE0	set	72
   489  0098                     _TXSTAbits	set	152
   490  0099                     _SPBRG	set	153
   491  0091                     _SSPCON2bits	set	145
   492  0087                     _TRISCbits	set	135
   493  0093                     _SSPADD	set	147
   494  0094                     _SSPSTAT	set	148
   495  0091                     _SSPCON2	set	145
   496  008C                     _PIE1bits	set	140
   497  008F                     _OSCCONbits	set	143
   498  0089                     _TRISEbits	set	137
   499  0088                     _TRISD	set	136
   500  0086                     _TRISB	set	134
   501  0085                     _TRISA	set	133
   502  0189                     _ANSELH	set	393
   503  0188                     _ANSEL	set	392
   504                           
   505                           	psect	cinit
   506  000F                     start_initialization:	
   507                           ; #config settings
   508                           
   509  000F                     __initialization:
   510                           
   511                           ; Initialize objects allocated to COMMON
   512  000F  120A  118A  27FF  120A  118A  	fcall	__pidataCOMMON	;fetch initializer
   513  0014  00FA               	movwf	__pdataCOMMON& (0+127)
   514                           
   515                           ; Clear objects allocated to BANK1
   516  0015  1683               	bsf	3,5	;RP0=1, select bank1
   517  0016  1303               	bcf	3,6	;RP1=0, select bank1
   518  0017  01A0               	clrf	__pbssBANK1& (0+127)
   519  0018  01A1               	clrf	(__pbssBANK1+1)& (0+127)
   520  0019  01A2               	clrf	(__pbssBANK1+2)& (0+127)
   521  001A  01A3               	clrf	(__pbssBANK1+3)& (0+127)
   522  001B  01A4               	clrf	(__pbssBANK1+4)& (0+127)
   523  001C  01A5               	clrf	(__pbssBANK1+5)& (0+127)
   524  001D  01A6               	clrf	(__pbssBANK1+6)& (0+127)
   525  001E  01A7               	clrf	(__pbssBANK1+7)& (0+127)
   526  001F  01A8               	clrf	(__pbssBANK1+8)& (0+127)
   527  0020  01A9               	clrf	(__pbssBANK1+9)& (0+127)
   528  0021  01AA               	clrf	(__pbssBANK1+10)& (0+127)
   529  0022  01AB               	clrf	(__pbssBANK1+11)& (0+127)
   530                           
   531                           ; Clear objects allocated to BANK0
   532  0023  1283               	bcf	3,5	;RP0=0, select bank0
   533  0024  1303               	bcf	3,6	;RP1=0, select bank0
   534  0025  01E1               	clrf	__pbssBANK0& (0+127)
   535  0026  01E2               	clrf	(__pbssBANK0+1)& (0+127)
   536  0027  01E3               	clrf	(__pbssBANK0+2)& (0+127)
   537  0028  01E4               	clrf	(__pbssBANK0+3)& (0+127)
   538  0029  01E5               	clrf	(__pbssBANK0+4)& (0+127)
   539  002A  01E6               	clrf	(__pbssBANK0+5)& (0+127)
   540  002B  01E7               	clrf	(__pbssBANK0+6)& (0+127)
   541  002C  01E8               	clrf	(__pbssBANK0+7)& (0+127)
   542                           
   543                           ; Clear objects allocated to COMMON
   544  002D  01F8               	clrf	__pbssCOMMON& (0+127)
   545  002E  01F9               	clrf	(__pbssCOMMON+1)& (0+127)
   546  002F                     end_of_initialization:	
   547                           ;End of C runtime variable initialization code
   548                           
   549  002F                     __end_of__initialization:
   550  002F  0183               	clrf	3
   551  0030  120A  118A  2E24   	ljmp	_main	;jump to C main() function
   552                           
   553                           	psect	bssCOMMON
   554  0078                     __pbssCOMMON:
   555  0078                     _temp:
   556  0078                     	ds	2
   557                           
   558                           	psect	dataCOMMON
   559  007A                     __pdataCOMMON:
   560  007A                     _SlaveAddress:
   561  007A                     	ds	1
   562                           
   563                           	psect	bssBANK0
   564  0061                     __pbssBANK0:
   565  0061                     _UARTData:
   566  0061                     	ds	1
   567  0062                     _TempDEC:
   568  0062                     	ds	1
   569  0063                     _TempENT:
   570  0063                     	ds	1
   571  0064                     _CHECKSUM:
   572  0064                     	ds	1
   573  0065                     _dummyHum1:
   574  0065                     	ds	1
   575  0066                     _Hum1:
   576  0066                     	ds	1
   577  0067                     _dummyT1:
   578  0067                     	ds	1
   579  0068                     _Temp1:
   580  0068                     	ds	1
   581                           
   582                           	psect	bssBANK1
   583  00A0                     __pbssBANK1:
   584  00A0                     _digTemp:
   585  00A0                     	ds	4
   586  00A4                     _HumR:
   587  00A4                     	ds	2
   588  00A6                     _TEMPdig:
   589  00A6                     	ds	6
   590                           
   591                           	psect	cstackBANK1
   592  00AC                     __pcstackBANK1:
   593  00AC                     ??_main:
   594                           
   595                           ; 1 bytes @ 0x0
   596  00AC                     	ds	10
   597                           
   598                           	psect	cstackCOMMON
   599  0070                     __pcstackCOMMON:
   600  0070                     ?_CONFIG:
   601  0070                     ?_configUART:	
   602                           ; 1 bytes @ 0x0
   603                           
   604  0070                     ?_MasterStart_I2C:	
   605                           ; 1 bytes @ 0x0
   606                           
   607  0070                     ?_MasterSend_I2C:	
   608                           ; 1 bytes @ 0x0
   609                           
   610  0070                     ?_MasterStop_I2C:	
   611                           ; 1 bytes @ 0x0
   612                           
   613  0070                     ?_MasterRepeatS_I2C:	
   614                           ; 1 bytes @ 0x0
   615                           
   616  0070                     ?_MasterReceive_I2C:	
   617                           ; 1 bytes @ 0x0
   618                           
   619  0070                     ?_DHT11_START:	
   620                           ; 1 bytes @ 0x0
   621                           
   622  0070                     ?_DHT11_ALIVE:	
   623                           ; 1 bytes @ 0x0
   624                           
   625  0070                     ?_DHT11_ReadData:	
   626                           ; 1 bytes @ 0x0
   627                           
   628  0070                     ?_interrupcion:	
   629                           ; 1 bytes @ 0x0
   630                           
   631  0070                     ??_interrupcion:	
   632                           ; 1 bytes @ 0x0
   633                           
   634  0070                     ?_main:	
   635                           ; 1 bytes @ 0x0
   636                           
   637  0070                     ?_waitCondition:	
   638                           ; 1 bytes @ 0x0
   639                           
   640                           
   641                           ; 1 bytes @ 0x0
   642  0070                     	ds	3
   643  0073                     ??_configUART:
   644  0073                     ??_MasterStart_I2C:	
   645                           ; 1 bytes @ 0x3
   646                           
   647  0073                     ??_MasterSend_I2C:	
   648                           ; 1 bytes @ 0x3
   649                           
   650  0073                     ??_MasterStop_I2C:	
   651                           ; 1 bytes @ 0x3
   652                           
   653  0073                     ??_MasterRepeatS_I2C:	
   654                           ; 1 bytes @ 0x3
   655                           
   656  0073                     ??_MasterReceive_I2C:	
   657                           ; 1 bytes @ 0x3
   658                           
   659  0073                     ??_DHT11_START:	
   660                           ; 1 bytes @ 0x3
   661                           
   662  0073                     ??_DHT11_ALIVE:	
   663                           ; 1 bytes @ 0x3
   664                           
   665  0073                     ??_DHT11_ReadData:	
   666                           ; 1 bytes @ 0x3
   667                           
   668  0073                     ??_waitCondition:	
   669                           ; 1 bytes @ 0x3
   670                           
   671  0073                     ?___bmul:	
   672                           ; 1 bytes @ 0x3
   673                           
   674  0073                     ??___lldiv:	
   675                           ; 1 bytes @ 0x3
   676                           
   677  0073                     ?__Umul8_16:	
   678                           ; 1 bytes @ 0x3
   679                           
   680  0073                     ?___awdiv:	
   681                           ; 2 bytes @ 0x3
   682                           
   683  0073                     ?___awmod:	
   684                           ; 2 bytes @ 0x3
   685                           
   686  0073                     ?___xxtofl:	
   687                           ; 2 bytes @ 0x3
   688                           
   689  0073                     MasterSend_I2C@dato:	
   690                           ; 4 bytes @ 0x3
   691                           
   692  0073                     ___bmul@multiplicand:	
   693                           ; 1 bytes @ 0x3
   694                           
   695  0073                     ___fladd@signs:	
   696                           ; 1 bytes @ 0x3
   697                           
   698  0073                     __Umul8_16@multiplicand:	
   699                           ; 1 bytes @ 0x3
   700                           
   701  0073                     ___awdiv@divisor:	
   702                           ; 1 bytes @ 0x3
   703                           
   704  0073                     ___awmod@divisor:	
   705                           ; 2 bytes @ 0x3
   706                           
   707  0073                     ___xxtofl@val:	
   708                           ; 2 bytes @ 0x3
   709                           
   710                           
   711                           ; 4 bytes @ 0x3
   712  0073                     	ds	1
   713  0074                     ??_MasterInit_I2C:
   714  0074                     ??___bmul:	
   715                           ; 1 bytes @ 0x4
   716                           
   717  0074                     MasterReceive_I2C@valor:	
   718                           ; 1 bytes @ 0x4
   719                           
   720  0074                     ___fladd@aexp:	
   721                           ; 1 bytes @ 0x4
   722                           
   723                           
   724                           ; 1 bytes @ 0x4
   725  0074                     	ds	1
   726  0075                     ??__Umul8_16:
   727  0075                     DHT11_ReadData@i:	
   728                           ; 1 bytes @ 0x5
   729                           
   730  0075                     ___bmul@product:	
   731                           ; 1 bytes @ 0x5
   732                           
   733  0075                     ___fladd@bexp:	
   734                           ; 1 bytes @ 0x5
   735                           
   736  0075                     ___awdiv@dividend:	
   737                           ; 1 bytes @ 0x5
   738                           
   739  0075                     ___awmod@dividend:	
   740                           ; 2 bytes @ 0x5
   741                           
   742                           
   743                           ; 2 bytes @ 0x5
   744  0075                     	ds	1
   745  0076                     DHT11_ReadData@datos:
   746  0076                     ___bmul@multiplier:	
   747                           ; 1 bytes @ 0x6
   748                           
   749  0076                     ___fladd@grs:	
   750                           ; 1 bytes @ 0x6
   751                           
   752                           
   753                           ; 1 bytes @ 0x6
   754  0076                     	ds	1
   755  0077                     ??___awdiv:
   756  0077                     ??___awmod:	
   757                           ; 1 bytes @ 0x7
   758                           
   759  0077                     ??___flsub:	
   760                           ; 1 bytes @ 0x7
   761                           
   762                           
   763                           ; 1 bytes @ 0x7
   764  0077                     	ds	1
   765  0078                     ??_CONFIG:
   766                           
   767                           	psect	cstackBANK0
   768  0020                     __pcstackBANK0:	
   769                           ; 1 bytes @ 0x8
   770                           
   771  0020                     ??___xxtofl:
   772  0020                     ?___lldiv:	
   773                           ; 1 bytes @ 0x0
   774                           
   775  0020                     ?___fladd:	
   776                           ; 4 bytes @ 0x0
   777                           
   778  0020                     ___awdiv@counter:	
   779                           ; 4 bytes @ 0x0
   780                           
   781  0020                     ___awmod@counter:	
   782                           ; 1 bytes @ 0x0
   783                           
   784  0020                     __Umul8_16@product:	
   785                           ; 1 bytes @ 0x0
   786                           
   787  0020                     ___lldiv@divisor:	
   788                           ; 2 bytes @ 0x0
   789                           
   790  0020                     ___fladd@b:	
   791                           ; 4 bytes @ 0x0
   792                           
   793                           
   794                           ; 4 bytes @ 0x0
   795  0020                     	ds	1
   796  0021                     ___awdiv@sign:
   797  0021                     ___awmod@sign:	
   798                           ; 1 bytes @ 0x1
   799                           
   800                           
   801                           ; 1 bytes @ 0x1
   802  0021                     	ds	1
   803  0022                     ___awdiv@quotient:
   804  0022                     __Umul8_16@word_mpld:	
   805                           ; 2 bytes @ 0x2
   806                           
   807                           
   808                           ; 2 bytes @ 0x2
   809  0022                     	ds	2
   810  0024                     ?_divisiondecimal:
   811  0024                     divisiondecimal@un:	
   812                           ; 1 bytes @ 0x4
   813                           
   814  0024                     __Umul8_16@multiplier:	
   815                           ; 1 bytes @ 0x4
   816                           
   817  0024                     ___xxtofl@sign:	
   818                           ; 1 bytes @ 0x4
   819                           
   820  0024                     ___lldiv@dividend:	
   821                           ; 1 bytes @ 0x4
   822                           
   823  0024                     ___fladd@a:	
   824                           ; 4 bytes @ 0x4
   825                           
   826                           
   827                           ; 4 bytes @ 0x4
   828  0024                     	ds	1
   829  0025                     divisiondecimal@dec:
   830  0025                     ___xxtofl@exp:	
   831                           ; 1 bytes @ 0x5
   832                           
   833                           
   834                           ; 1 bytes @ 0x5
   835  0025                     	ds	1
   836  0026                     divisiondecimal@cent:
   837  0026                     ___xxtofl@arg:	
   838                           ; 1 bytes @ 0x6
   839                           
   840                           
   841                           ; 4 bytes @ 0x6
   842  0026                     	ds	1
   843  0027                     ??_divisiondecimal:
   844                           
   845                           ; 1 bytes @ 0x7
   846  0027                     	ds	1
   847  0028                     ??___fladd:
   848  0028                     ___lldiv@quotient:	
   849                           ; 1 bytes @ 0x8
   850                           
   851                           
   852                           ; 4 bytes @ 0x8
   853  0028                     	ds	2
   854  002A                     ?___flmul:
   855  002A                     divisiondecimal@conteo:	
   856                           ; 4 bytes @ 0xA
   857                           
   858  002A                     ___flmul@b:	
   859                           ; 1 bytes @ 0xA
   860                           
   861                           
   862                           ; 4 bytes @ 0xA
   863  002A                     	ds	1
   864  002B                     divisiondecimal@div:
   865                           
   866                           ; 1 bytes @ 0xB
   867  002B                     	ds	1
   868  002C                     ___lldiv@counter:
   869                           
   870                           ; 1 bytes @ 0xC
   871  002C                     	ds	1
   872  002D                     ?_MasterInit_I2C:
   873  002D                     MasterInit_I2C@frec:	
   874                           ; 1 bytes @ 0xD
   875                           
   876                           
   877                           ; 4 bytes @ 0xD
   878  002D                     	ds	1
   879  002E                     ___flmul@a:
   880                           
   881                           ; 4 bytes @ 0xE
   882  002E                     	ds	2
   883  0030                     ?___flsub:
   884  0030                     ___flsub@a:	
   885                           ; 4 bytes @ 0x10
   886                           
   887                           
   888                           ; 4 bytes @ 0x10
   889  0030                     	ds	2
   890  0032                     ??___flmul:
   891                           
   892                           ; 1 bytes @ 0x12
   893  0032                     	ds	2
   894  0034                     ___flsub@b:
   895                           
   896                           ; 4 bytes @ 0x14
   897  0034                     	ds	3
   898  0037                     ___flmul@sign:
   899                           
   900                           ; 1 bytes @ 0x17
   901  0037                     	ds	1
   902  0038                     ___flmul@grs:
   903                           
   904                           ; 4 bytes @ 0x18
   905  0038                     	ds	4
   906  003C                     ___flmul@aexp:
   907                           
   908                           ; 1 bytes @ 0x1C
   909  003C                     	ds	1
   910  003D                     ___flmul@bexp:
   911                           
   912                           ; 1 bytes @ 0x1D
   913  003D                     	ds	1
   914  003E                     ___flmul@prod:
   915                           
   916                           ; 4 bytes @ 0x1E
   917  003E                     	ds	4
   918  0042                     ___flmul@temp:
   919                           
   920                           ; 2 bytes @ 0x22
   921  0042                     	ds	2
   922  0044                     ?___fltol:
   923  0044                     ___fltol@f1:	
   924                           ; 4 bytes @ 0x24
   925                           
   926                           
   927                           ; 4 bytes @ 0x24
   928  0044                     	ds	4
   929  0048                     ??___fltol:
   930                           
   931                           ; 1 bytes @ 0x28
   932  0048                     	ds	5
   933  004D                     ___fltol@sign1:
   934                           
   935                           ; 1 bytes @ 0x2D
   936  004D                     	ds	1
   937  004E                     ___fltol@exp1:
   938                           
   939                           ; 1 bytes @ 0x2E
   940  004E                     	ds	1
   941  004F                     ?_floToChar:
   942  004F                     floToChar@valor:	
   943                           ; 1 bytes @ 0x2F
   944                           
   945                           
   946                           ; 4 bytes @ 0x2F
   947  004F                     	ds	4
   948  0053                     floToChar@salida:
   949                           
   950                           ; 1 bytes @ 0x33
   951  0053                     	ds	1
   952  0054                     ??_floToChar:
   953                           
   954                           ; 1 bytes @ 0x34
   955  0054                     	ds	4
   956  0058                     floToChar@temp:
   957                           
   958                           ; 4 bytes @ 0x38
   959  0058                     	ds	4
   960  005C                     floToChar@decimal:
   961                           
   962                           ; 1 bytes @ 0x3C
   963  005C                     	ds	1
   964  005D                     floToChar@entero:
   965                           
   966                           ; 1 bytes @ 0x3D
   967  005D                     	ds	1
   968  005E                     floToChar@digdecimal:
   969                           
   970                           ; 3 bytes @ 0x3E
   971  005E                     	ds	3
   972                           
   973                           	psect	maintext
   974  0624                     __pmaintext:	
   975 ;;
   976 ;;Main: autosize = 0, tempsize = 10, incstack = 0, save=0
   977 ;;
   978 ;; *************** function _main *****************
   979 ;; Defined at:
   980 ;;		line 70 in file "main.c"
   981 ;; Parameters:    Size  Location     Type
   982 ;;		None
   983 ;; Auto vars:     Size  Location     Type
   984 ;;		None
   985 ;; Return value:  Size  Location     Type
   986 ;;                  1    wreg      void 
   987 ;; Registers used:
   988 ;;		wreg, fsr0l, fsr0h, status,2, status,0, btemp+1, pclath, cstack
   989 ;; Tracked objects:
   990 ;;		On entry : B00/0
   991 ;;		On exit  : 0/0
   992 ;;		Unchanged: 0/0
   993 ;; Data sizes:     COMMON   BANK0   BANK1   BANK3   BANK2
   994 ;;      Params:         0       0       0       0       0
   995 ;;      Locals:         0       0       0       0       0
   996 ;;      Temps:          0       0      10       0       0
   997 ;;      Totals:         0       0      10       0       0
   998 ;;Total ram usage:       10 bytes
   999 ;; Hardware stack levels required when called:    4
  1000 ;; This function calls:
  1001 ;;		_CONFIG
  1002 ;;		_DHT11_ALIVE
  1003 ;;		_DHT11_ReadData
  1004 ;;		_DHT11_START
  1005 ;;		_MasterReceive_I2C
  1006 ;;		_MasterRepeatS_I2C
  1007 ;;		_MasterSend_I2C
  1008 ;;		_MasterStart_I2C
  1009 ;;		_MasterStop_I2C
  1010 ;;		___awdiv
  1011 ;;		___awmod
  1012 ;;		___flmul
  1013 ;;		___xxtofl
  1014 ;;		_configUART
  1015 ;;		_floToChar
  1016 ;; This function is called by:
  1017 ;;		Startup code after reset
  1018 ;; This function uses a non-reentrant model
  1019 ;;
  1020                           
  1021                           
  1022                           ;psect for function _main
  1023  0624                     _main:
  1024  0624                     l2828:	
  1025                           ;incstack = 0
  1026                           ; Regs used in _main: [wreg-fsr0h+status,2+status,0+btemp+1+pclath+cstack]
  1027                           
  1028                           
  1029                           ;main.c: 71:     CONFIG();
  1030  0624  120A  158A  23B8  120A  118A  	fcall	_CONFIG
  1031                           
  1032                           ;main.c: 72:     configUART();
  1033  0629  120A  118A  27ED  120A  118A  	fcall	_configUART
  1034  062E                     l2830:
  1035                           
  1036                           ;main.c: 73:     TMR1H = 0;
  1037  062E  1283               	bcf	3,5	;RP0=0, select bank0
  1038  062F  1303               	bcf	3,6	;RP1=0, select bank0
  1039  0630  018F               	clrf	15	;volatile
  1040  0631                     l2832:
  1041                           
  1042                           ;main.c: 74:     TMR1L = 0;
  1043  0631  018E               	clrf	14	;volatile
  1044                           
  1045                           ;main.c: 77:     MasterStart_I2C();
  1046  0632  120A  158A  22B2  120A  118A  	fcall	_MasterStart_I2C
  1047                           
  1048                           ;main.c: 78:     MasterSend_I2C(0X90);
  1049  0637  3090               	movlw	144
  1050  0638  120A  158A  22C4  120A  118A  	fcall	_MasterSend_I2C
  1051                           
  1052                           ;main.c: 79:     MasterSend_I2C(0X01);
  1053  063D  3001               	movlw	1
  1054  063E  120A  158A  22C4  120A  118A  	fcall	_MasterSend_I2C
  1055                           
  1056                           ;main.c: 80:     MasterSend_I2C(0X00);
  1057  0643  3000               	movlw	0
  1058  0644  120A  158A  22C4  120A  118A  	fcall	_MasterSend_I2C
  1059                           
  1060                           ;main.c: 81:     MasterStop_I2C();
  1061  0649  120A  158A  22BB  120A  118A  	fcall	_MasterStop_I2C
  1062  064E                     l103:	
  1063                           ;main.c: 83:     while(1){
  1064                           
  1065                           
  1066                           ;main.c: 85:         MasterStart_I2C();
  1067  064E  120A  158A  22B2  120A  118A  	fcall	_MasterStart_I2C
  1068                           
  1069                           ;main.c: 86:         MasterSend_I2C(0X90);
  1070  0653  3090               	movlw	144
  1071  0654  120A  158A  22C4  120A  118A  	fcall	_MasterSend_I2C
  1072                           
  1073                           ;main.c: 87:         MasterSend_I2C(0X00);
  1074  0659  3000               	movlw	0
  1075  065A  120A  158A  22C4  120A  118A  	fcall	_MasterSend_I2C
  1076                           
  1077                           ;main.c: 88:         MasterRepeatS_I2C();
  1078  065F  120A  158A  22A9  120A  118A  	fcall	_MasterRepeatS_I2C
  1079                           
  1080                           ;main.c: 89:         MasterSend_I2C(0X91);
  1081  0664  3091               	movlw	145
  1082  0665  120A  158A  22C4  120A  118A  	fcall	_MasterSend_I2C
  1083  066A                     l2834:
  1084                           
  1085                           ;main.c: 90:         MasterReceive_I2C(&TempENT);
  1086  066A  3063               	movlw	(low (_TempENT| 0))& (0+255)
  1087  066B  120A  158A  231E  120A  118A  	fcall	_MasterReceive_I2C
  1088  0670                     l2836:
  1089                           
  1090                           ;main.c: 91:         MasterReceive_I2C(&TempDEC);
  1091  0670  3062               	movlw	(low (_TempDEC| 0))& (0+255)
  1092  0671  120A  158A  231E  120A  118A  	fcall	_MasterReceive_I2C
  1093                           
  1094                           ;main.c: 92:         MasterStop_I2C();
  1095  0676  120A  158A  22BB  120A  118A  	fcall	_MasterStop_I2C
  1096  067B                     l2838:
  1097                           
  1098                           ;main.c: 94:         temp = (TempENT<<3)|(TempDEC>>5);
  1099  067B  1283               	bcf	3,5	;RP0=0, select bank0
  1100  067C  1303               	bcf	3,6	;RP1=0, select bank0
  1101  067D  0862               	movf	_TempDEC,w
  1102  067E  1683               	bsf	3,5	;RP0=1, select bank1
  1103  067F  1303               	bcf	3,6	;RP1=0, select bank1
  1104  0680  00AC               	movwf	??_main^(0+128)
  1105  0681  3005               	movlw	5
  1106  0682                     u3985:
  1107  0682  1003               	clrc
  1108  0683  0CAC               	rrf	??_main^(0+128),f
  1109  0684  3EFF               	addlw	-1
  1110  0685  1D03               	skipz
  1111  0686  2E82               	goto	u3985
  1112  0687  082C               	movf	??_main^(0+128),w
  1113  0688  00AD               	movwf	(??_main+1)^(0+128)
  1114  0689  01AE               	clrf	((??_main+1)^(0+128)+1)
  1115  068A  1283               	bcf	3,5	;RP0=0, select bank0
  1116  068B  1303               	bcf	3,6	;RP1=0, select bank0
  1117  068C  0863               	movf	_TempENT,w
  1118  068D  1683               	bsf	3,5	;RP0=1, select bank1
  1119  068E  1303               	bcf	3,6	;RP1=0, select bank1
  1120  068F  00AF               	movwf	(??_main+3)^(0+128)
  1121  0690  01B0               	clrf	((??_main+3)^(0+128)+1)
  1122  0691  1003               	clrc
  1123  0692  0DAF               	rlf	(??_main+3)^(0+128),f
  1124  0693  0DB0               	rlf	((??_main+3)^(0+128)+1),f
  1125  0694  1003               	clrc
  1126  0695  0DAF               	rlf	(??_main+3)^(0+128),f
  1127  0696  0DB0               	rlf	((??_main+3)^(0+128)+1),f
  1128  0697  1003               	clrc
  1129  0698  0DAF               	rlf	(??_main+3)^(0+128),f
  1130  0699  0DB0               	rlf	((??_main+3)^(0+128)+1),f
  1131  069A  082D               	movf	(??_main+1)^(0+128),w
  1132  069B  042F               	iorwf	(??_main+3)^(0+128),w
  1133  069C  00F8               	movwf	_temp
  1134  069D  082E               	movf	(??_main+2)^(0+128),w
  1135  069E  0430               	iorwf	(??_main+4)^(0+128),w
  1136  069F  00F9               	movwf	_temp+1
  1137  06A0                     l2840:
  1138                           
  1139                           ;main.c: 95:         digTemp = (float)temp*0.125;
  1140  06A0  303E               	movlw	62
  1141  06A1  1283               	bcf	3,5	;RP0=0, select bank0
  1142  06A2  1303               	bcf	3,6	;RP1=0, select bank0
  1143  06A3  00AD               	movwf	___flmul@b+3
  1144  06A4  3000               	movlw	0
  1145  06A5  00AC               	movwf	___flmul@b+2
  1146  06A6  3000               	movlw	0
  1147  06A7  00AB               	movwf	___flmul@b+1
  1148  06A8  3000               	movlw	0
  1149  06A9  00AA               	movwf	___flmul@b
  1150  06AA  0878               	movf	_temp,w
  1151  06AB  00F3               	movwf	___xxtofl@val
  1152  06AC  0879               	movf	_temp+1,w
  1153  06AD  00F4               	movwf	___xxtofl@val+1
  1154  06AE  01F5               	clrf	___xxtofl@val+2
  1155  06AF  01F6               	clrf	___xxtofl@val+3
  1156  06B0  3000               	movlw	0
  1157  06B1  120A  158A  267E  120A  118A  	fcall	___xxtofl
  1158  06B6  0876               	movf	?___xxtofl+3,w
  1159  06B7  1283               	bcf	3,5	;RP0=0, select bank0
  1160  06B8  1303               	bcf	3,6	;RP1=0, select bank0
  1161  06B9  00B1               	movwf	___flmul@a+3
  1162  06BA  0875               	movf	?___xxtofl+2,w
  1163  06BB  00B0               	movwf	___flmul@a+2
  1164  06BC  0874               	movf	?___xxtofl+1,w
  1165  06BD  00AF               	movwf	___flmul@a+1
  1166  06BE  0873               	movf	?___xxtofl,w
  1167  06BF  00AE               	movwf	___flmul@a
  1168  06C0  120A  118A  2033  120A  118A  	fcall	___flmul
  1169  06C5  1283               	bcf	3,5	;RP0=0, select bank0
  1170  06C6  1303               	bcf	3,6	;RP1=0, select bank0
  1171  06C7  082D               	movf	?___flmul+3,w
  1172  06C8  1683               	bsf	3,5	;RP0=1, select bank1
  1173  06C9  1303               	bcf	3,6	;RP1=0, select bank1
  1174  06CA  00A3               	movwf	(_digTemp+3)^(0+128)
  1175  06CB  1283               	bcf	3,5	;RP0=0, select bank0
  1176  06CC  1303               	bcf	3,6	;RP1=0, select bank0
  1177  06CD  082C               	movf	?___flmul+2,w
  1178  06CE  1683               	bsf	3,5	;RP0=1, select bank1
  1179  06CF  1303               	bcf	3,6	;RP1=0, select bank1
  1180  06D0  00A2               	movwf	(_digTemp+2)^(0+128)
  1181  06D1  1283               	bcf	3,5	;RP0=0, select bank0
  1182  06D2  1303               	bcf	3,6	;RP1=0, select bank0
  1183  06D3  082B               	movf	?___flmul+1,w
  1184  06D4  1683               	bsf	3,5	;RP0=1, select bank1
  1185  06D5  1303               	bcf	3,6	;RP1=0, select bank1
  1186  06D6  00A1               	movwf	(_digTemp+1)^(0+128)
  1187  06D7  1283               	bcf	3,5	;RP0=0, select bank0
  1188  06D8  1303               	bcf	3,6	;RP1=0, select bank0
  1189  06D9  082A               	movf	?___flmul,w
  1190  06DA  1683               	bsf	3,5	;RP0=1, select bank1
  1191  06DB  1303               	bcf	3,6	;RP1=0, select bank1
  1192  06DC  00A0               	movwf	_digTemp^(0+128)
  1193  06DD                     l2842:
  1194                           
  1195                           ;main.c: 96:         floToChar(digTemp,TEMPdig);
  1196  06DD  0823               	movf	(_digTemp+3)^(0+128),w
  1197  06DE  1283               	bcf	3,5	;RP0=0, select bank0
  1198  06DF  1303               	bcf	3,6	;RP1=0, select bank0
  1199  06E0  00D2               	movwf	floToChar@valor+3
  1200  06E1  1683               	bsf	3,5	;RP0=1, select bank1
  1201  06E2  1303               	bcf	3,6	;RP1=0, select bank1
  1202  06E3  0822               	movf	(_digTemp+2)^(0+128),w
  1203  06E4  1283               	bcf	3,5	;RP0=0, select bank0
  1204  06E5  1303               	bcf	3,6	;RP1=0, select bank0
  1205  06E6  00D1               	movwf	floToChar@valor+2
  1206  06E7  1683               	bsf	3,5	;RP0=1, select bank1
  1207  06E8  1303               	bcf	3,6	;RP1=0, select bank1
  1208  06E9  0821               	movf	(_digTemp+1)^(0+128),w
  1209  06EA  1283               	bcf	3,5	;RP0=0, select bank0
  1210  06EB  1303               	bcf	3,6	;RP1=0, select bank0
  1211  06EC  00D0               	movwf	floToChar@valor+1
  1212  06ED  1683               	bsf	3,5	;RP0=1, select bank1
  1213  06EE  1303               	bcf	3,6	;RP1=0, select bank1
  1214  06EF  0820               	movf	_digTemp^(0+128),w
  1215  06F0  1283               	bcf	3,5	;RP0=0, select bank0
  1216  06F1  1303               	bcf	3,6	;RP1=0, select bank0
  1217  06F2  00CF               	movwf	floToChar@valor
  1218  06F3  30A6               	movlw	(low (_TEMPdig| 0))& (0+255)
  1219  06F4  1683               	bsf	3,5	;RP0=1, select bank1
  1220  06F5  1303               	bcf	3,6	;RP1=0, select bank1
  1221  06F6  00AC               	movwf	??_main^(0+128)
  1222  06F7  082C               	movf	??_main^(0+128),w
  1223  06F8  1283               	bcf	3,5	;RP0=0, select bank0
  1224  06F9  1303               	bcf	3,6	;RP1=0, select bank0
  1225  06FA  00D3               	movwf	floToChar@salida
  1226  06FB  120A  158A  273A  120A  118A  	fcall	_floToChar
  1227  0700                     l2844:
  1228                           
  1229                           ;main.c: 98:         DHT11_START();
  1230  0700  120A  158A  2303  120A  118A  	fcall	_DHT11_START
  1231  0705                     l2846:
  1232                           
  1233                           ;main.c: 100:         if(DHT11_ALIVE()){
  1234  0705  120A  158A  238C  120A  118A  	fcall	_DHT11_ALIVE
  1235  070A  3A00               	xorlw	0
  1236  070B  1903               	skipnz
  1237  070C  2F0E               	goto	u3991
  1238  070D  2F0F               	goto	u3990
  1239  070E                     u3991:
  1240  070E  2FBF               	goto	l2856
  1241  070F                     u3990:
  1242  070F                     l2848:
  1243                           
  1244                           ;main.c: 101:             DHT11_ReadData(&Hum1);
  1245  070F  3066               	movlw	(low (_Hum1| 0))& (0+255)
  1246  0710  120A  158A  23E9  120A  118A  	fcall	_DHT11_ReadData
  1247                           
  1248                           ;main.c: 102:             DHT11_ReadData(&dummyHum1);
  1249  0715  3065               	movlw	(low (_dummyHum1| 0))& (0+255)
  1250  0716  120A  158A  23E9  120A  118A  	fcall	_DHT11_ReadData
  1251                           
  1252                           ;main.c: 103:             DHT11_ReadData(&Temp1);
  1253  071B  3068               	movlw	(low (_Temp1| 0))& (0+255)
  1254  071C  120A  158A  23E9  120A  118A  	fcall	_DHT11_ReadData
  1255                           
  1256                           ;main.c: 104:             DHT11_ReadData(&dummyT1);
  1257  0721  3067               	movlw	(low (_dummyT1| 0))& (0+255)
  1258  0722  120A  158A  23E9  120A  118A  	fcall	_DHT11_ReadData
  1259                           
  1260                           ;main.c: 105:             DHT11_ReadData(&CHECKSUM);
  1261  0727  3064               	movlw	(low (_CHECKSUM| 0))& (0+255)
  1262  0728  120A  158A  23E9  120A  118A  	fcall	_DHT11_ReadData
  1263  072D                     l2850:
  1264                           
  1265                           ;main.c: 107:             if(CHECKSUM == ((Hum1 + dummyHum1 + Temp1 + dummyT1) & 0XFF)){
  1266  072D  1283               	bcf	3,5	;RP0=0, select bank0
  1267  072E  1303               	bcf	3,6	;RP1=0, select bank0
  1268  072F  0866               	movf	_Hum1,w
  1269  0730  0765               	addwf	_dummyHum1,w
  1270  0731  1683               	bsf	3,5	;RP0=1, select bank1
  1271  0732  1303               	bcf	3,6	;RP1=0, select bank1
  1272  0733  00AC               	movwf	??_main^(0+128)
  1273  0734  01AD               	clrf	(??_main^(0+128)+1)
  1274  0735  0DAD               	rlf	(??_main+1)^(0+128),f
  1275  0736  1283               	bcf	3,5	;RP0=0, select bank0
  1276  0737  1303               	bcf	3,6	;RP1=0, select bank0
  1277  0738  0868               	movf	_Temp1,w
  1278  0739  1683               	bsf	3,5	;RP0=1, select bank1
  1279  073A  1303               	bcf	3,6	;RP1=0, select bank1
  1280  073B  072C               	addwf	??_main^(0+128),w
  1281  073C  00AE               	movwf	(??_main+2)^(0+128)
  1282  073D  3000               	movlw	0
  1283  073E  1803               	skipnc
  1284  073F  3001               	movlw	1
  1285  0740  072D               	addwf	(??_main+1)^(0+128),w
  1286  0741  00AF               	movwf	(??_main+3)^(0+128)
  1287  0742  1283               	bcf	3,5	;RP0=0, select bank0
  1288  0743  1303               	bcf	3,6	;RP1=0, select bank0
  1289  0744  0867               	movf	_dummyT1,w
  1290  0745  1683               	bsf	3,5	;RP0=1, select bank1
  1291  0746  1303               	bcf	3,6	;RP1=0, select bank1
  1292  0747  072E               	addwf	(??_main+2)^(0+128),w
  1293  0748  00B0               	movwf	(??_main+4)^(0+128)
  1294  0749  3000               	movlw	0
  1295  074A  1803               	skipnc
  1296  074B  3001               	movlw	1
  1297  074C  072F               	addwf	(??_main+3)^(0+128),w
  1298  074D  00B1               	movwf	(??_main+5)^(0+128)
  1299  074E  30FF               	movlw	255
  1300  074F  0530               	andwf	(??_main+4)^(0+128),w
  1301  0750  00B2               	movwf	(??_main+6)^(0+128)
  1302  0751  3000               	movlw	0
  1303  0752  0531               	andwf	(??_main+5)^(0+128),w
  1304  0753  00B3               	movwf	(??_main+7)^(0+128)
  1305  0754  1283               	bcf	3,5	;RP0=0, select bank0
  1306  0755  1303               	bcf	3,6	;RP1=0, select bank0
  1307  0756  0864               	movf	_CHECKSUM,w
  1308  0757  1683               	bsf	3,5	;RP0=1, select bank1
  1309  0758  1303               	bcf	3,6	;RP1=0, select bank1
  1310  0759  00B4               	movwf	(??_main+8)^(0+128)
  1311  075A  01B5               	clrf	((??_main+8)^(0+128)+1)
  1312  075B  0833               	movf	(??_main+7)^(0+128),w
  1313  075C  0635               	xorwf	(??_main+9)^(0+128),w
  1314  075D  1D03               	skipz
  1315  075E  2F61               	goto	u4005
  1316  075F  0832               	movf	(??_main+6)^(0+128),w
  1317  0760  0634               	xorwf	(??_main+8)^(0+128),w
  1318  0761                     u4005:
  1319  0761  1D03               	skipz
  1320  0762  2F64               	goto	u4001
  1321  0763  2F65               	goto	u4000
  1322  0764                     u4001:
  1323  0764  2FBF               	goto	l2856
  1324  0765                     u4000:
  1325  0765                     l2852:
  1326                           
  1327                           ;main.c: 108:                 HumR[0] = Hum1/10 + 48;
  1328  0765  300A               	movlw	10
  1329  0766  00F3               	movwf	___awdiv@divisor
  1330  0767  3000               	movlw	0
  1331  0768  00F4               	movwf	___awdiv@divisor+1
  1332  0769  1283               	bcf	3,5	;RP0=0, select bank0
  1333  076A  1303               	bcf	3,6	;RP1=0, select bank0
  1334  076B  0866               	movf	_Hum1,w
  1335  076C  1683               	bsf	3,5	;RP0=1, select bank1
  1336  076D  1303               	bcf	3,6	;RP1=0, select bank1
  1337  076E  00AC               	movwf	??_main^(0+128)
  1338  076F  01AD               	clrf	(??_main^(0+128)+1)
  1339  0770  082C               	movf	??_main^(0+128),w
  1340  0771  00F5               	movwf	___awdiv@dividend
  1341  0772  082D               	movf	(??_main+1)^(0+128),w
  1342  0773  00F6               	movwf	___awdiv@dividend+1
  1343  0774  120A  158A  251C  120A  118A  	fcall	___awdiv
  1344  0779  0873               	movf	?___awdiv,w
  1345  077A  3E30               	addlw	48
  1346  077B  1683               	bsf	3,5	;RP0=1, select bank1
  1347  077C  1303               	bcf	3,6	;RP1=0, select bank1
  1348  077D  00AE               	movwf	(??_main+2)^(0+128)
  1349  077E  082E               	movf	(??_main+2)^(0+128),w
  1350  077F  00A4               	movwf	_HumR^(0+128)
  1351                           
  1352                           ;main.c: 109:                 HumR[1] = Hum1%10 + 48;
  1353  0780  300A               	movlw	10
  1354  0781  00F3               	movwf	___awmod@divisor
  1355  0782  3000               	movlw	0
  1356  0783  00F4               	movwf	___awmod@divisor+1
  1357  0784  1283               	bcf	3,5	;RP0=0, select bank0
  1358  0785  1303               	bcf	3,6	;RP1=0, select bank0
  1359  0786  0866               	movf	_Hum1,w
  1360  0787  1683               	bsf	3,5	;RP0=1, select bank1
  1361  0788  1303               	bcf	3,6	;RP1=0, select bank1
  1362  0789  00AC               	movwf	??_main^(0+128)
  1363  078A  01AD               	clrf	(??_main^(0+128)+1)
  1364  078B  082C               	movf	??_main^(0+128),w
  1365  078C  00F5               	movwf	___awmod@dividend
  1366  078D  082D               	movf	(??_main+1)^(0+128),w
  1367  078E  00F6               	movwf	___awmod@dividend+1
  1368  078F  120A  158A  2459  120A  118A  	fcall	___awmod
  1369  0794  0873               	movf	?___awmod,w
  1370  0795  3E30               	addlw	48
  1371  0796  1683               	bsf	3,5	;RP0=1, select bank1
  1372  0797  1303               	bcf	3,6	;RP1=0, select bank1
  1373  0798  00AE               	movwf	(??_main+2)^(0+128)
  1374  0799  082E               	movf	(??_main+2)^(0+128),w
  1375  079A  00A5               	movwf	(_HumR^(0+128)+1)
  1376  079B  2FBF               	goto	l2856
  1377  079C                     l107:	
  1378                           ;main.c: 126:             case 'a':
  1379                           
  1380                           
  1381                           ;main.c: 127:                 PORTBbits.RB0 = 1;
  1382  079C  1283               	bcf	3,5	;RP0=0, select bank0
  1383  079D  1303               	bcf	3,6	;RP1=0, select bank0
  1384  079E  1406               	bsf	6,0	;volatile
  1385                           
  1386                           ;main.c: 128:                 PORTBbits.RB1 = 0;
  1387  079F  1086               	bcf	6,1	;volatile
  1388                           
  1389                           ;main.c: 129:                 PORTBbits.RB2 = 1;
  1390  07A0  1506               	bsf	6,2	;volatile
  1391                           
  1392                           ;main.c: 130:                 PORTBbits.RB3 = 0;
  1393  07A1  1186               	bcf	6,3	;volatile
  1394                           
  1395                           ;main.c: 131:                 break;
  1396  07A2  2FDC               	goto	l108
  1397  07A3                     l109:	
  1398                           ;main.c: 132:             case 'b':
  1399                           
  1400                           
  1401                           ;main.c: 133:                 PORTBbits.RB0 = 0;
  1402  07A3  1283               	bcf	3,5	;RP0=0, select bank0
  1403  07A4  1303               	bcf	3,6	;RP1=0, select bank0
  1404  07A5  1006               	bcf	6,0	;volatile
  1405                           
  1406                           ;main.c: 134:                 PORTBbits.RB1 = 1;
  1407  07A6  1486               	bsf	6,1	;volatile
  1408                           
  1409                           ;main.c: 135:                 PORTBbits.RB2 = 0;
  1410  07A7  1106               	bcf	6,2	;volatile
  1411                           
  1412                           ;main.c: 136:                 PORTBbits.RB3 = 1;
  1413  07A8  1586               	bsf	6,3	;volatile
  1414                           
  1415                           ;main.c: 137:                 break;
  1416  07A9  2FDC               	goto	l108
  1417  07AA                     l110:	
  1418                           ;main.c: 138:             case 'c':
  1419                           
  1420                           
  1421                           ;main.c: 139:                 PORTBbits.RB0 = 1;
  1422  07AA  1283               	bcf	3,5	;RP0=0, select bank0
  1423  07AB  1303               	bcf	3,6	;RP1=0, select bank0
  1424  07AC  1406               	bsf	6,0	;volatile
  1425                           
  1426                           ;main.c: 140:                 PORTBbits.RB1 = 0;
  1427  07AD  1086               	bcf	6,1	;volatile
  1428                           
  1429                           ;main.c: 141:                 PORTBbits.RB2 = 0;
  1430  07AE  1106               	bcf	6,2	;volatile
  1431                           
  1432                           ;main.c: 142:                 PORTBbits.RB3 = 1;
  1433  07AF  1586               	bsf	6,3	;volatile
  1434                           
  1435                           ;main.c: 143:                 break;
  1436  07B0  2FDC               	goto	l108
  1437  07B1                     l111:	
  1438                           ;main.c: 144:             case 'd':
  1439                           
  1440                           
  1441                           ;main.c: 145:                 PORTBbits.RB0 = 0;
  1442  07B1  1283               	bcf	3,5	;RP0=0, select bank0
  1443  07B2  1303               	bcf	3,6	;RP1=0, select bank0
  1444  07B3  1006               	bcf	6,0	;volatile
  1445                           
  1446                           ;main.c: 146:                 PORTBbits.RB1 = 1;
  1447  07B4  1486               	bsf	6,1	;volatile
  1448                           
  1449                           ;main.c: 147:                 PORTBbits.RB2 = 1;
  1450  07B5  1506               	bsf	6,2	;volatile
  1451                           
  1452                           ;main.c: 148:                 PORTBbits.RB3 = 0;
  1453  07B6  1186               	bcf	6,3	;volatile
  1454                           
  1455                           ;main.c: 149:                 break;
  1456  07B7  2FDC               	goto	l108
  1457  07B8                     l112:	
  1458                           ;main.c: 150:             case 'e':
  1459                           
  1460                           
  1461                           ;main.c: 151:                 PORTBbits.RB0 = 0;
  1462  07B8  1283               	bcf	3,5	;RP0=0, select bank0
  1463  07B9  1303               	bcf	3,6	;RP1=0, select bank0
  1464  07BA  1006               	bcf	6,0	;volatile
  1465                           
  1466                           ;main.c: 152:                 PORTBbits.RB1 = 0;
  1467  07BB  1086               	bcf	6,1	;volatile
  1468                           
  1469                           ;main.c: 153:                 PORTBbits.RB2 = 0;
  1470  07BC  1106               	bcf	6,2	;volatile
  1471                           
  1472                           ;main.c: 154:                 PORTBbits.RB3 = 0;
  1473  07BD  1186               	bcf	6,3	;volatile
  1474                           
  1475                           ;main.c: 155:                 break;
  1476  07BE  2FDC               	goto	l108
  1477  07BF                     l2856:
  1478  07BF  1283               	bcf	3,5	;RP0=0, select bank0
  1479  07C0  1303               	bcf	3,6	;RP1=0, select bank0
  1480  07C1  0861               	movf	_UARTData,w
  1481  07C2  1683               	bsf	3,5	;RP0=1, select bank1
  1482  07C3  1303               	bcf	3,6	;RP1=0, select bank1
  1483  07C4  00AC               	movwf	??_main^(0+128)
  1484  07C5  01AD               	clrf	(??_main^(0+128)+1)
  1485                           
  1486                           ; Switch on 2 bytes has been partitioned into a top level switch of size 1, and 1 sub-sw
      +                          itches
  1487                           ; Switch size 1, requested type "simple"
  1488                           ; Number of cases is 1, Range of values is 0 to 0
  1489                           ; switch strategies available:
  1490                           ; Name         Instructions Cycles
  1491                           ; simple_byte            4     3 (average)
  1492                           ; direct_byte           11     8 (fixed)
  1493                           ; jumptable            260     6 (fixed)
  1494                           ;	Chosen strategy is simple_byte
  1495  07C6  082D               	movf	(??_main+1)^(0+128),w
  1496  07C7  3A00               	xorlw	0	; case 0
  1497  07C8  1903               	skipnz
  1498  07C9  2FCB               	goto	l2884
  1499  07CA  2FDC               	goto	l108
  1500  07CB                     l2884:
  1501                           
  1502                           ; Switch size 1, requested type "simple"
  1503                           ; Number of cases is 5, Range of values is 97 to 101
  1504                           ; switch strategies available:
  1505                           ; Name         Instructions Cycles
  1506                           ; simple_byte           16     9 (average)
  1507                           ; direct_byte           26    11 (fixed)
  1508                           ; jumptable            263     9 (fixed)
  1509                           ;	Chosen strategy is simple_byte
  1510  07CB  082C               	movf	??_main^(0+128),w
  1511  07CC  3A61               	xorlw	97	; case 97
  1512  07CD  1903               	skipnz
  1513  07CE  2F9C               	goto	l107
  1514  07CF  3A03               	xorlw	3	; case 98
  1515  07D0  1903               	skipnz
  1516  07D1  2FA3               	goto	l109
  1517  07D2  3A01               	xorlw	1	; case 99
  1518  07D3  1903               	skipnz
  1519  07D4  2FAA               	goto	l110
  1520  07D5  3A07               	xorlw	7	; case 100
  1521  07D6  1903               	skipnz
  1522  07D7  2FB1               	goto	l111
  1523  07D8  3A01               	xorlw	1	; case 101
  1524  07D9  1903               	skipnz
  1525  07DA  2FB8               	goto	l112
  1526  07DB  2FDC               	goto	l108
  1527  07DC                     l108:
  1528                           
  1529                           ;main.c: 159:         T1CONbits.TMR1ON = 0;
  1530  07DC  1283               	bcf	3,5	;RP0=0, select bank0
  1531  07DD  1010               	bcf	16,0	;volatile
  1532  07DE                     l2858:
  1533                           
  1534                           ;main.c: 160:         _delay((unsigned long)((10)*(8000000/4000.0)));
  1535  07DE  301A               	movlw	26
  1536  07DF  1683               	bsf	3,5	;RP0=1, select bank1
  1537  07E0  1303               	bcf	3,6	;RP1=0, select bank1
  1538  07E1  00AD               	movwf	(??_main^(0+128)+1)
  1539  07E2  30F7               	movlw	247
  1540  07E3  00AC               	movwf	??_main^(0+128)
  1541  07E4                     u4017:
  1542  07E4  0BAC               	decfsz	??_main^(0+128),f
  1543  07E5  2FE4               	goto	u4017
  1544  07E6  0BAD               	decfsz	(??_main^(0+128)+1),f
  1545  07E7  2FE4               	goto	u4017
  1546  07E8  2FE9               	nop2
  1547  07E9  2E4E               	goto	l103
  1548  07EA  120A  118A  280C   	ljmp	start
  1549  07ED                     __end_of_main:
  1550                           
  1551                           	psect	text1
  1552  0F3A                     __ptext1:	
  1553 ;; *************** function _floToChar *****************
  1554 ;; Defined at:
  1555 ;;		line 193 in file "main.c"
  1556 ;; Parameters:    Size  Location     Type
  1557 ;;  valor           4   47[BANK0 ] const float 
  1558 ;;  salida          1   51[BANK0 ] PTR unsigned char 
  1559 ;;		 -> TEMPdig(6), 
  1560 ;; Auto vars:     Size  Location     Type
  1561 ;;  temp            4   56[BANK0 ] float 
  1562 ;;  digdecimal      3   62[BANK0 ] unsigned char [3]
  1563 ;;  entero          1   61[BANK0 ] unsigned char 
  1564 ;;  decimal         1   60[BANK0 ] unsigned char 
  1565 ;; Return value:  Size  Location     Type
  1566 ;;                  1    wreg      void 
  1567 ;; Registers used:
  1568 ;;		wreg, fsr0l, fsr0h, status,2, status,0, btemp+1, pclath, cstack
  1569 ;; Tracked objects:
  1570 ;;		On entry : 0/0
  1571 ;;		On exit  : 0/0
  1572 ;;		Unchanged: 0/0
  1573 ;; Data sizes:     COMMON   BANK0   BANK1   BANK3   BANK2
  1574 ;;      Params:         0       5       0       0       0
  1575 ;;      Locals:         0       9       0       0       0
  1576 ;;      Temps:          0       4       0       0       0
  1577 ;;      Totals:         0      18       0       0       0
  1578 ;;Total ram usage:       18 bytes
  1579 ;; Hardware stack levels used:    1
  1580 ;; Hardware stack levels required when called:    3
  1581 ;; This function calls:
  1582 ;;		___flmul
  1583 ;;		___flsub
  1584 ;;		___fltol
  1585 ;;		___xxtofl
  1586 ;;		_divisiondecimal
  1587 ;; This function is called by:
  1588 ;;		_main
  1589 ;; This function uses a non-reentrant model
  1590 ;;
  1591                           
  1592                           
  1593                           ;psect for function _floToChar
  1594  0F3A                     _floToChar:
  1595  0F3A                     l2768:	
  1596                           ;incstack = 0
  1597                           ; Regs used in _floToChar: [wreg-fsr0h+status,2+status,0+btemp+1+pclath+cstack]
  1598                           
  1599                           
  1600                           ;main.c: 194:     uint8_t entero;;main.c: 195:     uint8_t decimal;;main.c: 196:     flo
      +                          at temp;;main.c: 197:     unsigned char digdecimal[3];;main.c: 199:     entero = valor;
  1601  0F3A  1283               	bcf	3,5	;RP0=0, select bank0
  1602  0F3B  1303               	bcf	3,6	;RP1=0, select bank0
  1603  0F3C  0852               	movf	floToChar@valor+3,w
  1604  0F3D  00C7               	movwf	___fltol@f1+3
  1605  0F3E  0851               	movf	floToChar@valor+2,w
  1606  0F3F  00C6               	movwf	___fltol@f1+2
  1607  0F40  0850               	movf	floToChar@valor+1,w
  1608  0F41  00C5               	movwf	___fltol@f1+1
  1609  0F42  084F               	movf	floToChar@valor,w
  1610  0F43  00C4               	movwf	___fltol@f1
  1611  0F44  120A  158A  2585  120A  158A  	fcall	___fltol
  1612  0F49  1283               	bcf	3,5	;RP0=0, select bank0
  1613  0F4A  1303               	bcf	3,6	;RP1=0, select bank0
  1614  0F4B  0844               	movf	?___fltol,w
  1615  0F4C  00D4               	movwf	??_floToChar
  1616  0F4D  0854               	movf	??_floToChar,w
  1617  0F4E  00DD               	movwf	floToChar@entero
  1618  0F4F                     l2770:
  1619                           
  1620                           ;main.c: 200:     temp = valor - (float)entero;
  1621  0F4F  085D               	movf	floToChar@entero,w
  1622  0F50  00D4               	movwf	??_floToChar
  1623  0F51  01D5               	clrf	??_floToChar+1
  1624  0F52  01D6               	clrf	??_floToChar+2
  1625  0F53  01D7               	clrf	??_floToChar+3
  1626  0F54  0857               	movf	??_floToChar+3,w
  1627  0F55  00F6               	movwf	___xxtofl@val+3
  1628  0F56  0856               	movf	??_floToChar+2,w
  1629  0F57  00F5               	movwf	___xxtofl@val+2
  1630  0F58  0855               	movf	??_floToChar+1,w
  1631  0F59  00F4               	movwf	___xxtofl@val+1
  1632  0F5A  0854               	movf	??_floToChar,w
  1633  0F5B  00F3               	movwf	___xxtofl@val
  1634  0F5C  3000               	movlw	0
  1635  0F5D  120A  158A  267E  120A  158A  	fcall	___xxtofl
  1636  0F62  0876               	movf	?___xxtofl+3,w
  1637  0F63  1283               	bcf	3,5	;RP0=0, select bank0
  1638  0F64  1303               	bcf	3,6	;RP1=0, select bank0
  1639  0F65  00B3               	movwf	___flsub@a+3
  1640  0F66  0875               	movf	?___xxtofl+2,w
  1641  0F67  00B2               	movwf	___flsub@a+2
  1642  0F68  0874               	movf	?___xxtofl+1,w
  1643  0F69  00B1               	movwf	___flsub@a+1
  1644  0F6A  0873               	movf	?___xxtofl,w
  1645  0F6B  00B0               	movwf	___flsub@a
  1646  0F6C  0852               	movf	floToChar@valor+3,w
  1647  0F6D  00B7               	movwf	___flsub@b+3
  1648  0F6E  0851               	movf	floToChar@valor+2,w
  1649  0F6F  00B6               	movwf	___flsub@b+2
  1650  0F70  0850               	movf	floToChar@valor+1,w
  1651  0F71  00B5               	movwf	___flsub@b+1
  1652  0F72  084F               	movf	floToChar@valor,w
  1653  0F73  00B4               	movwf	___flsub@b
  1654  0F74  120A  158A  233F  120A  158A  	fcall	___flsub
  1655  0F79  1283               	bcf	3,5	;RP0=0, select bank0
  1656  0F7A  1303               	bcf	3,6	;RP1=0, select bank0
  1657  0F7B  0833               	movf	?___flsub+3,w
  1658  0F7C  00DB               	movwf	floToChar@temp+3
  1659  0F7D  0832               	movf	?___flsub+2,w
  1660  0F7E  00DA               	movwf	floToChar@temp+2
  1661  0F7F  0831               	movf	?___flsub+1,w
  1662  0F80  00D9               	movwf	floToChar@temp+1
  1663  0F81  0830               	movf	?___flsub,w
  1664  0F82  00D8               	movwf	floToChar@temp
  1665  0F83                     l2772:
  1666                           
  1667                           ;main.c: 201:     decimal = (temp*100);
  1668  0F83  085B               	movf	floToChar@temp+3,w
  1669  0F84  00B1               	movwf	___flmul@a+3
  1670  0F85  085A               	movf	floToChar@temp+2,w
  1671  0F86  00B0               	movwf	___flmul@a+2
  1672  0F87  0859               	movf	floToChar@temp+1,w
  1673  0F88  00AF               	movwf	___flmul@a+1
  1674  0F89  0858               	movf	floToChar@temp,w
  1675  0F8A  00AE               	movwf	___flmul@a
  1676  0F8B  3042               	movlw	66
  1677  0F8C  00AD               	movwf	___flmul@b+3
  1678  0F8D  30C8               	movlw	200
  1679  0F8E  00AC               	movwf	___flmul@b+2
  1680  0F8F  3000               	movlw	0
  1681  0F90  00AB               	movwf	___flmul@b+1
  1682  0F91  3000               	movlw	0
  1683  0F92  00AA               	movwf	___flmul@b
  1684  0F93  120A  118A  2033  120A  158A  	fcall	___flmul
  1685  0F98  1283               	bcf	3,5	;RP0=0, select bank0
  1686  0F99  1303               	bcf	3,6	;RP1=0, select bank0
  1687  0F9A  082D               	movf	?___flmul+3,w
  1688  0F9B  00C7               	movwf	___fltol@f1+3
  1689  0F9C  082C               	movf	?___flmul+2,w
  1690  0F9D  00C6               	movwf	___fltol@f1+2
  1691  0F9E  082B               	movf	?___flmul+1,w
  1692  0F9F  00C5               	movwf	___fltol@f1+1
  1693  0FA0  082A               	movf	?___flmul,w
  1694  0FA1  00C4               	movwf	___fltol@f1
  1695  0FA2  120A  158A  2585  120A  158A  	fcall	___fltol
  1696  0FA7  1283               	bcf	3,5	;RP0=0, select bank0
  1697  0FA8  1303               	bcf	3,6	;RP1=0, select bank0
  1698  0FA9  0844               	movf	?___fltol,w
  1699  0FAA  00D4               	movwf	??_floToChar
  1700  0FAB  0854               	movf	??_floToChar,w
  1701  0FAC  00DC               	movwf	floToChar@decimal
  1702  0FAD                     l2774:
  1703                           
  1704                           ;main.c: 202:     divisiondecimal(entero,&digdecimal[0],&digdecimal[1],&digdecimal[2]);
  1705  0FAD  305E               	movlw	(low (floToChar@digdecimal| 0))& (0+255)
  1706  0FAE  00D4               	movwf	??_floToChar
  1707  0FAF  0854               	movf	??_floToChar,w
  1708  0FB0  00A4               	movwf	divisiondecimal@un
  1709  0FB1  305F               	movlw	(low ((floToChar@digdecimal| 0+1)))& (0+255)
  1710  0FB2  00D5               	movwf	??_floToChar+1
  1711  0FB3  0855               	movf	??_floToChar+1,w
  1712  0FB4  00A5               	movwf	divisiondecimal@dec
  1713  0FB5  3060               	movlw	(low ((floToChar@digdecimal| 0+2)))& (0+255)
  1714  0FB6  00D6               	movwf	??_floToChar+2
  1715  0FB7  0856               	movf	??_floToChar+2,w
  1716  0FB8  00A6               	movwf	divisiondecimal@cent
  1717  0FB9  085D               	movf	floToChar@entero,w
  1718  0FBA  120A  158A  2601  120A  158A  	fcall	_divisiondecimal
  1719  0FBF                     l2776:
  1720                           
  1721                           ;main.c: 203:     salida[3] = digdecimal[0];
  1722  0FBF  1283               	bcf	3,5	;RP0=0, select bank0
  1723  0FC0  1303               	bcf	3,6	;RP1=0, select bank0
  1724  0FC1  085E               	movf	floToChar@digdecimal,w
  1725  0FC2  00D4               	movwf	??_floToChar
  1726  0FC3  0853               	movf	floToChar@salida,w
  1727  0FC4  3E03               	addlw	3
  1728  0FC5  0084               	movwf	4
  1729  0FC6  0854               	movf	??_floToChar,w
  1730  0FC7  1383               	bcf	3,7	;select IRP bank0
  1731  0FC8  0080               	movwf	0
  1732  0FC9                     l2778:
  1733                           
  1734                           ;main.c: 204:     salida[4] = digdecimal[1];
  1735  0FC9  085F               	movf	floToChar@digdecimal+1,w
  1736  0FCA  00D4               	movwf	??_floToChar
  1737  0FCB  0853               	movf	floToChar@salida,w
  1738  0FCC  3E04               	addlw	4
  1739  0FCD  0084               	movwf	4
  1740  0FCE  0854               	movf	??_floToChar,w
  1741  0FCF  0080               	movwf	0
  1742  0FD0                     l2780:
  1743                           
  1744                           ;main.c: 205:     salida[5] = digdecimal[2];
  1745  0FD0  0860               	movf	floToChar@digdecimal+2,w
  1746  0FD1  00D4               	movwf	??_floToChar
  1747  0FD2  0853               	movf	floToChar@salida,w
  1748  0FD3  3E05               	addlw	5
  1749  0FD4  0084               	movwf	4
  1750  0FD5  0854               	movf	??_floToChar,w
  1751  0FD6  0080               	movwf	0
  1752  0FD7                     l2782:
  1753                           
  1754                           ;main.c: 206:     divisiondecimal(decimal,&digdecimal[0],&digdecimal[1],&digdecimal[2]);
  1755  0FD7  305E               	movlw	(low (floToChar@digdecimal| 0))& (0+255)
  1756  0FD8  00D4               	movwf	??_floToChar
  1757  0FD9  0854               	movf	??_floToChar,w
  1758  0FDA  00A4               	movwf	divisiondecimal@un
  1759  0FDB  305F               	movlw	(low ((floToChar@digdecimal| 0+1)))& (0+255)
  1760  0FDC  00D5               	movwf	??_floToChar+1
  1761  0FDD  0855               	movf	??_floToChar+1,w
  1762  0FDE  00A5               	movwf	divisiondecimal@dec
  1763  0FDF  3060               	movlw	(low ((floToChar@digdecimal| 0+2)))& (0+255)
  1764  0FE0  00D6               	movwf	??_floToChar+2
  1765  0FE1  0856               	movf	??_floToChar+2,w
  1766  0FE2  00A6               	movwf	divisiondecimal@cent
  1767  0FE3  085C               	movf	floToChar@decimal,w
  1768  0FE4  120A  158A  2601  120A  158A  	fcall	_divisiondecimal
  1769  0FE9                     l2784:
  1770                           
  1771                           ;main.c: 207:     salida[2] = digdecimal[0];
  1772  0FE9  1283               	bcf	3,5	;RP0=0, select bank0
  1773  0FEA  1303               	bcf	3,6	;RP1=0, select bank0
  1774  0FEB  085E               	movf	floToChar@digdecimal,w
  1775  0FEC  00D4               	movwf	??_floToChar
  1776  0FED  0853               	movf	floToChar@salida,w
  1777  0FEE  3E02               	addlw	2
  1778  0FEF  0084               	movwf	4
  1779  0FF0  0854               	movf	??_floToChar,w
  1780  0FF1  1383               	bcf	3,7	;select IRP bank0
  1781  0FF2  0080               	movwf	0
  1782  0FF3                     l2786:
  1783                           
  1784                           ;main.c: 208:     salida[1] = digdecimal[1];
  1785  0FF3  085F               	movf	floToChar@digdecimal+1,w
  1786  0FF4  00D4               	movwf	??_floToChar
  1787  0FF5  0A53               	incf	floToChar@salida,w
  1788  0FF6  0084               	movwf	4
  1789  0FF7  0854               	movf	??_floToChar,w
  1790  0FF8  0080               	movwf	0
  1791  0FF9                     l2788:
  1792                           
  1793                           ;main.c: 209:     salida[0] = digdecimal[2];
  1794  0FF9  0860               	movf	floToChar@digdecimal+2,w
  1795  0FFA  00D4               	movwf	??_floToChar
  1796  0FFB  0853               	movf	floToChar@salida,w
  1797  0FFC  0084               	movwf	4
  1798  0FFD  0854               	movf	??_floToChar,w
  1799  0FFE  0080               	movwf	0
  1800  0FFF                     l121:
  1801  0FFF  0008               	return
  1802  1000                     __end_of_floToChar:
  1803                           
  1804                           	psect	text2
  1805  0E01                     __ptext2:	
  1806 ;; *************** function _divisiondecimal *****************
  1807 ;; Defined at:
  1808 ;;		line 212 in file "main.c"
  1809 ;; Parameters:    Size  Location     Type
  1810 ;;  conteo          1    wreg     unsigned char 
  1811 ;;  un              1    4[BANK0 ] PTR unsigned char 
  1812 ;;		 -> floToChar@digdecimal(3), 
  1813 ;;  dec             1    5[BANK0 ] PTR unsigned char 
  1814 ;;		 -> floToChar@digdecimal(3), 
  1815 ;;  cent            1    6[BANK0 ] PTR unsigned char 
  1816 ;;		 -> floToChar@digdecimal(3), 
  1817 ;; Auto vars:     Size  Location     Type
  1818 ;;  conteo          1   10[BANK0 ] unsigned char 
  1819 ;;  div             1   11[BANK0 ] unsigned char 
  1820 ;; Return value:  Size  Location     Type
  1821 ;;                  1    wreg      void 
  1822 ;; Registers used:
  1823 ;;		wreg, fsr0l, fsr0h, status,2, status,0, pclath, cstack
  1824 ;; Tracked objects:
  1825 ;;		On entry : 0/0
  1826 ;;		On exit  : 0/0
  1827 ;;		Unchanged: 0/0
  1828 ;; Data sizes:     COMMON   BANK0   BANK1   BANK3   BANK2
  1829 ;;      Params:         0       3       0       0       0
  1830 ;;      Locals:         0       2       0       0       0
  1831 ;;      Temps:          0       3       0       0       0
  1832 ;;      Totals:         0       8       0       0       0
  1833 ;;Total ram usage:        8 bytes
  1834 ;; Hardware stack levels used:    1
  1835 ;; Hardware stack levels required when called:    2
  1836 ;; This function calls:
  1837 ;;		___awdiv
  1838 ;;		___bmul
  1839 ;; This function is called by:
  1840 ;;		_floToChar
  1841 ;; This function uses a non-reentrant model
  1842 ;;
  1843                           
  1844                           
  1845                           ;psect for function _divisiondecimal
  1846  0E01                     _divisiondecimal:
  1847                           
  1848                           ;incstack = 0
  1849                           ; Regs used in _divisiondecimal: [wreg-fsr0h+status,2+status,0+pclath+cstack]
  1850                           ;divisiondecimal@conteo stored from wreg
  1851  0E01  1283               	bcf	3,5	;RP0=0, select bank0
  1852  0E02  1303               	bcf	3,6	;RP1=0, select bank0
  1853  0E03  00AA               	movwf	divisiondecimal@conteo
  1854  0E04                     l2674:
  1855                           
  1856                           ;main.c: 213:     uint8_t div = conteo;
  1857  0E04  082A               	movf	divisiondecimal@conteo,w
  1858  0E05  00A7               	movwf	??_divisiondecimal
  1859  0E06  0827               	movf	??_divisiondecimal,w
  1860  0E07  00AB               	movwf	divisiondecimal@div
  1861  0E08                     l2676:
  1862                           
  1863                           ;main.c: 214:     *un = 0;
  1864  0E08  0824               	movf	divisiondecimal@un,w
  1865  0E09  0084               	movwf	4
  1866  0E0A  1383               	bcf	3,7	;select IRP bank0
  1867  0E0B  0180               	clrf	0
  1868  0E0C                     l2678:
  1869                           
  1870                           ;main.c: 215:     *dec = 0;
  1871  0E0C  0825               	movf	divisiondecimal@dec,w
  1872  0E0D  0084               	movwf	4
  1873  0E0E  0180               	clrf	0
  1874  0E0F                     l2680:
  1875                           
  1876                           ;main.c: 216:     *cent = 0;
  1877  0E0F  0826               	movf	divisiondecimal@cent,w
  1878  0E10  0084               	movwf	4
  1879  0E11  0180               	clrf	0
  1880                           
  1881                           ;main.c: 219:     while(div >= 100){
  1882  0E12  2E3E               	goto	l2684
  1883  0E13                     l2682:
  1884                           
  1885                           ;main.c: 220:     *cent = div/100;
  1886  0E13  3064               	movlw	100
  1887  0E14  00F3               	movwf	___awdiv@divisor
  1888  0E15  3000               	movlw	0
  1889  0E16  00F4               	movwf	___awdiv@divisor+1
  1890  0E17  082B               	movf	divisiondecimal@div,w
  1891  0E18  00A7               	movwf	??_divisiondecimal
  1892  0E19  01A8               	clrf	??_divisiondecimal+1
  1893  0E1A  0827               	movf	??_divisiondecimal,w
  1894  0E1B  00F5               	movwf	___awdiv@dividend
  1895  0E1C  0828               	movf	??_divisiondecimal+1,w
  1896  0E1D  00F6               	movwf	___awdiv@dividend+1
  1897  0E1E  120A  158A  251C  120A  158A  	fcall	___awdiv
  1898  0E23  0873               	movf	?___awdiv,w
  1899  0E24  1283               	bcf	3,5	;RP0=0, select bank0
  1900  0E25  1303               	bcf	3,6	;RP1=0, select bank0
  1901  0E26  00A9               	movwf	??_divisiondecimal+2
  1902  0E27  0826               	movf	divisiondecimal@cent,w
  1903  0E28  0084               	movwf	4
  1904  0E29  0829               	movf	??_divisiondecimal+2,w
  1905  0E2A  1383               	bcf	3,7	;select IRP bank0
  1906  0E2B  0080               	movwf	0
  1907                           
  1908                           ;main.c: 221:     div = div - (*cent)*(100);
  1909  0E2C  309C               	movlw	156
  1910  0E2D  00A7               	movwf	??_divisiondecimal
  1911  0E2E  0827               	movf	??_divisiondecimal,w
  1912  0E2F  00F3               	movwf	___bmul@multiplicand
  1913  0E30  0826               	movf	divisiondecimal@cent,w
  1914  0E31  0084               	movwf	4
  1915  0E32  0800               	movf	0,w
  1916  0E33  120A  158A  22EE  120A  158A  	fcall	___bmul
  1917  0E38  1283               	bcf	3,5	;RP0=0, select bank0
  1918  0E39  1303               	bcf	3,6	;RP1=0, select bank0
  1919  0E3A  072B               	addwf	divisiondecimal@div,w
  1920  0E3B  00A8               	movwf	??_divisiondecimal+1
  1921  0E3C  0828               	movf	??_divisiondecimal+1,w
  1922  0E3D  00AB               	movwf	divisiondecimal@div
  1923  0E3E                     l2684:
  1924                           
  1925                           ;main.c: 219:     while(div >= 100){
  1926  0E3E  3064               	movlw	100
  1927  0E3F  022B               	subwf	divisiondecimal@div,w
  1928  0E40  1803               	skipnc
  1929  0E41  2E43               	goto	u3731
  1930  0E42  2E44               	goto	u3730
  1931  0E43                     u3731:
  1932  0E43  2E13               	goto	l2682
  1933  0E44                     u3730:
  1934  0E44  2E70               	goto	l2688
  1935  0E45                     l2686:
  1936                           
  1937                           ;main.c: 225:     *dec = div/10;
  1938  0E45  300A               	movlw	10
  1939  0E46  00F3               	movwf	___awdiv@divisor
  1940  0E47  3000               	movlw	0
  1941  0E48  00F4               	movwf	___awdiv@divisor+1
  1942  0E49  082B               	movf	divisiondecimal@div,w
  1943  0E4A  00A7               	movwf	??_divisiondecimal
  1944  0E4B  01A8               	clrf	??_divisiondecimal+1
  1945  0E4C  0827               	movf	??_divisiondecimal,w
  1946  0E4D  00F5               	movwf	___awdiv@dividend
  1947  0E4E  0828               	movf	??_divisiondecimal+1,w
  1948  0E4F  00F6               	movwf	___awdiv@dividend+1
  1949  0E50  120A  158A  251C  120A  158A  	fcall	___awdiv
  1950  0E55  0873               	movf	?___awdiv,w
  1951  0E56  1283               	bcf	3,5	;RP0=0, select bank0
  1952  0E57  1303               	bcf	3,6	;RP1=0, select bank0
  1953  0E58  00A9               	movwf	??_divisiondecimal+2
  1954  0E59  0825               	movf	divisiondecimal@dec,w
  1955  0E5A  0084               	movwf	4
  1956  0E5B  0829               	movf	??_divisiondecimal+2,w
  1957  0E5C  1383               	bcf	3,7	;select IRP bank0
  1958  0E5D  0080               	movwf	0
  1959                           
  1960                           ;main.c: 226:     div = div - (*dec)*(10);
  1961  0E5E  30F6               	movlw	246
  1962  0E5F  00A7               	movwf	??_divisiondecimal
  1963  0E60  0827               	movf	??_divisiondecimal,w
  1964  0E61  00F3               	movwf	___bmul@multiplicand
  1965  0E62  0825               	movf	divisiondecimal@dec,w
  1966  0E63  0084               	movwf	4
  1967  0E64  0800               	movf	0,w
  1968  0E65  120A  158A  22EE  120A  158A  	fcall	___bmul
  1969  0E6A  1283               	bcf	3,5	;RP0=0, select bank0
  1970  0E6B  1303               	bcf	3,6	;RP1=0, select bank0
  1971  0E6C  072B               	addwf	divisiondecimal@div,w
  1972  0E6D  00A8               	movwf	??_divisiondecimal+1
  1973  0E6E  0828               	movf	??_divisiondecimal+1,w
  1974  0E6F  00AB               	movwf	divisiondecimal@div
  1975  0E70                     l2688:
  1976                           
  1977                           ;main.c: 224:     while (div >= 10){
  1978  0E70  300A               	movlw	10
  1979  0E71  022B               	subwf	divisiondecimal@div,w
  1980  0E72  1803               	skipnc
  1981  0E73  2E75               	goto	u3741
  1982  0E74  2E76               	goto	u3740
  1983  0E75                     u3741:
  1984  0E75  2E45               	goto	l2686
  1985  0E76                     u3740:
  1986  0E76                     l2690:
  1987                           
  1988                           ;main.c: 229:     *un = div;
  1989  0E76  082B               	movf	divisiondecimal@div,w
  1990  0E77  00A7               	movwf	??_divisiondecimal
  1991  0E78  0824               	movf	divisiondecimal@un,w
  1992  0E79  0084               	movwf	4
  1993  0E7A  0827               	movf	??_divisiondecimal,w
  1994  0E7B  1383               	bcf	3,7	;select IRP bank0
  1995  0E7C  0080               	movwf	0
  1996  0E7D                     l130:
  1997  0E7D  0008               	return
  1998  0E7E                     __end_of_divisiondecimal:
  1999                           
  2000                           	psect	text3
  2001  0AEE                     __ptext3:	
  2002 ;; *************** function ___bmul *****************
  2003 ;; Defined at:
  2004 ;;		line 4 in file "C:\Program Files\Microchip\xc8\v2.31\pic\sources\c90\common\Umul8.c"
  2005 ;; Parameters:    Size  Location     Type
  2006 ;;  multiplier      1    wreg     unsigned char 
  2007 ;;  multiplicand    1    3[COMMON] unsigned char 
  2008 ;; Auto vars:     Size  Location     Type
  2009 ;;  multiplier      1    6[COMMON] unsigned char 
  2010 ;;  product         1    5[COMMON] unsigned char 
  2011 ;; Return value:  Size  Location     Type
  2012 ;;                  1    wreg      unsigned char 
  2013 ;; Registers used:
  2014 ;;		wreg, status,2, status,0
  2015 ;; Tracked objects:
  2016 ;;		On entry : 0/0
  2017 ;;		On exit  : 0/0
  2018 ;;		Unchanged: 0/0
  2019 ;; Data sizes:     COMMON   BANK0   BANK1   BANK3   BANK2
  2020 ;;      Params:         1       0       0       0       0
  2021 ;;      Locals:         2       0       0       0       0
  2022 ;;      Temps:          1       0       0       0       0
  2023 ;;      Totals:         4       0       0       0       0
  2024 ;;Total ram usage:        4 bytes
  2025 ;; Hardware stack levels used:    1
  2026 ;; Hardware stack levels required when called:    1
  2027 ;; This function calls:
  2028 ;;		Nothing
  2029 ;; This function is called by:
  2030 ;;		_divisiondecimal
  2031 ;; This function uses a non-reentrant model
  2032 ;;
  2033                           
  2034                           
  2035                           ;psect for function ___bmul
  2036  0AEE                     ___bmul:
  2037                           
  2038                           ;incstack = 0
  2039                           ; Regs used in ___bmul: [wreg+status,2+status,0]
  2040                           ;___bmul@multiplier stored from wreg
  2041  0AEE  00F6               	movwf	___bmul@multiplier
  2042  0AEF                     l1648:
  2043  0AEF  01F5               	clrf	___bmul@product
  2044  0AF0                     l1650:
  2045  0AF0  1C76               	btfss	___bmul@multiplier,0
  2046  0AF1  2AF3               	goto	u1611
  2047  0AF2  2AF4               	goto	u1610
  2048  0AF3                     u1611:
  2049  0AF3  2AF8               	goto	l1654
  2050  0AF4                     u1610:
  2051  0AF4                     l1652:
  2052  0AF4  0873               	movf	___bmul@multiplicand,w
  2053  0AF5  00F4               	movwf	??___bmul
  2054  0AF6  0874               	movf	??___bmul,w
  2055  0AF7  07F5               	addwf	___bmul@product,f
  2056  0AF8                     l1654:
  2057  0AF8  1003               	clrc
  2058  0AF9  0DF3               	rlf	___bmul@multiplicand,f
  2059  0AFA                     l1656:
  2060  0AFA  1003               	clrc
  2061  0AFB  0CF6               	rrf	___bmul@multiplier,f
  2062  0AFC  0876               	movf	___bmul@multiplier,w
  2063  0AFD  1D03               	btfss	3,2
  2064  0AFE  2B00               	goto	u1621
  2065  0AFF  2B01               	goto	u1620
  2066  0B00                     u1621:
  2067  0B00  2AF0               	goto	l1650
  2068  0B01                     u1620:
  2069  0B01                     l1658:
  2070  0B01  0875               	movf	___bmul@product,w
  2071  0B02                     l352:
  2072  0B02  0008               	return
  2073  0B03                     __end_of___bmul:
  2074                           
  2075                           	psect	text4
  2076  0D1C                     __ptext4:	
  2077 ;; *************** function ___awdiv *****************
  2078 ;; Defined at:
  2079 ;;		line 5 in file "C:\Program Files\Microchip\xc8\v2.31\pic\sources\c90\common\awdiv.c"
  2080 ;; Parameters:    Size  Location     Type
  2081 ;;  divisor         2    3[COMMON] int 
  2082 ;;  dividend        2    5[COMMON] int 
  2083 ;; Auto vars:     Size  Location     Type
  2084 ;;  quotient        2    2[BANK0 ] int 
  2085 ;;  sign            1    1[BANK0 ] unsigned char 
  2086 ;;  counter         1    0[BANK0 ] unsigned char 
  2087 ;; Return value:  Size  Location     Type
  2088 ;;                  2    3[COMMON] int 
  2089 ;; Registers used:
  2090 ;;		wreg, status,2, status,0
  2091 ;; Tracked objects:
  2092 ;;		On entry : 0/0
  2093 ;;		On exit  : 0/0
  2094 ;;		Unchanged: 0/0
  2095 ;; Data sizes:     COMMON   BANK0   BANK1   BANK3   BANK2
  2096 ;;      Params:         4       0       0       0       0
  2097 ;;      Locals:         0       4       0       0       0
  2098 ;;      Temps:          1       0       0       0       0
  2099 ;;      Totals:         5       4       0       0       0
  2100 ;;Total ram usage:        9 bytes
  2101 ;; Hardware stack levels used:    1
  2102 ;; Hardware stack levels required when called:    1
  2103 ;; This function calls:
  2104 ;;		Nothing
  2105 ;; This function is called by:
  2106 ;;		_main
  2107 ;;		_divisiondecimal
  2108 ;; This function uses a non-reentrant model
  2109 ;;
  2110                           
  2111                           
  2112                           ;psect for function ___awdiv
  2113  0D1C                     ___awdiv:
  2114  0D1C                     l1686:	
  2115                           ;incstack = 0
  2116                           ; Regs used in ___awdiv: [wreg+status,2+status,0]
  2117                           
  2118  0D1C  1283               	bcf	3,5	;RP0=0, select bank0
  2119  0D1D  1303               	bcf	3,6	;RP1=0, select bank0
  2120  0D1E  01A1               	clrf	___awdiv@sign
  2121  0D1F                     l1688:
  2122  0D1F  1FF4               	btfss	___awdiv@divisor+1,7
  2123  0D20  2D22               	goto	u1701
  2124  0D21  2D23               	goto	u1700
  2125  0D22                     u1701:
  2126  0D22  2D2A               	goto	l1694
  2127  0D23                     u1700:
  2128  0D23                     l1690:
  2129  0D23  09F3               	comf	___awdiv@divisor,f
  2130  0D24  09F4               	comf	___awdiv@divisor+1,f
  2131  0D25  0AF3               	incf	___awdiv@divisor,f
  2132  0D26  1903               	skipnz
  2133  0D27  0AF4               	incf	___awdiv@divisor+1,f
  2134  0D28                     l1692:
  2135  0D28  01A1               	clrf	___awdiv@sign
  2136  0D29  0AA1               	incf	___awdiv@sign,f
  2137  0D2A                     l1694:
  2138  0D2A  1FF6               	btfss	___awdiv@dividend+1,7
  2139  0D2B  2D2D               	goto	u1711
  2140  0D2C  2D2E               	goto	u1710
  2141  0D2D                     u1711:
  2142  0D2D  2D37               	goto	l1700
  2143  0D2E                     u1710:
  2144  0D2E                     l1696:
  2145  0D2E  09F5               	comf	___awdiv@dividend,f
  2146  0D2F  09F6               	comf	___awdiv@dividend+1,f
  2147  0D30  0AF5               	incf	___awdiv@dividend,f
  2148  0D31  1903               	skipnz
  2149  0D32  0AF6               	incf	___awdiv@dividend+1,f
  2150  0D33                     l1698:
  2151  0D33  3001               	movlw	1
  2152  0D34  00F7               	movwf	??___awdiv
  2153  0D35  0877               	movf	??___awdiv,w
  2154  0D36  06A1               	xorwf	___awdiv@sign,f
  2155  0D37                     l1700:
  2156  0D37  01A2               	clrf	___awdiv@quotient
  2157  0D38  01A3               	clrf	___awdiv@quotient+1
  2158  0D39                     l1702:
  2159  0D39  0873               	movf	___awdiv@divisor,w
  2160  0D3A  0474               	iorwf	___awdiv@divisor+1,w
  2161  0D3B  1903               	btfsc	3,2
  2162  0D3C  2D3E               	goto	u1721
  2163  0D3D  2D3F               	goto	u1720
  2164  0D3E                     u1721:
  2165  0D3E  2D76               	goto	l1722
  2166  0D3F                     u1720:
  2167  0D3F                     l1704:
  2168  0D3F  01A0               	clrf	___awdiv@counter
  2169  0D40  0AA0               	incf	___awdiv@counter,f
  2170  0D41  2D4D               	goto	l1710
  2171  0D42                     l1706:
  2172  0D42  3001               	movlw	1
  2173  0D43                     u1735:
  2174  0D43  1003               	clrc
  2175  0D44  0DF3               	rlf	___awdiv@divisor,f
  2176  0D45  0DF4               	rlf	___awdiv@divisor+1,f
  2177  0D46  3EFF               	addlw	-1
  2178  0D47  1D03               	skipz
  2179  0D48  2D43               	goto	u1735
  2180  0D49                     l1708:
  2181  0D49  3001               	movlw	1
  2182  0D4A  00F7               	movwf	??___awdiv
  2183  0D4B  0877               	movf	??___awdiv,w
  2184  0D4C  07A0               	addwf	___awdiv@counter,f
  2185  0D4D                     l1710:
  2186  0D4D  1FF4               	btfss	___awdiv@divisor+1,7
  2187  0D4E  2D50               	goto	u1741
  2188  0D4F  2D51               	goto	u1740
  2189  0D50                     u1741:
  2190  0D50  2D42               	goto	l1706
  2191  0D51                     u1740:
  2192  0D51                     l1712:
  2193  0D51  3001               	movlw	1
  2194  0D52                     u1755:
  2195  0D52  1003               	clrc
  2196  0D53  0DA2               	rlf	___awdiv@quotient,f
  2197  0D54  0DA3               	rlf	___awdiv@quotient+1,f
  2198  0D55  3EFF               	addlw	-1
  2199  0D56  1D03               	skipz
  2200  0D57  2D52               	goto	u1755
  2201  0D58  0874               	movf	___awdiv@divisor+1,w
  2202  0D59  0276               	subwf	___awdiv@dividend+1,w
  2203  0D5A  1D03               	skipz
  2204  0D5B  2D5E               	goto	u1765
  2205  0D5C  0873               	movf	___awdiv@divisor,w
  2206  0D5D  0275               	subwf	___awdiv@dividend,w
  2207  0D5E                     u1765:
  2208  0D5E  1C03               	skipc
  2209  0D5F  2D61               	goto	u1761
  2210  0D60  2D62               	goto	u1760
  2211  0D61                     u1761:
  2212  0D61  2D69               	goto	l1718
  2213  0D62                     u1760:
  2214  0D62                     l1714:
  2215  0D62  0873               	movf	___awdiv@divisor,w
  2216  0D63  02F5               	subwf	___awdiv@dividend,f
  2217  0D64  0874               	movf	___awdiv@divisor+1,w
  2218  0D65  1C03               	skipc
  2219  0D66  03F6               	decf	___awdiv@dividend+1,f
  2220  0D67  02F6               	subwf	___awdiv@dividend+1,f
  2221  0D68                     l1716:
  2222  0D68  1422               	bsf	___awdiv@quotient,0
  2223  0D69                     l1718:
  2224  0D69  3001               	movlw	1
  2225  0D6A                     u1775:
  2226  0D6A  1003               	clrc
  2227  0D6B  0CF4               	rrf	___awdiv@divisor+1,f
  2228  0D6C  0CF3               	rrf	___awdiv@divisor,f
  2229  0D6D  3EFF               	addlw	-1
  2230  0D6E  1D03               	skipz
  2231  0D6F  2D6A               	goto	u1775
  2232  0D70                     l1720:
  2233  0D70  3001               	movlw	1
  2234  0D71  02A0               	subwf	___awdiv@counter,f
  2235  0D72  1D03               	btfss	3,2
  2236  0D73  2D75               	goto	u1781
  2237  0D74  2D76               	goto	u1780
  2238  0D75                     u1781:
  2239  0D75  2D51               	goto	l1712
  2240  0D76                     u1780:
  2241  0D76                     l1722:
  2242  0D76  0821               	movf	___awdiv@sign,w
  2243  0D77  1903               	btfsc	3,2
  2244  0D78  2D7A               	goto	u1791
  2245  0D79  2D7B               	goto	u1790
  2246  0D7A                     u1791:
  2247  0D7A  2D80               	goto	l1726
  2248  0D7B                     u1790:
  2249  0D7B                     l1724:
  2250  0D7B  09A2               	comf	___awdiv@quotient,f
  2251  0D7C  09A3               	comf	___awdiv@quotient+1,f
  2252  0D7D  0AA2               	incf	___awdiv@quotient,f
  2253  0D7E  1903               	skipnz
  2254  0D7F  0AA3               	incf	___awdiv@quotient+1,f
  2255  0D80                     l1726:
  2256  0D80  0823               	movf	___awdiv@quotient+1,w
  2257  0D81  00F4               	movwf	?___awdiv+1
  2258  0D82  0822               	movf	___awdiv@quotient,w
  2259  0D83  00F3               	movwf	?___awdiv
  2260  0D84                     l479:
  2261  0D84  0008               	return
  2262  0D85                     __end_of___awdiv:
  2263                           
  2264                           	psect	text5
  2265  0E7E                     __ptext5:	
  2266 ;; *************** function ___xxtofl *****************
  2267 ;; Defined at:
  2268 ;;		line 10 in file "C:\Program Files\Microchip\xc8\v2.31\pic\sources\c90\common\xxtofl.c"
  2269 ;; Parameters:    Size  Location     Type
  2270 ;;  sign            1    wreg     unsigned char 
  2271 ;;  val             4    3[COMMON] long 
  2272 ;; Auto vars:     Size  Location     Type
  2273 ;;  sign            1    4[BANK0 ] unsigned char 
  2274 ;;  arg             4    6[BANK0 ] unsigned long 
  2275 ;;  exp             1    5[BANK0 ] unsigned char 
  2276 ;; Return value:  Size  Location     Type
  2277 ;;                  4    3[COMMON] unsigned char 
  2278 ;; Registers used:
  2279 ;;		wreg, status,2, status,0
  2280 ;; Tracked objects:
  2281 ;;		On entry : 0/0
  2282 ;;		On exit  : 0/0
  2283 ;;		Unchanged: 0/0
  2284 ;; Data sizes:     COMMON   BANK0   BANK1   BANK3   BANK2
  2285 ;;      Params:         4       0       0       0       0
  2286 ;;      Locals:         0       6       0       0       0
  2287 ;;      Temps:          0       4       0       0       0
  2288 ;;      Totals:         4      10       0       0       0
  2289 ;;Total ram usage:       14 bytes
  2290 ;; Hardware stack levels used:    1
  2291 ;; Hardware stack levels required when called:    1
  2292 ;; This function calls:
  2293 ;;		Nothing
  2294 ;; This function is called by:
  2295 ;;		_main
  2296 ;;		_floToChar
  2297 ;; This function uses a non-reentrant model
  2298 ;;
  2299                           
  2300                           
  2301                           ;psect for function ___xxtofl
  2302  0E7E                     ___xxtofl:
  2303                           
  2304                           ;incstack = 0
  2305                           ; Regs used in ___xxtofl: [wreg+status,2+status,0]
  2306                           ;___xxtofl@sign stored from wreg
  2307  0E7E  1283               	bcf	3,5	;RP0=0, select bank0
  2308  0E7F  1303               	bcf	3,6	;RP1=0, select bank0
  2309  0E80  00A4               	movwf	___xxtofl@sign
  2310  0E81                     l2698:
  2311  0E81  0824               	movf	___xxtofl@sign,w
  2312  0E82  1903               	btfsc	3,2
  2313  0E83  2E85               	goto	u3751
  2314  0E84  2E86               	goto	u3750
  2315  0E85                     u3751:
  2316  0E85  2E9A               	goto	l2704
  2317  0E86                     u3750:
  2318  0E86                     l2700:
  2319  0E86  1FF6               	btfss	___xxtofl@val+3,7
  2320  0E87  2E89               	goto	u3761
  2321  0E88  2E8A               	goto	u3760
  2322  0E89                     u3761:
  2323  0E89  2E9A               	goto	l2704
  2324  0E8A                     u3760:
  2325  0E8A                     l2702:
  2326  0E8A  0973               	comf	___xxtofl@val,w
  2327  0E8B  00A6               	movwf	___xxtofl@arg
  2328  0E8C  0974               	comf	___xxtofl@val+1,w
  2329  0E8D  00A7               	movwf	___xxtofl@arg+1
  2330  0E8E  0975               	comf	___xxtofl@val+2,w
  2331  0E8F  00A8               	movwf	___xxtofl@arg+2
  2332  0E90  0976               	comf	___xxtofl@val+3,w
  2333  0E91  00A9               	movwf	___xxtofl@arg+3
  2334  0E92  0AA6               	incf	___xxtofl@arg,f
  2335  0E93  1903               	skipnz
  2336  0E94  0AA7               	incf	___xxtofl@arg+1,f
  2337  0E95  1903               	skipnz
  2338  0E96  0AA8               	incf	___xxtofl@arg+2,f
  2339  0E97  1903               	skipnz
  2340  0E98  0AA9               	incf	___xxtofl@arg+3,f
  2341  0E99  2EA2               	goto	l759
  2342  0E9A                     l2704:
  2343  0E9A  0876               	movf	___xxtofl@val+3,w
  2344  0E9B  00A9               	movwf	___xxtofl@arg+3
  2345  0E9C  0875               	movf	___xxtofl@val+2,w
  2346  0E9D  00A8               	movwf	___xxtofl@arg+2
  2347  0E9E  0874               	movf	___xxtofl@val+1,w
  2348  0E9F  00A7               	movwf	___xxtofl@arg+1
  2349  0EA0  0873               	movf	___xxtofl@val,w
  2350  0EA1  00A6               	movwf	___xxtofl@arg
  2351  0EA2                     l759:
  2352  0EA2  0876               	movf	___xxtofl@val+3,w
  2353  0EA3  0475               	iorwf	___xxtofl@val+2,w
  2354  0EA4  0474               	iorwf	___xxtofl@val+1,w
  2355  0EA5  0473               	iorwf	___xxtofl@val,w
  2356  0EA6  1D03               	skipz
  2357  0EA7  2EA9               	goto	u3771
  2358  0EA8  2EAA               	goto	u3770
  2359  0EA9                     u3771:
  2360  0EA9  2EB3               	goto	l2710
  2361  0EAA                     u3770:
  2362  0EAA                     l2706:
  2363  0EAA  3000               	movlw	0
  2364  0EAB  00F6               	movwf	?___xxtofl+3
  2365  0EAC  3000               	movlw	0
  2366  0EAD  00F5               	movwf	?___xxtofl+2
  2367  0EAE  3000               	movlw	0
  2368  0EAF  00F4               	movwf	?___xxtofl+1
  2369  0EB0  3000               	movlw	0
  2370  0EB1  00F3               	movwf	?___xxtofl
  2371  0EB2  2F39               	goto	l761
  2372  0EB3                     l2710:
  2373  0EB3  3096               	movlw	150
  2374  0EB4  00A0               	movwf	??___xxtofl
  2375  0EB5  0820               	movf	??___xxtofl,w
  2376  0EB6  00A5               	movwf	___xxtofl@exp
  2377  0EB7  2EC5               	goto	l2714
  2378  0EB8                     l2712:
  2379  0EB8  3001               	movlw	1
  2380  0EB9  00A0               	movwf	??___xxtofl
  2381  0EBA  0820               	movf	??___xxtofl,w
  2382  0EBB  07A5               	addwf	___xxtofl@exp,f
  2383  0EBC  3001               	movlw	1
  2384  0EBD                     u3785:
  2385  0EBD  1003               	clrc
  2386  0EBE  0CA9               	rrf	___xxtofl@arg+3,f
  2387  0EBF  0CA8               	rrf	___xxtofl@arg+2,f
  2388  0EC0  0CA7               	rrf	___xxtofl@arg+1,f
  2389  0EC1  0CA6               	rrf	___xxtofl@arg,f
  2390  0EC2  3EFF               	addlw	-1
  2391  0EC3  1D03               	skipz
  2392  0EC4  2EBD               	goto	u3785
  2393  0EC5                     l2714:
  2394  0EC5  30FE               	movlw	254
  2395  0EC6  0529               	andwf	___xxtofl@arg+3,w
  2396  0EC7  1D03               	btfss	3,2
  2397  0EC8  2ECA               	goto	u3791
  2398  0EC9  2ECB               	goto	u3790
  2399  0ECA                     u3791:
  2400  0ECA  2EB8               	goto	l2712
  2401  0ECB                     u3790:
  2402  0ECB  2EE7               	goto	l765
  2403  0ECC                     l2716:
  2404  0ECC  3001               	movlw	1
  2405  0ECD  00A0               	movwf	??___xxtofl
  2406  0ECE  0820               	movf	??___xxtofl,w
  2407  0ECF  07A5               	addwf	___xxtofl@exp,f
  2408  0ED0                     l2718:
  2409  0ED0  3001               	movlw	1
  2410  0ED1  07A6               	addwf	___xxtofl@arg,f
  2411  0ED2  3000               	movlw	0
  2412  0ED3  1803               	skipnc
  2413  0ED4  3001               	movlw	1
  2414  0ED5  07A7               	addwf	___xxtofl@arg+1,f
  2415  0ED6  3000               	movlw	0
  2416  0ED7  1803               	skipnc
  2417  0ED8  3001               	movlw	1
  2418  0ED9  07A8               	addwf	___xxtofl@arg+2,f
  2419  0EDA  3000               	movlw	0
  2420  0EDB  1803               	skipnc
  2421  0EDC  3001               	movlw	1
  2422  0EDD  07A9               	addwf	___xxtofl@arg+3,f
  2423  0EDE                     l2720:
  2424  0EDE  3001               	movlw	1
  2425  0EDF                     u3805:
  2426  0EDF  1003               	clrc
  2427  0EE0  0CA9               	rrf	___xxtofl@arg+3,f
  2428  0EE1  0CA8               	rrf	___xxtofl@arg+2,f
  2429  0EE2  0CA7               	rrf	___xxtofl@arg+1,f
  2430  0EE3  0CA6               	rrf	___xxtofl@arg,f
  2431  0EE4  3EFF               	addlw	-1
  2432  0EE5  1D03               	skipz
  2433  0EE6  2EDF               	goto	u3805
  2434  0EE7                     l765:
  2435  0EE7  30FF               	movlw	255
  2436  0EE8  0529               	andwf	___xxtofl@arg+3,w
  2437  0EE9  1D03               	btfss	3,2
  2438  0EEA  2EEC               	goto	u3811
  2439  0EEB  2EED               	goto	u3810
  2440  0EEC                     u3811:
  2441  0EEC  2ECC               	goto	l2716
  2442  0EED                     u3810:
  2443  0EED  2EF9               	goto	l2724
  2444  0EEE                     l2722:
  2445  0EEE  3001               	movlw	1
  2446  0EEF  02A5               	subwf	___xxtofl@exp,f
  2447  0EF0  3001               	movlw	1
  2448  0EF1  00A0               	movwf	??___xxtofl
  2449  0EF2                     u3825:
  2450  0EF2  1003               	clrc
  2451  0EF3  0DA6               	rlf	___xxtofl@arg,f
  2452  0EF4  0DA7               	rlf	___xxtofl@arg+1,f
  2453  0EF5  0DA8               	rlf	___xxtofl@arg+2,f
  2454  0EF6  0DA9               	rlf	___xxtofl@arg+3,f
  2455  0EF7  0BA0               	decfsz	??___xxtofl,f
  2456  0EF8  2EF2               	goto	u3825
  2457  0EF9                     l2724:
  2458  0EF9  1BA8               	btfsc	___xxtofl@arg+2,7
  2459  0EFA  2EFC               	goto	u3831
  2460  0EFB  2EFD               	goto	u3830
  2461  0EFC                     u3831:
  2462  0EFC  2F03               	goto	l772
  2463  0EFD                     u3830:
  2464  0EFD                     l2726:
  2465  0EFD  3002               	movlw	2
  2466  0EFE  0225               	subwf	___xxtofl@exp,w
  2467  0EFF  1803               	skipnc
  2468  0F00  2F02               	goto	u3841
  2469  0F01  2F03               	goto	u3840
  2470  0F02                     u3841:
  2471  0F02  2EEE               	goto	l2722
  2472  0F03                     u3840:
  2473  0F03                     l772:
  2474  0F03  1825               	btfsc	___xxtofl@exp,0
  2475  0F04  2F06               	goto	u3851
  2476  0F05  2F07               	goto	u3850
  2477  0F06                     u3851:
  2478  0F06  2F0F               	goto	l773
  2479  0F07                     u3850:
  2480  0F07                     l2728:
  2481  0F07  30FF               	movlw	255
  2482  0F08  05A6               	andwf	___xxtofl@arg,f
  2483  0F09  30FF               	movlw	255
  2484  0F0A  05A7               	andwf	___xxtofl@arg+1,f
  2485  0F0B  307F               	movlw	127
  2486  0F0C  05A8               	andwf	___xxtofl@arg+2,f
  2487  0F0D  30FF               	movlw	255
  2488  0F0E  05A9               	andwf	___xxtofl@arg+3,f
  2489  0F0F                     l773:
  2490  0F0F  1003               	clrc
  2491  0F10  0CA5               	rrf	___xxtofl@exp,f
  2492  0F11                     l2730:
  2493  0F11  0825               	movf	___xxtofl@exp,w
  2494  0F12  00A0               	movwf	??___xxtofl
  2495  0F13  01A1               	clrf	??___xxtofl+1
  2496  0F14  01A2               	clrf	??___xxtofl+2
  2497  0F15  01A3               	clrf	??___xxtofl+3
  2498  0F16  3018               	movlw	24
  2499  0F17                     u3865:
  2500  0F17  1003               	clrc
  2501  0F18  0DA0               	rlf	??___xxtofl,f
  2502  0F19  0DA1               	rlf	??___xxtofl+1,f
  2503  0F1A  0DA2               	rlf	??___xxtofl+2,f
  2504  0F1B  0DA3               	rlf	??___xxtofl+3,f
  2505  0F1C                     u3860:
  2506  0F1C  3EFF               	addlw	-1
  2507  0F1D  1D03               	skipz
  2508  0F1E  2F17               	goto	u3865
  2509  0F1F  0820               	movf	??___xxtofl,w
  2510  0F20  04A6               	iorwf	___xxtofl@arg,f
  2511  0F21  0821               	movf	??___xxtofl+1,w
  2512  0F22  04A7               	iorwf	___xxtofl@arg+1,f
  2513  0F23  0822               	movf	??___xxtofl+2,w
  2514  0F24  04A8               	iorwf	___xxtofl@arg+2,f
  2515  0F25  0823               	movf	??___xxtofl+3,w
  2516  0F26  04A9               	iorwf	___xxtofl@arg+3,f
  2517  0F27                     l2732:
  2518  0F27  0824               	movf	___xxtofl@sign,w
  2519  0F28  1903               	btfsc	3,2
  2520  0F29  2F2B               	goto	u3871
  2521  0F2A  2F2C               	goto	u3870
  2522  0F2B                     u3871:
  2523  0F2B  2F31               	goto	l2738
  2524  0F2C                     u3870:
  2525  0F2C                     l2734:
  2526  0F2C  1FF6               	btfss	___xxtofl@val+3,7
  2527  0F2D  2F2F               	goto	u3881
  2528  0F2E  2F30               	goto	u3880
  2529  0F2F                     u3881:
  2530  0F2F  2F31               	goto	l2738
  2531  0F30                     u3880:
  2532  0F30                     l2736:
  2533  0F30  17A9               	bsf	___xxtofl@arg+3,7
  2534  0F31                     l2738:
  2535  0F31  0829               	movf	___xxtofl@arg+3,w
  2536  0F32  00F6               	movwf	?___xxtofl+3
  2537  0F33  0828               	movf	___xxtofl@arg+2,w
  2538  0F34  00F5               	movwf	?___xxtofl+2
  2539  0F35  0827               	movf	___xxtofl@arg+1,w
  2540  0F36  00F4               	movwf	?___xxtofl+1
  2541  0F37  0826               	movf	___xxtofl@arg,w
  2542  0F38  00F3               	movwf	?___xxtofl
  2543  0F39                     l761:
  2544  0F39  0008               	return
  2545  0F3A                     __end_of___xxtofl:
  2546                           
  2547                           	psect	text6
  2548  0D85                     __ptext6:	
  2549 ;; *************** function ___fltol *****************
  2550 ;; Defined at:
  2551 ;;		line 43 in file "C:\Program Files\Microchip\xc8\v2.31\pic\sources\c90\common\fltol.c"
  2552 ;; Parameters:    Size  Location     Type
  2553 ;;  f1              4   36[BANK0 ] unsigned char 
  2554 ;; Auto vars:     Size  Location     Type
  2555 ;;  exp1            1   46[BANK0 ] unsigned char 
  2556 ;;  sign1           1   45[BANK0 ] unsigned char 
  2557 ;; Return value:  Size  Location     Type
  2558 ;;                  4   36[BANK0 ] long 
  2559 ;; Registers used:
  2560 ;;		wreg, status,2, status,0
  2561 ;; Tracked objects:
  2562 ;;		On entry : 0/0
  2563 ;;		On exit  : 0/0
  2564 ;;		Unchanged: 0/0
  2565 ;; Data sizes:     COMMON   BANK0   BANK1   BANK3   BANK2
  2566 ;;      Params:         0       4       0       0       0
  2567 ;;      Locals:         0       2       0       0       0
  2568 ;;      Temps:          0       5       0       0       0
  2569 ;;      Totals:         0      11       0       0       0
  2570 ;;Total ram usage:       11 bytes
  2571 ;; Hardware stack levels used:    1
  2572 ;; Hardware stack levels required when called:    1
  2573 ;; This function calls:
  2574 ;;		Nothing
  2575 ;; This function is called by:
  2576 ;;		_floToChar
  2577 ;; This function uses a non-reentrant model
  2578 ;;
  2579                           
  2580                           
  2581                           ;psect for function ___fltol
  2582  0D85                     ___fltol:
  2583  0D85                     l1972:	
  2584                           ;incstack = 0
  2585                           ; Regs used in ___fltol: [wreg+status,2+status,0]
  2586                           
  2587  0D85  1003               	clrc
  2588  0D86  1283               	bcf	3,5	;RP0=0, select bank0
  2589  0D87  1303               	bcf	3,6	;RP1=0, select bank0
  2590  0D88  0D46               	rlf	___fltol@f1+2,w
  2591  0D89  0D47               	rlf	___fltol@f1+3,w
  2592  0D8A  00C8               	movwf	??___fltol
  2593  0D8B  0848               	movf	??___fltol,w
  2594  0D8C  00CE               	movwf	___fltol@exp1
  2595  0D8D  084E               	movf	___fltol@exp1,w
  2596  0D8E  1D03               	btfss	3,2
  2597  0D8F  2D91               	goto	u2341
  2598  0D90  2D92               	goto	u2340
  2599  0D91                     u2341:
  2600  0D91  2D9B               	goto	l1978
  2601  0D92                     u2340:
  2602  0D92                     l1974:
  2603  0D92  3000               	movlw	0
  2604  0D93  00C7               	movwf	?___fltol+3
  2605  0D94  3000               	movlw	0
  2606  0D95  00C6               	movwf	?___fltol+2
  2607  0D96  3000               	movlw	0
  2608  0D97  00C5               	movwf	?___fltol+1
  2609  0D98  3000               	movlw	0
  2610  0D99  00C4               	movwf	?___fltol
  2611  0D9A  2E00               	goto	l512
  2612  0D9B                     l1978:
  2613  0D9B  0844               	movf	___fltol@f1,w
  2614  0D9C  00C8               	movwf	??___fltol
  2615  0D9D  0845               	movf	___fltol@f1+1,w
  2616  0D9E  00C9               	movwf	??___fltol+1
  2617  0D9F  0846               	movf	___fltol@f1+2,w
  2618  0DA0  00CA               	movwf	??___fltol+2
  2619  0DA1  0847               	movf	___fltol@f1+3,w
  2620  0DA2  00CB               	movwf	??___fltol+3
  2621  0DA3  301F               	movlw	31
  2622  0DA4                     u2355:
  2623  0DA4  1003               	clrc
  2624  0DA5  0CCB               	rrf	??___fltol+3,f
  2625  0DA6  0CCA               	rrf	??___fltol+2,f
  2626  0DA7  0CC9               	rrf	??___fltol+1,f
  2627  0DA8  0CC8               	rrf	??___fltol,f
  2628  0DA9                     u2350:
  2629  0DA9  3EFF               	addlw	-1
  2630  0DAA  1D03               	skipz
  2631  0DAB  2DA4               	goto	u2355
  2632  0DAC  0848               	movf	??___fltol,w
  2633  0DAD  00CC               	movwf	??___fltol+4
  2634  0DAE  084C               	movf	??___fltol+4,w
  2635  0DAF  00CD               	movwf	___fltol@sign1
  2636  0DB0                     l1980:
  2637  0DB0  17C6               	bsf	___fltol@f1+2,7
  2638  0DB1                     l1982:
  2639  0DB1  30FF               	movlw	255
  2640  0DB2  05C4               	andwf	___fltol@f1,f
  2641  0DB3  30FF               	movlw	255
  2642  0DB4  05C5               	andwf	___fltol@f1+1,f
  2643  0DB5  30FF               	movlw	255
  2644  0DB6  05C6               	andwf	___fltol@f1+2,f
  2645  0DB7  3000               	movlw	0
  2646  0DB8  05C7               	andwf	___fltol@f1+3,f
  2647  0DB9                     l1984:
  2648  0DB9  3096               	movlw	150
  2649  0DBA  02CE               	subwf	___fltol@exp1,f
  2650  0DBB                     l1986:
  2651  0DBB  1FCE               	btfss	___fltol@exp1,7
  2652  0DBC  2DBE               	goto	u2361
  2653  0DBD  2DBF               	goto	u2360
  2654  0DBE                     u2361:
  2655  0DBE  2DD9               	goto	l1996
  2656  0DBF                     u2360:
  2657  0DBF                     l1988:
  2658  0DBF  084E               	movf	___fltol@exp1,w
  2659  0DC0  3A80               	xorlw	128
  2660  0DC1  3E97               	addlw	151
  2661  0DC2  1803               	skipnc
  2662  0DC3  2DC5               	goto	u2371
  2663  0DC4  2DC6               	goto	u2370
  2664  0DC5                     u2371:
  2665  0DC5  2DC7               	goto	l1994
  2666  0DC6                     u2370:
  2667  0DC6  2D92               	goto	l1974
  2668  0DC7                     l1994:
  2669  0DC7  3001               	movlw	1
  2670  0DC8                     u2385:
  2671  0DC8  1003               	clrc
  2672  0DC9  0CC7               	rrf	___fltol@f1+3,f
  2673  0DCA  0CC6               	rrf	___fltol@f1+2,f
  2674  0DCB  0CC5               	rrf	___fltol@f1+1,f
  2675  0DCC  0CC4               	rrf	___fltol@f1,f
  2676  0DCD  3EFF               	addlw	-1
  2677  0DCE  1D03               	skipz
  2678  0DCF  2DC8               	goto	u2385
  2679  0DD0  3001               	movlw	1
  2680  0DD1  00C8               	movwf	??___fltol
  2681  0DD2  0848               	movf	??___fltol,w
  2682  0DD3  07CE               	addwf	___fltol@exp1,f
  2683  0DD4  1D03               	btfss	3,2
  2684  0DD5  2DD7               	goto	u2391
  2685  0DD6  2DD8               	goto	u2390
  2686  0DD7                     u2391:
  2687  0DD7  2DC7               	goto	l1994
  2688  0DD8                     u2390:
  2689  0DD8  2DF0               	goto	l2004
  2690  0DD9                     l1996:
  2691  0DD9  3020               	movlw	32
  2692  0DDA  024E               	subwf	___fltol@exp1,w
  2693  0DDB  1C03               	skipc
  2694  0DDC  2DDE               	goto	u2401
  2695  0DDD  2DDF               	goto	u2400
  2696  0DDE                     u2401:
  2697  0DDE  2DEB               	goto	l519
  2698  0DDF                     u2400:
  2699  0DDF  2D92               	goto	l1974
  2700  0DE0                     l2002:
  2701  0DE0  3001               	movlw	1
  2702  0DE1  00C8               	movwf	??___fltol
  2703  0DE2                     u2415:
  2704  0DE2  1003               	clrc
  2705  0DE3  0DC4               	rlf	___fltol@f1,f
  2706  0DE4  0DC5               	rlf	___fltol@f1+1,f
  2707  0DE5  0DC6               	rlf	___fltol@f1+2,f
  2708  0DE6  0DC7               	rlf	___fltol@f1+3,f
  2709  0DE7  0BC8               	decfsz	??___fltol,f
  2710  0DE8  2DE2               	goto	u2415
  2711  0DE9  3001               	movlw	1
  2712  0DEA  02CE               	subwf	___fltol@exp1,f
  2713  0DEB                     l519:
  2714  0DEB  084E               	movf	___fltol@exp1,w
  2715  0DEC  1D03               	btfss	3,2
  2716  0DED  2DEF               	goto	u2421
  2717  0DEE  2DF0               	goto	u2420
  2718  0DEF                     u2421:
  2719  0DEF  2DE0               	goto	l2002
  2720  0DF0                     u2420:
  2721  0DF0                     l2004:
  2722  0DF0  084D               	movf	___fltol@sign1,w
  2723  0DF1  1903               	btfsc	3,2
  2724  0DF2  2DF4               	goto	u2431
  2725  0DF3  2DF5               	goto	u2430
  2726  0DF4                     u2431:
  2727  0DF4  2E00               	goto	l522
  2728  0DF5                     u2430:
  2729  0DF5                     l2006:
  2730  0DF5  09C4               	comf	___fltol@f1,f
  2731  0DF6  09C5               	comf	___fltol@f1+1,f
  2732  0DF7  09C6               	comf	___fltol@f1+2,f
  2733  0DF8  09C7               	comf	___fltol@f1+3,f
  2734  0DF9  0AC4               	incf	___fltol@f1,f
  2735  0DFA  1903               	skipnz
  2736  0DFB  0AC5               	incf	___fltol@f1+1,f
  2737  0DFC  1903               	skipnz
  2738  0DFD  0AC6               	incf	___fltol@f1+2,f
  2739  0DFE  1903               	skipnz
  2740  0DFF  0AC7               	incf	___fltol@f1+3,f
  2741  0E00                     l522:
  2742  0E00                     l512:
  2743  0E00  0008               	return
  2744  0E01                     __end_of___fltol:
  2745                           
  2746                           	psect	text7
  2747  0B3F                     __ptext7:	
  2748 ;; *************** function ___flsub *****************
  2749 ;; Defined at:
  2750 ;;		line 242 in file "C:\Program Files\Microchip\xc8\v2.31\pic\sources\c90\common\sprcadd.c"
  2751 ;; Parameters:    Size  Location     Type
  2752 ;;  a               4   16[BANK0 ] long 
  2753 ;;  b               4   20[BANK0 ] long 
  2754 ;; Auto vars:     Size  Location     Type
  2755 ;;		None
  2756 ;; Return value:  Size  Location     Type
  2757 ;;                  4   16[BANK0 ] long 
  2758 ;; Registers used:
  2759 ;;		wreg, status,2, status,0, btemp+1, pclath, cstack
  2760 ;; Tracked objects:
  2761 ;;		On entry : 0/0
  2762 ;;		On exit  : 0/0
  2763 ;;		Unchanged: 0/0
  2764 ;; Data sizes:     COMMON   BANK0   BANK1   BANK3   BANK2
  2765 ;;      Params:         0       8       0       0       0
  2766 ;;      Locals:         0       0       0       0       0
  2767 ;;      Temps:          0       0       0       0       0
  2768 ;;      Totals:         0       8       0       0       0
  2769 ;;Total ram usage:        8 bytes
  2770 ;; Hardware stack levels used:    1
  2771 ;; Hardware stack levels required when called:    2
  2772 ;; This function calls:
  2773 ;;		___fladd
  2774 ;; This function is called by:
  2775 ;;		_floToChar
  2776 ;; This function uses a non-reentrant model
  2777 ;;
  2778                           
  2779                           
  2780                           ;psect for function ___flsub
  2781  0B3F                     ___flsub:
  2782  0B3F                     l2692:	
  2783                           ;incstack = 0
  2784                           ; Regs used in ___flsub: [wreg+status,2+status,0+btemp+1+pclath+cstack]
  2785                           
  2786  0B3F  3080               	movlw	128
  2787  0B40  1283               	bcf	3,5	;RP0=0, select bank0
  2788  0B41  1303               	bcf	3,6	;RP1=0, select bank0
  2789  0B42  06B3               	xorwf	___flsub@a+3,f
  2790  0B43                     l2694:
  2791  0B43  0837               	movf	___flsub@b+3,w
  2792  0B44  00A3               	movwf	___fladd@b+3
  2793  0B45  0836               	movf	___flsub@b+2,w
  2794  0B46  00A2               	movwf	___fladd@b+2
  2795  0B47  0835               	movf	___flsub@b+1,w
  2796  0B48  00A1               	movwf	___fladd@b+1
  2797  0B49  0834               	movf	___flsub@b,w
  2798  0B4A  00A0               	movwf	___fladd@b
  2799  0B4B  0833               	movf	___flsub@a+3,w
  2800  0B4C  00A7               	movwf	___fladd@a+3
  2801  0B4D  0832               	movf	___flsub@a+2,w
  2802  0B4E  00A6               	movwf	___fladd@a+2
  2803  0B4F  0831               	movf	___flsub@a+1,w
  2804  0B50  00A5               	movwf	___fladd@a+1
  2805  0B51  0830               	movf	___flsub@a,w
  2806  0B52  00A4               	movwf	___fladd@a
  2807  0B53  120A  118A  2394  120A  158A  	fcall	___fladd
  2808  0B58  1283               	bcf	3,5	;RP0=0, select bank0
  2809  0B59  1303               	bcf	3,6	;RP1=0, select bank0
  2810  0B5A  0823               	movf	?___fladd+3,w
  2811  0B5B  00B3               	movwf	?___flsub+3
  2812  0B5C  0822               	movf	?___fladd+2,w
  2813  0B5D  00B2               	movwf	?___flsub+2
  2814  0B5E  0821               	movf	?___fladd+1,w
  2815  0B5F  00B1               	movwf	?___flsub+1
  2816  0B60  0820               	movf	?___fladd,w
  2817  0B61  00B0               	movwf	?___flsub
  2818  0B62                     l665:
  2819  0B62  0008               	return
  2820  0B63                     __end_of___flsub:
  2821                           
  2822                           	psect	text8
  2823  0394                     __ptext8:	
  2824 ;; *************** function ___fladd *****************
  2825 ;; Defined at:
  2826 ;;		line 10 in file "C:\Program Files\Microchip\xc8\v2.31\pic\sources\c90\common\sprcadd.c"
  2827 ;; Parameters:    Size  Location     Type
  2828 ;;  b               4    0[BANK0 ] long 
  2829 ;;  a               4    4[BANK0 ] long 
  2830 ;; Auto vars:     Size  Location     Type
  2831 ;;  grs             1    6[COMMON] unsigned char 
  2832 ;;  bexp            1    5[COMMON] unsigned char 
  2833 ;;  aexp            1    4[COMMON] unsigned char 
  2834 ;;  signs           1    3[COMMON] unsigned char 
  2835 ;; Return value:  Size  Location     Type
  2836 ;;                  4    0[BANK0 ] unsigned char 
  2837 ;; Registers used:
  2838 ;;		wreg, status,2, status,0, btemp+1
  2839 ;; Tracked objects:
  2840 ;;		On entry : 0/0
  2841 ;;		On exit  : 0/0
  2842 ;;		Unchanged: 0/0
  2843 ;; Data sizes:     COMMON   BANK0   BANK1   BANK3   BANK2
  2844 ;;      Params:         0       8       0       0       0
  2845 ;;      Locals:         4       0       0       0       0
  2846 ;;      Temps:          0       8       0       0       0
  2847 ;;      Totals:         4      16       0       0       0
  2848 ;;Total ram usage:       20 bytes
  2849 ;; Hardware stack levels used:    1
  2850 ;; Hardware stack levels required when called:    1
  2851 ;; This function calls:
  2852 ;;		Nothing
  2853 ;; This function is called by:
  2854 ;;		___flsub
  2855 ;; This function uses a non-reentrant model
  2856 ;;
  2857                           
  2858                           
  2859                           ;psect for function ___fladd
  2860  0394                     ___fladd:
  2861  0394                     l2468:	
  2862                           ;incstack = 0
  2863                           ; Regs used in ___fladd: [wreg+status,2+status,0+btemp+1]
  2864                           
  2865  0394  1283               	bcf	3,5	;RP0=0, select bank0
  2866  0395  1303               	bcf	3,6	;RP1=0, select bank0
  2867  0396  0823               	movf	___fladd@b+3,w
  2868  0397  3980               	andlw	128
  2869  0398  00A8               	movwf	??___fladd
  2870  0399  0828               	movf	??___fladd,w
  2871  039A  00F3               	movwf	___fladd@signs
  2872  039B                     l2470:
  2873  039B  0823               	movf	___fladd@b+3,w
  2874  039C  00A8               	movwf	??___fladd
  2875  039D  0728               	addwf	??___fladd,w
  2876  039E  00A9               	movwf	??___fladd+1
  2877  039F  0829               	movf	??___fladd+1,w
  2878  03A0  00F5               	movwf	___fladd@bexp
  2879  03A1                     l2472:
  2880  03A1  1FA2               	btfss	___fladd@b+2,7
  2881  03A2  2BA4               	goto	u3261
  2882  03A3  2BA5               	goto	u3260
  2883  03A4                     u3261:
  2884  03A4  2BA6               	goto	l2476
  2885  03A5                     u3260:
  2886  03A5                     l2474:
  2887  03A5  1475               	bsf	___fladd@bexp,0
  2888  03A6                     l2476:
  2889  03A6  0875               	movf	___fladd@bexp,w
  2890  03A7  1903               	btfsc	3,2
  2891  03A8  2BAA               	goto	u3271
  2892  03A9  2BAB               	goto	u3270
  2893  03AA                     u3271:
  2894  03AA  2BBB               	goto	l2486
  2895  03AB                     u3270:
  2896  03AB                     l2478:
  2897  03AB  0A75               	incf	___fladd@bexp,w
  2898  03AC  1D03               	btfss	3,2
  2899  03AD  2BAF               	goto	u3281
  2900  03AE  2BB0               	goto	u3280
  2901  03AF                     u3281:
  2902  03AF  2BB8               	goto	l2482
  2903  03B0                     u3280:
  2904  03B0                     l2480:
  2905  03B0  3000               	movlw	0
  2906  03B1  00A3               	movwf	___fladd@b+3
  2907  03B2  3000               	movlw	0
  2908  03B3  00A2               	movwf	___fladd@b+2
  2909  03B4  3000               	movlw	0
  2910  03B5  00A1               	movwf	___fladd@b+1
  2911  03B6  3000               	movlw	0
  2912  03B7  00A0               	movwf	___fladd@b
  2913  03B8                     l2482:
  2914  03B8  17A2               	bsf	___fladd@b+2,7
  2915  03B9                     l2484:
  2916  03B9  01A3               	clrf	___fladd@b+3
  2917  03BA  2BC3               	goto	l2488
  2918  03BB                     l2486:
  2919  03BB  3000               	movlw	0
  2920  03BC  00A3               	movwf	___fladd@b+3
  2921  03BD  3000               	movlw	0
  2922  03BE  00A2               	movwf	___fladd@b+2
  2923  03BF  3000               	movlw	0
  2924  03C0  00A1               	movwf	___fladd@b+1
  2925  03C1  3000               	movlw	0
  2926  03C2  00A0               	movwf	___fladd@b
  2927  03C3                     l2488:
  2928  03C3  0827               	movf	___fladd@a+3,w
  2929  03C4  3980               	andlw	128
  2930  03C5  00A8               	movwf	??___fladd
  2931  03C6  0828               	movf	??___fladd,w
  2932  03C7  00F4               	movwf	___fladd@aexp
  2933  03C8                     l2490:
  2934  03C8  0874               	movf	___fladd@aexp,w
  2935  03C9  0673               	xorwf	___fladd@signs,w
  2936  03CA  1903               	skipnz
  2937  03CB  2BCD               	goto	u3291
  2938  03CC  2BCE               	goto	u3290
  2939  03CD                     u3291:
  2940  03CD  2BCF               	goto	l2494
  2941  03CE                     u3290:
  2942  03CE                     l2492:
  2943  03CE  1773               	bsf	___fladd@signs,6
  2944  03CF                     l2494:
  2945  03CF  0827               	movf	___fladd@a+3,w
  2946  03D0  00A8               	movwf	??___fladd
  2947  03D1  0728               	addwf	??___fladd,w
  2948  03D2  00A9               	movwf	??___fladd+1
  2949  03D3  0829               	movf	??___fladd+1,w
  2950  03D4  00F4               	movwf	___fladd@aexp
  2951  03D5                     l2496:
  2952  03D5  1FA6               	btfss	___fladd@a+2,7
  2953  03D6  2BD8               	goto	u3301
  2954  03D7  2BD9               	goto	u3300
  2955  03D8                     u3301:
  2956  03D8  2BDA               	goto	l2500
  2957  03D9                     u3300:
  2958  03D9                     l2498:
  2959  03D9  1474               	bsf	___fladd@aexp,0
  2960  03DA                     l2500:
  2961  03DA  0874               	movf	___fladd@aexp,w
  2962  03DB  1903               	btfsc	3,2
  2963  03DC  2BDE               	goto	u3311
  2964  03DD  2BDF               	goto	u3310
  2965  03DE                     u3311:
  2966  03DE  2BEF               	goto	l2510
  2967  03DF                     u3310:
  2968  03DF                     l2502:
  2969  03DF  0A74               	incf	___fladd@aexp,w
  2970  03E0  1D03               	btfss	3,2
  2971  03E1  2BE3               	goto	u3321
  2972  03E2  2BE4               	goto	u3320
  2973  03E3                     u3321:
  2974  03E3  2BEC               	goto	l2506
  2975  03E4                     u3320:
  2976  03E4                     l2504:
  2977  03E4  3000               	movlw	0
  2978  03E5  00A7               	movwf	___fladd@a+3
  2979  03E6  3000               	movlw	0
  2980  03E7  00A6               	movwf	___fladd@a+2
  2981  03E8  3000               	movlw	0
  2982  03E9  00A5               	movwf	___fladd@a+1
  2983  03EA  3000               	movlw	0
  2984  03EB  00A4               	movwf	___fladd@a
  2985  03EC                     l2506:
  2986  03EC  17A6               	bsf	___fladd@a+2,7
  2987  03ED                     l2508:
  2988  03ED  01A7               	clrf	___fladd@a+3
  2989  03EE  2BF7               	goto	l619
  2990  03EF                     l2510:
  2991  03EF  3000               	movlw	0
  2992  03F0  00A7               	movwf	___fladd@a+3
  2993  03F1  3000               	movlw	0
  2994  03F2  00A6               	movwf	___fladd@a+2
  2995  03F3  3000               	movlw	0
  2996  03F4  00A5               	movwf	___fladd@a+1
  2997  03F5  3000               	movlw	0
  2998  03F6  00A4               	movwf	___fladd@a
  2999  03F7                     l619:
  3000  03F7  0875               	movf	___fladd@bexp,w
  3001  03F8  0274               	subwf	___fladd@aexp,w
  3002  03F9  1803               	skipnc
  3003  03FA  2BFC               	goto	u3331
  3004  03FB  2BFD               	goto	u3330
  3005  03FC                     u3331:
  3006  03FC  2C41               	goto	l2546
  3007  03FD                     u3330:
  3008  03FD                     l2512:
  3009  03FD  1F73               	btfss	___fladd@signs,6
  3010  03FE  2C00               	goto	u3341
  3011  03FF  2C01               	goto	u3340
  3012  0400                     u3341:
  3013  0400  2C05               	goto	l2516
  3014  0401                     u3340:
  3015  0401                     l2514:
  3016  0401  3080               	movlw	128
  3017  0402  00A8               	movwf	??___fladd
  3018  0403  0828               	movf	??___fladd,w
  3019  0404  06F3               	xorwf	___fladd@signs,f
  3020  0405                     l2516:
  3021  0405  0875               	movf	___fladd@bexp,w
  3022  0406  00A8               	movwf	??___fladd
  3023  0407  0828               	movf	??___fladd,w
  3024  0408  00F6               	movwf	___fladd@grs
  3025  0409                     l2518:
  3026  0409  0874               	movf	___fladd@aexp,w
  3027  040A  00A8               	movwf	??___fladd
  3028  040B  0828               	movf	??___fladd,w
  3029  040C  00F5               	movwf	___fladd@bexp
  3030  040D                     l2520:
  3031  040D  0876               	movf	___fladd@grs,w
  3032  040E  00A8               	movwf	??___fladd
  3033  040F  0828               	movf	??___fladd,w
  3034  0410  00F4               	movwf	___fladd@aexp
  3035  0411                     l2522:
  3036  0411  0820               	movf	___fladd@b,w
  3037  0412  00A8               	movwf	??___fladd
  3038  0413  0828               	movf	??___fladd,w
  3039  0414  00F6               	movwf	___fladd@grs
  3040  0415                     l2524:
  3041  0415  0824               	movf	___fladd@a,w
  3042  0416  00A8               	movwf	??___fladd
  3043  0417  0828               	movf	??___fladd,w
  3044  0418  00A0               	movwf	___fladd@b
  3045  0419                     l2526:
  3046  0419  0876               	movf	___fladd@grs,w
  3047  041A  00A8               	movwf	??___fladd
  3048  041B  0828               	movf	??___fladd,w
  3049  041C  00A4               	movwf	___fladd@a
  3050  041D                     l2528:
  3051  041D  0821               	movf	___fladd@b+1,w
  3052  041E  00A8               	movwf	??___fladd
  3053  041F  0828               	movf	??___fladd,w
  3054  0420  00F6               	movwf	___fladd@grs
  3055  0421                     l2530:
  3056  0421  0825               	movf	___fladd@a+1,w
  3057  0422  00A8               	movwf	??___fladd
  3058  0423  0828               	movf	??___fladd,w
  3059  0424  00A1               	movwf	___fladd@b+1
  3060  0425                     l2532:
  3061  0425  0876               	movf	___fladd@grs,w
  3062  0426  00A8               	movwf	??___fladd
  3063  0427  0828               	movf	??___fladd,w
  3064  0428  00A5               	movwf	___fladd@a+1
  3065  0429                     l2534:
  3066  0429  0822               	movf	___fladd@b+2,w
  3067  042A  00A8               	movwf	??___fladd
  3068  042B  0828               	movf	??___fladd,w
  3069  042C  00F6               	movwf	___fladd@grs
  3070  042D                     l2536:
  3071  042D  0826               	movf	___fladd@a+2,w
  3072  042E  00A8               	movwf	??___fladd
  3073  042F  0828               	movf	??___fladd,w
  3074  0430  00A2               	movwf	___fladd@b+2
  3075  0431                     l2538:
  3076  0431  0876               	movf	___fladd@grs,w
  3077  0432  00A8               	movwf	??___fladd
  3078  0433  0828               	movf	??___fladd,w
  3079  0434  00A6               	movwf	___fladd@a+2
  3080  0435                     l2540:
  3081  0435  0823               	movf	___fladd@b+3,w
  3082  0436  00A8               	movwf	??___fladd
  3083  0437  0828               	movf	??___fladd,w
  3084  0438  00F6               	movwf	___fladd@grs
  3085  0439                     l2542:
  3086  0439  0827               	movf	___fladd@a+3,w
  3087  043A  00A8               	movwf	??___fladd
  3088  043B  0828               	movf	??___fladd,w
  3089  043C  00A3               	movwf	___fladd@b+3
  3090  043D                     l2544:
  3091  043D  0876               	movf	___fladd@grs,w
  3092  043E  00A8               	movwf	??___fladd
  3093  043F  0828               	movf	??___fladd,w
  3094  0440  00A7               	movwf	___fladd@a+3
  3095  0441                     l2546:
  3096  0441  01F6               	clrf	___fladd@grs
  3097  0442                     l2548:
  3098  0442  0874               	movf	___fladd@aexp,w
  3099  0443  00A8               	movwf	??___fladd
  3100  0444  01A9               	clrf	??___fladd+1
  3101  0445  0829               	movf	??___fladd+1,w
  3102  0446  00AB               	movwf	??___fladd+3
  3103  0447  0875               	movf	___fladd@bexp,w
  3104  0448  0228               	subwf	??___fladd,w
  3105  0449  00AA               	movwf	??___fladd+2
  3106  044A  1C03               	skipc
  3107  044B  03AB               	decf	??___fladd+3,f
  3108  044C  082B               	movf	??___fladd+3,w
  3109  044D  3A80               	xorlw	128
  3110  044E  00FF               	movwf	btemp+1
  3111  044F  3080               	movlw	128
  3112  0450  027F               	subwf	btemp+1,w
  3113  0451  1D03               	skipz
  3114  0452  2C55               	goto	u3355
  3115  0453  301A               	movlw	26
  3116  0454  022A               	subwf	??___fladd+2,w
  3117  0455                     u3355:
  3118  0455  1C03               	skipc
  3119  0456  2C58               	goto	u3351
  3120  0457  2C59               	goto	u3350
  3121  0458                     u3351:
  3122  0458  2C9A               	goto	l2564
  3123  0459                     u3350:
  3124  0459                     l2550:
  3125  0459  1283               	bcf	3,5	;RP0=0, select bank0
  3126  045A  1303               	bcf	3,6	;RP1=0, select bank0
  3127  045B  0823               	movf	___fladd@b+3,w
  3128  045C  0422               	iorwf	___fladd@b+2,w
  3129  045D  0421               	iorwf	___fladd@b+1,w
  3130  045E  0420               	iorwf	___fladd@b,w
  3131  045F  1D03               	skipz
  3132  0460  2C62               	goto	u3361
  3133  0461  2C64               	goto	u3360
  3134  0462                     u3361:
  3135  0462  3001               	movlw	1
  3136  0463  2C65               	goto	u3370
  3137  0464                     u3360:
  3138  0464  3000               	movlw	0
  3139  0465                     u3370:
  3140  0465  00A8               	movwf	??___fladd
  3141  0466  0828               	movf	??___fladd,w
  3142  0467  00F6               	movwf	___fladd@grs
  3143  0468  3000               	movlw	0
  3144  0469  00A3               	movwf	___fladd@b+3
  3145  046A  3000               	movlw	0
  3146  046B  00A2               	movwf	___fladd@b+2
  3147  046C  3000               	movlw	0
  3148  046D  00A1               	movwf	___fladd@b+1
  3149  046E  3000               	movlw	0
  3150  046F  00A0               	movwf	___fladd@b
  3151  0470  0874               	movf	___fladd@aexp,w
  3152  0471  00A8               	movwf	??___fladd
  3153  0472  0828               	movf	??___fladd,w
  3154  0473  00F5               	movwf	___fladd@bexp
  3155  0474  2CA0               	goto	l623
  3156  0475                     l625:
  3157  0475  1C76               	btfss	___fladd@grs,0
  3158  0476  2C78               	goto	u3381
  3159  0477  2C79               	goto	u3380
  3160  0478                     u3381:
  3161  0478  2C84               	goto	l2554
  3162  0479                     u3380:
  3163  0479                     l2552:
  3164  0479  0876               	movf	___fladd@grs,w
  3165  047A  1283               	bcf	3,5	;RP0=0, select bank0
  3166  047B  1303               	bcf	3,6	;RP1=0, select bank0
  3167  047C  00A8               	movwf	??___fladd
  3168  047D  1003               	clrc
  3169  047E  0C28               	rrf	??___fladd,w
  3170  047F  3801               	iorlw	1
  3171  0480  00A9               	movwf	??___fladd+1
  3172  0481  0829               	movf	??___fladd+1,w
  3173  0482  00F6               	movwf	___fladd@grs
  3174  0483  2C86               	goto	l2556
  3175  0484                     l2554:
  3176  0484  1003               	clrc
  3177  0485  0CF6               	rrf	___fladd@grs,f
  3178  0486                     l2556:
  3179  0486  1283               	bcf	3,5	;RP0=0, select bank0
  3180  0487  1303               	bcf	3,6	;RP1=0, select bank0
  3181  0488  1C20               	btfss	___fladd@b,0
  3182  0489  2C8B               	goto	u3391
  3183  048A  2C8C               	goto	u3390
  3184  048B                     u3391:
  3185  048B  2C8D               	goto	l2560
  3186  048C                     u3390:
  3187  048C                     l2558:
  3188  048C  17F6               	bsf	___fladd@grs,7
  3189  048D                     l2560:
  3190  048D  3001               	movlw	1
  3191  048E  00A8               	movwf	??___fladd
  3192  048F                     u3405:
  3193  048F  0D23               	rlf	___fladd@b+3,w
  3194  0490  0CA3               	rrf	___fladd@b+3,f
  3195  0491  0CA2               	rrf	___fladd@b+2,f
  3196  0492  0CA1               	rrf	___fladd@b+1,f
  3197  0493  0CA0               	rrf	___fladd@b,f
  3198  0494  0BA8               	decfsz	??___fladd& (0+127),f
  3199  0495  2C8F               	goto	u3405
  3200  0496                     l2562:
  3201  0496  3001               	movlw	1
  3202  0497  00A8               	movwf	??___fladd
  3203  0498  0828               	movf	??___fladd,w
  3204  0499  07F5               	addwf	___fladd@bexp,f
  3205  049A                     l2564:
  3206  049A  0874               	movf	___fladd@aexp,w
  3207  049B  0275               	subwf	___fladd@bexp,w
  3208  049C  1C03               	skipc
  3209  049D  2C9F               	goto	u3411
  3210  049E  2CA0               	goto	u3410
  3211  049F                     u3411:
  3212  049F  2C75               	goto	l625
  3213  04A0                     u3410:
  3214  04A0                     l623:
  3215  04A0  1B73               	btfsc	___fladd@signs,6
  3216  04A1  2CA3               	goto	u3421
  3217  04A2  2CA4               	goto	u3420
  3218  04A3                     u3421:
  3219  04A3  2CF3               	goto	l2590
  3220  04A4                     u3420:
  3221  04A4                     l2566:
  3222  04A4  0875               	movf	___fladd@bexp,w
  3223  04A5  1D03               	btfss	3,2
  3224  04A6  2CA8               	goto	u3431
  3225  04A7  2CA9               	goto	u3430
  3226  04A8                     u3431:
  3227  04A8  2CB4               	goto	l2572
  3228  04A9                     u3430:
  3229  04A9                     l2568:
  3230  04A9  3000               	movlw	0
  3231  04AA  1283               	bcf	3,5	;RP0=0, select bank0
  3232  04AB  1303               	bcf	3,6	;RP1=0, select bank0
  3233  04AC  00A3               	movwf	?___fladd+3
  3234  04AD  3000               	movlw	0
  3235  04AE  00A2               	movwf	?___fladd+2
  3236  04AF  3000               	movlw	0
  3237  04B0  00A1               	movwf	?___fladd+1
  3238  04B1  3000               	movlw	0
  3239  04B2  00A0               	movwf	?___fladd
  3240  04B3  2E23               	goto	l632
  3241  04B4                     l2572:
  3242  04B4  1283               	bcf	3,5	;RP0=0, select bank0
  3243  04B5  1303               	bcf	3,6	;RP1=0, select bank0
  3244  04B6  0824               	movf	___fladd@a,w
  3245  04B7  07A0               	addwf	___fladd@b,f
  3246  04B8  0825               	movf	___fladd@a+1,w
  3247  04B9  1103               	clrz
  3248  04BA  1803               	skipnc
  3249  04BB  3E01               	addlw	1
  3250  04BC  1903               	skipnz
  3251  04BD  2CBF               	goto	u3441
  3252  04BE  07A1               	addwf	___fladd@b+1,f
  3253  04BF                     u3441:
  3254  04BF  0826               	movf	___fladd@a+2,w
  3255  04C0  1103               	clrz
  3256  04C1  1803               	skipnc
  3257  04C2  3E01               	addlw	1
  3258  04C3  1903               	skipnz
  3259  04C4  2CC6               	goto	u3442
  3260  04C5  07A2               	addwf	___fladd@b+2,f
  3261  04C6                     u3442:
  3262  04C6  0827               	movf	___fladd@a+3,w
  3263  04C7  1103               	clrz
  3264  04C8  1803               	skipnc
  3265  04C9  3E01               	addlw	1
  3266  04CA  1903               	skipnz
  3267  04CB  2CCD               	goto	u3443
  3268  04CC  07A3               	addwf	___fladd@b+3,f
  3269  04CD                     u3443:
  3270  04CD                     l2574:
  3271  04CD  1C23               	btfss	___fladd@b+3,0
  3272  04CE  2CD0               	goto	u3451
  3273  04CF  2CD1               	goto	u3450
  3274  04D0                     u3451:
  3275  04D0  2DA9               	goto	l2624
  3276  04D1                     u3450:
  3277  04D1                     l2576:
  3278  04D1  1C76               	btfss	___fladd@grs,0
  3279  04D2  2CD4               	goto	u3461
  3280  04D3  2CD5               	goto	u3460
  3281  04D4                     u3461:
  3282  04D4  2CDE               	goto	l2580
  3283  04D5                     u3460:
  3284  04D5                     l2578:
  3285  04D5  0876               	movf	___fladd@grs,w
  3286  04D6  00A8               	movwf	??___fladd
  3287  04D7  1003               	clrc
  3288  04D8  0C28               	rrf	??___fladd,w
  3289  04D9  3801               	iorlw	1
  3290  04DA  00A9               	movwf	??___fladd+1
  3291  04DB  0829               	movf	??___fladd+1,w
  3292  04DC  00F6               	movwf	___fladd@grs
  3293  04DD  2CE0               	goto	l2582
  3294  04DE                     l2580:
  3295  04DE  1003               	clrc
  3296  04DF  0CF6               	rrf	___fladd@grs,f
  3297  04E0                     l2582:
  3298  04E0  1C20               	btfss	___fladd@b,0
  3299  04E1  2CE3               	goto	u3471
  3300  04E2  2CE4               	goto	u3470
  3301  04E3                     u3471:
  3302  04E3  2CE5               	goto	l2586
  3303  04E4                     u3470:
  3304  04E4                     l2584:
  3305  04E4  17F6               	bsf	___fladd@grs,7
  3306  04E5                     l2586:
  3307  04E5  3001               	movlw	1
  3308  04E6  00A8               	movwf	??___fladd
  3309  04E7                     u3485:
  3310  04E7  0D23               	rlf	___fladd@b+3,w
  3311  04E8  0CA3               	rrf	___fladd@b+3,f
  3312  04E9  0CA2               	rrf	___fladd@b+2,f
  3313  04EA  0CA1               	rrf	___fladd@b+1,f
  3314  04EB  0CA0               	rrf	___fladd@b,f
  3315  04EC  0BA8               	decfsz	??___fladd& (0+127),f
  3316  04ED  2CE7               	goto	u3485
  3317  04EE                     l2588:
  3318  04EE  3001               	movlw	1
  3319  04EF  00A8               	movwf	??___fladd
  3320  04F0  0828               	movf	??___fladd,w
  3321  04F1  07F5               	addwf	___fladd@bexp,f
  3322  04F2  2DA9               	goto	l2624
  3323  04F3                     l2590:
  3324  04F3  1283               	bcf	3,5	;RP0=0, select bank0
  3325  04F4  1303               	bcf	3,6	;RP1=0, select bank0
  3326  04F5  0823               	movf	___fladd@b+3,w
  3327  04F6  3A80               	xorlw	128
  3328  04F7  00FF               	movwf	btemp+1
  3329  04F8  0827               	movf	___fladd@a+3,w
  3330  04F9  3A80               	xorlw	128
  3331  04FA  027F               	subwf	btemp+1,w
  3332  04FB  1D03               	skipz
  3333  04FC  2D07               	goto	u3493
  3334  04FD  0826               	movf	___fladd@a+2,w
  3335  04FE  0222               	subwf	___fladd@b+2,w
  3336  04FF  1D03               	skipz
  3337  0500  2D07               	goto	u3493
  3338  0501  0825               	movf	___fladd@a+1,w
  3339  0502  0221               	subwf	___fladd@b+1,w
  3340  0503  1D03               	skipz
  3341  0504  2D07               	goto	u3493
  3342  0505  0824               	movf	___fladd@a,w
  3343  0506  0220               	subwf	___fladd@b,w
  3344  0507                     u3493:
  3345  0507  1803               	skipnc
  3346  0508  2D0A               	goto	u3491
  3347  0509  2D0B               	goto	u3490
  3348  050A                     u3491:
  3349  050A  2D63               	goto	l2600
  3350  050B                     u3490:
  3351  050B                     l2592:
  3352  050B  30FF               	movlw	255
  3353  050C  00A8               	movwf	??___fladd
  3354  050D  30FF               	movlw	255
  3355  050E  00A9               	movwf	??___fladd+1
  3356  050F  30FF               	movlw	255
  3357  0510  00AA               	movwf	??___fladd+2
  3358  0511  30FF               	movlw	255
  3359  0512  00AB               	movwf	??___fladd+3
  3360  0513  0824               	movf	___fladd@a,w
  3361  0514  00AC               	movwf	??___fladd+4
  3362  0515  0825               	movf	___fladd@a+1,w
  3363  0516  00AD               	movwf	??___fladd+5
  3364  0517  0826               	movf	___fladd@a+2,w
  3365  0518  00AE               	movwf	??___fladd+6
  3366  0519  0827               	movf	___fladd@a+3,w
  3367  051A  00AF               	movwf	??___fladd+7
  3368  051B  0820               	movf	___fladd@b,w
  3369  051C  02AC               	subwf	??___fladd+4,f
  3370  051D  0821               	movf	___fladd@b+1,w
  3371  051E  1C03               	skipc
  3372  051F  0F21               	incfsz	___fladd@b+1,w
  3373  0520  2D22               	goto	u3501
  3374  0521  2D23               	goto	u3502
  3375  0522                     u3501:
  3376  0522  02AD               	subwf	??___fladd+5,f
  3377  0523                     u3502:
  3378  0523  0822               	movf	___fladd@b+2,w
  3379  0524  1C03               	skipc
  3380  0525  0F22               	incfsz	___fladd@b+2,w
  3381  0526  2D28               	goto	u3503
  3382  0527  2D29               	goto	u3504
  3383  0528                     u3503:
  3384  0528  02AE               	subwf	??___fladd+6,f
  3385  0529                     u3504:
  3386  0529  0823               	movf	___fladd@b+3,w
  3387  052A  1C03               	skipc
  3388  052B  0F23               	incfsz	___fladd@b+3,w
  3389  052C  2D2E               	goto	u3505
  3390  052D  2D2F               	goto	u3506
  3391  052E                     u3505:
  3392  052E  02AF               	subwf	??___fladd+7,f
  3393  052F                     u3506:
  3394  052F  082C               	movf	??___fladd+4,w
  3395  0530  07A8               	addwf	??___fladd,f
  3396  0531  082D               	movf	??___fladd+5,w
  3397  0532  1803               	skipnc
  3398  0533  0F2D               	incfsz	??___fladd+5,w
  3399  0534  2D36               	goto	u3510
  3400  0535  2D37               	goto	u3511
  3401  0536                     u3510:
  3402  0536  07A9               	addwf	??___fladd+1,f
  3403  0537                     u3511:
  3404  0537  082E               	movf	??___fladd+6,w
  3405  0538  1803               	skipnc
  3406  0539  0F2E               	incfsz	??___fladd+6,w
  3407  053A  2D3C               	goto	u3512
  3408  053B  2D3D               	goto	u3513
  3409  053C                     u3512:
  3410  053C  07AA               	addwf	??___fladd+2,f
  3411  053D                     u3513:
  3412  053D  082F               	movf	??___fladd+7,w
  3413  053E  1803               	skipnc
  3414  053F  0A2F               	incf	??___fladd+7,w
  3415  0540  07AB               	addwf	??___fladd+3,f
  3416  0541  082B               	movf	??___fladd+3,w
  3417  0542  00A3               	movwf	___fladd@b+3
  3418  0543  082A               	movf	??___fladd+2,w
  3419  0544  00A2               	movwf	___fladd@b+2
  3420  0545  0829               	movf	??___fladd+1,w
  3421  0546  00A1               	movwf	___fladd@b+1
  3422  0547  0828               	movf	??___fladd,w
  3423  0548  00A0               	movwf	___fladd@b
  3424  0549                     l2594:
  3425  0549  3080               	movlw	128
  3426  054A  00A8               	movwf	??___fladd
  3427  054B  0828               	movf	??___fladd,w
  3428  054C  06F3               	xorwf	___fladd@signs,f
  3429  054D  09F6               	comf	___fladd@grs,f
  3430  054E  0AF6               	incf	___fladd@grs,f
  3431  054F                     l2596:
  3432  054F  0876               	movf	___fladd@grs,w
  3433  0550  1D03               	btfss	3,2
  3434  0551  2D53               	goto	u3521
  3435  0552  2D54               	goto	u3520
  3436  0553                     u3521:
  3437  0553  2D71               	goto	l640
  3438  0554                     u3520:
  3439  0554                     l2598:
  3440  0554  3001               	movlw	1
  3441  0555  07A0               	addwf	___fladd@b,f
  3442  0556  3000               	movlw	0
  3443  0557  1803               	skipnc
  3444  0558  3001               	movlw	1
  3445  0559  07A1               	addwf	___fladd@b+1,f
  3446  055A  3000               	movlw	0
  3447  055B  1803               	skipnc
  3448  055C  3001               	movlw	1
  3449  055D  07A2               	addwf	___fladd@b+2,f
  3450  055E  3000               	movlw	0
  3451  055F  1803               	skipnc
  3452  0560  3001               	movlw	1
  3453  0561  07A3               	addwf	___fladd@b+3,f
  3454  0562  2D71               	goto	l640
  3455  0563                     l2600:
  3456  0563  0824               	movf	___fladd@a,w
  3457  0564  02A0               	subwf	___fladd@b,f
  3458  0565  0825               	movf	___fladd@a+1,w
  3459  0566  1C03               	skipc
  3460  0567  0F25               	incfsz	___fladd@a+1,w
  3461  0568  02A1               	subwf	___fladd@b+1,f
  3462  0569  0826               	movf	___fladd@a+2,w
  3463  056A  1C03               	skipc
  3464  056B  0F26               	incfsz	___fladd@a+2,w
  3465  056C  02A2               	subwf	___fladd@b+2,f
  3466  056D  0827               	movf	___fladd@a+3,w
  3467  056E  1C03               	skipc
  3468  056F  0F27               	incfsz	___fladd@a+3,w
  3469  0570  02A3               	subwf	___fladd@b+3,f
  3470  0571                     l640:
  3471  0571  0823               	movf	___fladd@b+3,w
  3472  0572  0422               	iorwf	___fladd@b+2,w
  3473  0573  0421               	iorwf	___fladd@b+1,w
  3474  0574  0420               	iorwf	___fladd@b,w
  3475  0575  1D03               	skipz
  3476  0576  2D78               	goto	u3531
  3477  0577  2D79               	goto	u3530
  3478  0578                     u3531:
  3479  0578  2DA5               	goto	l2622
  3480  0579                     u3530:
  3481  0579                     l2602:
  3482  0579  0876               	movf	___fladd@grs,w
  3483  057A  1D03               	btfss	3,2
  3484  057B  2D7D               	goto	u3541
  3485  057C  2D7E               	goto	u3540
  3486  057D                     u3541:
  3487  057D  2DA5               	goto	l2622
  3488  057E                     u3540:
  3489  057E                     l2604:
  3490  057E  3000               	movlw	0
  3491  057F  00A3               	movwf	?___fladd+3
  3492  0580  3000               	movlw	0
  3493  0581  00A2               	movwf	?___fladd+2
  3494  0582  3000               	movlw	0
  3495  0583  00A1               	movwf	?___fladd+1
  3496  0584  3000               	movlw	0
  3497  0585  00A0               	movwf	?___fladd
  3498  0586  2E23               	goto	l632
  3499  0587                     l2608:
  3500  0587  3001               	movlw	1
  3501  0588  00A8               	movwf	??___fladd
  3502  0589                     u3555:
  3503  0589  1003               	clrc
  3504  058A  0DA0               	rlf	___fladd@b,f
  3505  058B  0DA1               	rlf	___fladd@b+1,f
  3506  058C  0DA2               	rlf	___fladd@b+2,f
  3507  058D  0DA3               	rlf	___fladd@b+3,f
  3508  058E  0BA8               	decfsz	??___fladd,f
  3509  058F  2D89               	goto	u3555
  3510  0590                     l2610:
  3511  0590  1FF6               	btfss	___fladd@grs,7
  3512  0591  2D93               	goto	u3561
  3513  0592  2D94               	goto	u3560
  3514  0593                     u3561:
  3515  0593  2D95               	goto	l644
  3516  0594                     u3560:
  3517  0594                     l2612:
  3518  0594  1420               	bsf	___fladd@b,0
  3519  0595                     l644:
  3520  0595  1C76               	btfss	___fladd@grs,0
  3521  0596  2D98               	goto	u3571
  3522  0597  2D99               	goto	u3570
  3523  0598                     u3571:
  3524  0598  2D9C               	goto	l2616
  3525  0599                     u3570:
  3526  0599                     l2614:
  3527  0599  1403               	setc
  3528  059A  0DF6               	rlf	___fladd@grs,f
  3529  059B  2D9E               	goto	l2618
  3530  059C                     l2616:
  3531  059C  1003               	clrc
  3532  059D  0DF6               	rlf	___fladd@grs,f
  3533  059E                     l2618:
  3534  059E  0875               	movf	___fladd@bexp,w
  3535  059F  1903               	btfsc	3,2
  3536  05A0  2DA2               	goto	u3581
  3537  05A1  2DA3               	goto	u3580
  3538  05A2                     u3581:
  3539  05A2  2DA5               	goto	l2622
  3540  05A3                     u3580:
  3541  05A3                     l2620:
  3542  05A3  3001               	movlw	1
  3543  05A4  02F5               	subwf	___fladd@bexp,f
  3544  05A5                     l2622:
  3545  05A5  1FA2               	btfss	___fladd@b+2,7
  3546  05A6  2DA8               	goto	u3591
  3547  05A7  2DA9               	goto	u3590
  3548  05A8                     u3591:
  3549  05A8  2D87               	goto	l2608
  3550  05A9                     u3590:
  3551  05A9                     l2624:
  3552  05A9  01F4               	clrf	___fladd@aexp
  3553  05AA                     l2626:
  3554  05AA  1FF6               	btfss	___fladd@grs,7
  3555  05AB  2DAD               	goto	u3601
  3556  05AC  2DAE               	goto	u3600
  3557  05AD                     u3601:
  3558  05AD  2DBC               	goto	l2634
  3559  05AE                     u3600:
  3560  05AE                     l2628:
  3561  05AE  0876               	movf	___fladd@grs,w
  3562  05AF  397F               	andlw	127
  3563  05B0  1903               	btfsc	3,2
  3564  05B1  2DB3               	goto	u3611
  3565  05B2  2DB4               	goto	u3610
  3566  05B3                     u3611:
  3567  05B3  2DB7               	goto	l650
  3568  05B4                     u3610:
  3569  05B4                     l2630:
  3570  05B4  01F4               	clrf	___fladd@aexp
  3571  05B5  0AF4               	incf	___fladd@aexp,f
  3572  05B6  2DBC               	goto	l2634
  3573  05B7                     l650:
  3574  05B7  1C20               	btfss	___fladd@b,0
  3575  05B8  2DBA               	goto	u3621
  3576  05B9  2DBB               	goto	u3620
  3577  05BA                     u3621:
  3578  05BA  2DBC               	goto	l2634
  3579  05BB                     u3620:
  3580  05BB  2DB4               	goto	l2630
  3581  05BC                     l2634:
  3582  05BC  0874               	movf	___fladd@aexp,w
  3583  05BD  1903               	btfsc	3,2
  3584  05BE  2DC0               	goto	u3631
  3585  05BF  2DC1               	goto	u3630
  3586  05C0                     u3631:
  3587  05C0  2DF5               	goto	l653
  3588  05C1                     u3630:
  3589  05C1                     l2636:
  3590  05C1  3001               	movlw	1
  3591  05C2  07A0               	addwf	___fladd@b,f
  3592  05C3  3000               	movlw	0
  3593  05C4  1803               	skipnc
  3594  05C5  3001               	movlw	1
  3595  05C6  07A1               	addwf	___fladd@b+1,f
  3596  05C7  3000               	movlw	0
  3597  05C8  1803               	skipnc
  3598  05C9  3001               	movlw	1
  3599  05CA  07A2               	addwf	___fladd@b+2,f
  3600  05CB  3000               	movlw	0
  3601  05CC  1803               	skipnc
  3602  05CD  3001               	movlw	1
  3603  05CE  07A3               	addwf	___fladd@b+3,f
  3604  05CF                     l2638:
  3605  05CF  1C23               	btfss	___fladd@b+3,0
  3606  05D0  2DD2               	goto	u3641
  3607  05D1  2DD3               	goto	u3640
  3608  05D2                     u3641:
  3609  05D2  2DF5               	goto	l653
  3610  05D3                     u3640:
  3611  05D3                     l2640:
  3612  05D3  0820               	movf	___fladd@b,w
  3613  05D4  00A8               	movwf	??___fladd
  3614  05D5  0821               	movf	___fladd@b+1,w
  3615  05D6  00A9               	movwf	??___fladd+1
  3616  05D7  0822               	movf	___fladd@b+2,w
  3617  05D8  00AA               	movwf	??___fladd+2
  3618  05D9  0823               	movf	___fladd@b+3,w
  3619  05DA  00AB               	movwf	??___fladd+3
  3620  05DB  3001               	movlw	1
  3621  05DC  00AC               	movwf	??___fladd+4
  3622  05DD                     u3655:
  3623  05DD  0D2B               	rlf	??___fladd+3,w
  3624  05DE  0CAB               	rrf	??___fladd+3,f
  3625  05DF  0CAA               	rrf	??___fladd+2,f
  3626  05E0  0CA9               	rrf	??___fladd+1,f
  3627  05E1  0CA8               	rrf	??___fladd,f
  3628  05E2                     u3650:
  3629  05E2  0BAC               	decfsz	??___fladd+4,f
  3630  05E3  2DDD               	goto	u3655
  3631  05E4  082B               	movf	??___fladd+3,w
  3632  05E5  00A3               	movwf	___fladd@b+3
  3633  05E6  082A               	movf	??___fladd+2,w
  3634  05E7  00A2               	movwf	___fladd@b+2
  3635  05E8  0829               	movf	??___fladd+1,w
  3636  05E9  00A1               	movwf	___fladd@b+1
  3637  05EA  0828               	movf	??___fladd,w
  3638  05EB  00A0               	movwf	___fladd@b
  3639  05EC  0A75               	incf	___fladd@bexp,w
  3640  05ED  1903               	btfsc	3,2
  3641  05EE  2DF0               	goto	u3661
  3642  05EF  2DF1               	goto	u3660
  3643  05F0                     u3661:
  3644  05F0  2DF5               	goto	l653
  3645  05F1                     u3660:
  3646  05F1                     l2642:
  3647  05F1  3001               	movlw	1
  3648  05F2  00A8               	movwf	??___fladd
  3649  05F3  0828               	movf	??___fladd,w
  3650  05F4  07F5               	addwf	___fladd@bexp,f
  3651  05F5                     l653:
  3652  05F5  0A75               	incf	___fladd@bexp,w
  3653  05F6  1903               	btfsc	3,2
  3654  05F7  2DF9               	goto	u3671
  3655  05F8  2DFA               	goto	u3670
  3656  05F9                     u3671:
  3657  05F9  2DFF               	goto	l2646
  3658  05FA                     u3670:
  3659  05FA                     l2644:
  3660  05FA  0875               	movf	___fladd@bexp,w
  3661  05FB  1D03               	btfss	3,2
  3662  05FC  2DFE               	goto	u3681
  3663  05FD  2DFF               	goto	u3680
  3664  05FE                     u3681:
  3665  05FE  2E0D               	goto	l2652
  3666  05FF                     u3680:
  3667  05FF                     l2646:
  3668  05FF  3000               	movlw	0
  3669  0600  00A3               	movwf	___fladd@b+3
  3670  0601  3000               	movlw	0
  3671  0602  00A2               	movwf	___fladd@b+2
  3672  0603  3000               	movlw	0
  3673  0604  00A1               	movwf	___fladd@b+1
  3674  0605  3000               	movlw	0
  3675  0606  00A0               	movwf	___fladd@b
  3676  0607                     l2648:
  3677  0607  0875               	movf	___fladd@bexp,w
  3678  0608  1D03               	btfss	3,2
  3679  0609  2E0B               	goto	u3691
  3680  060A  2E0C               	goto	u3690
  3681  060B                     u3691:
  3682  060B  2E0D               	goto	l2652
  3683  060C                     u3690:
  3684  060C                     l2650:
  3685  060C  01F3               	clrf	___fladd@signs
  3686  060D                     l2652:
  3687  060D  1C75               	btfss	___fladd@bexp,0
  3688  060E  2E10               	goto	u3701
  3689  060F  2E11               	goto	u3700
  3690  0610                     u3701:
  3691  0610  2E13               	goto	l2656
  3692  0611                     u3700:
  3693  0611                     l2654:
  3694  0611  17A2               	bsf	___fladd@b+2,7
  3695  0612  2E17               	goto	l661
  3696  0613                     l2656:
  3697  0613  307F               	movlw	127
  3698  0614  00A8               	movwf	??___fladd
  3699  0615  0828               	movf	??___fladd,w
  3700  0616  05A2               	andwf	___fladd@b+2,f
  3701  0617                     l661:
  3702  0617  0875               	movf	___fladd@bexp,w
  3703  0618  00A8               	movwf	??___fladd
  3704  0619  1003               	clrc
  3705  061A  0C28               	rrf	??___fladd,w
  3706  061B  00A9               	movwf	??___fladd+1
  3707  061C  0829               	movf	??___fladd+1,w
  3708  061D  00A3               	movwf	___fladd@b+3
  3709  061E                     l2658:
  3710  061E  1FF3               	btfss	___fladd@signs,7
  3711  061F  2E21               	goto	u3711
  3712  0620  2E22               	goto	u3710
  3713  0621                     u3711:
  3714  0621  2E23               	goto	l662
  3715  0622                     u3710:
  3716  0622                     l2660:
  3717  0622  17A3               	bsf	___fladd@b+3,7
  3718  0623                     l662:
  3719  0623                     l632:
  3720  0623  0008               	return
  3721  0624                     __end_of___fladd:
  3722                           
  3723                           	psect	text9
  3724  0033                     __ptext9:	
  3725 ;; *************** function ___flmul *****************
  3726 ;; Defined at:
  3727 ;;		line 8 in file "C:\Program Files\Microchip\xc8\v2.31\pic\sources\c90\common\sprcmul.c"
  3728 ;; Parameters:    Size  Location     Type
  3729 ;;  b               4   10[BANK0 ] unsigned char 
  3730 ;;  a               4   14[BANK0 ] unsigned char 
  3731 ;; Auto vars:     Size  Location     Type
  3732 ;;  prod            4   30[BANK0 ] struct .
  3733 ;;  grs             4   24[BANK0 ] unsigned long 
  3734 ;;  temp            2   34[BANK0 ] struct .
  3735 ;;  bexp            1   29[BANK0 ] unsigned char 
  3736 ;;  aexp            1   28[BANK0 ] unsigned char 
  3737 ;;  sign            1   23[BANK0 ] unsigned char 
  3738 ;; Return value:  Size  Location     Type
  3739 ;;                  4   10[BANK0 ] unsigned char 
  3740 ;; Registers used:
  3741 ;;		wreg, status,2, status,0, btemp+1, pclath, cstack
  3742 ;; Tracked objects:
  3743 ;;		On entry : 0/0
  3744 ;;		On exit  : 0/0
  3745 ;;		Unchanged: 0/0
  3746 ;; Data sizes:     COMMON   BANK0   BANK1   BANK3   BANK2
  3747 ;;      Params:         0       8       0       0       0
  3748 ;;      Locals:         0      13       0       0       0
  3749 ;;      Temps:          0       5       0       0       0
  3750 ;;      Totals:         0      26       0       0       0
  3751 ;;Total ram usage:       26 bytes
  3752 ;; Hardware stack levels used:    1
  3753 ;; Hardware stack levels required when called:    2
  3754 ;; This function calls:
  3755 ;;		__Umul8_16
  3756 ;; This function is called by:
  3757 ;;		_main
  3758 ;;		_floToChar
  3759 ;; This function uses a non-reentrant model
  3760 ;;
  3761                           
  3762                           
  3763                           ;psect for function ___flmul
  3764  0033                     ___flmul:
  3765  0033                     l2014:	
  3766                           ;incstack = 0
  3767                           ; Regs used in ___flmul: [wreg+status,2+status,0+btemp+1+pclath+cstack]
  3768                           
  3769  0033  1283               	bcf	3,5	;RP0=0, select bank0
  3770  0034  1303               	bcf	3,6	;RP1=0, select bank0
  3771  0035  082D               	movf	___flmul@b+3,w
  3772  0036  3980               	andlw	128
  3773  0037  00B2               	movwf	??___flmul
  3774  0038  0832               	movf	??___flmul,w
  3775  0039  00B7               	movwf	___flmul@sign
  3776  003A                     l2016:
  3777  003A  082D               	movf	___flmul@b+3,w
  3778  003B  00B2               	movwf	??___flmul
  3779  003C  0732               	addwf	??___flmul,w
  3780  003D  00B3               	movwf	??___flmul+1
  3781  003E  0833               	movf	??___flmul+1,w
  3782  003F  00BD               	movwf	___flmul@bexp
  3783  0040                     l2018:
  3784  0040  1FAC               	btfss	___flmul@b+2,7
  3785  0041  2843               	goto	u2441
  3786  0042  2844               	goto	u2440
  3787  0043                     u2441:
  3788  0043  2845               	goto	l2022
  3789  0044                     u2440:
  3790  0044                     l2020:
  3791  0044  143D               	bsf	___flmul@bexp,0
  3792  0045                     l2022:
  3793  0045  083D               	movf	___flmul@bexp,w
  3794  0046  1903               	btfsc	3,2
  3795  0047  2849               	goto	u2451
  3796  0048  284A               	goto	u2450
  3797  0049                     u2451:
  3798  0049  2859               	goto	l2030
  3799  004A                     u2450:
  3800  004A                     l2024:
  3801  004A  0A3D               	incf	___flmul@bexp,w
  3802  004B  1D03               	btfss	3,2
  3803  004C  284E               	goto	u2461
  3804  004D  284F               	goto	u2460
  3805  004E                     u2461:
  3806  004E  2857               	goto	l2028
  3807  004F                     u2460:
  3808  004F                     l2026:
  3809  004F  3000               	movlw	0
  3810  0050  00AD               	movwf	___flmul@b+3
  3811  0051  3000               	movlw	0
  3812  0052  00AC               	movwf	___flmul@b+2
  3813  0053  3000               	movlw	0
  3814  0054  00AB               	movwf	___flmul@b+1
  3815  0055  3000               	movlw	0
  3816  0056  00AA               	movwf	___flmul@b
  3817  0057                     l2028:
  3818  0057  17AC               	bsf	___flmul@b+2,7
  3819  0058  2861               	goto	l2032
  3820  0059                     l2030:
  3821  0059  3000               	movlw	0
  3822  005A  00AD               	movwf	___flmul@b+3
  3823  005B  3000               	movlw	0
  3824  005C  00AC               	movwf	___flmul@b+2
  3825  005D  3000               	movlw	0
  3826  005E  00AB               	movwf	___flmul@b+1
  3827  005F  3000               	movlw	0
  3828  0060  00AA               	movwf	___flmul@b
  3829  0061                     l2032:
  3830  0061  0831               	movf	___flmul@a+3,w
  3831  0062  3980               	andlw	128
  3832  0063  00B2               	movwf	??___flmul
  3833  0064  0832               	movf	??___flmul,w
  3834  0065  06B7               	xorwf	___flmul@sign,f
  3835  0066                     l2034:
  3836  0066  0831               	movf	___flmul@a+3,w
  3837  0067  00B2               	movwf	??___flmul
  3838  0068  0732               	addwf	??___flmul,w
  3839  0069  00B3               	movwf	??___flmul+1
  3840  006A  0833               	movf	??___flmul+1,w
  3841  006B  00BC               	movwf	___flmul@aexp
  3842  006C                     l2036:
  3843  006C  1FB0               	btfss	___flmul@a+2,7
  3844  006D  286F               	goto	u2471
  3845  006E  2870               	goto	u2470
  3846  006F                     u2471:
  3847  006F  2871               	goto	l2040
  3848  0070                     u2470:
  3849  0070                     l2038:
  3850  0070  143C               	bsf	___flmul@aexp,0
  3851  0071                     l2040:
  3852  0071  083C               	movf	___flmul@aexp,w
  3853  0072  1903               	btfsc	3,2
  3854  0073  2875               	goto	u2481
  3855  0074  2876               	goto	u2480
  3856  0075                     u2481:
  3857  0075  2885               	goto	l2048
  3858  0076                     u2480:
  3859  0076                     l2042:
  3860  0076  0A3C               	incf	___flmul@aexp,w
  3861  0077  1D03               	btfss	3,2
  3862  0078  287A               	goto	u2491
  3863  0079  287B               	goto	u2490
  3864  007A                     u2491:
  3865  007A  2883               	goto	l2046
  3866  007B                     u2490:
  3867  007B                     l2044:
  3868  007B  3000               	movlw	0
  3869  007C  00B1               	movwf	___flmul@a+3
  3870  007D  3000               	movlw	0
  3871  007E  00B0               	movwf	___flmul@a+2
  3872  007F  3000               	movlw	0
  3873  0080  00AF               	movwf	___flmul@a+1
  3874  0081  3000               	movlw	0
  3875  0082  00AE               	movwf	___flmul@a
  3876  0083                     l2046:
  3877  0083  17B0               	bsf	___flmul@a+2,7
  3878  0084  288D               	goto	l2050
  3879  0085                     l2048:
  3880  0085  3000               	movlw	0
  3881  0086  00B1               	movwf	___flmul@a+3
  3882  0087  3000               	movlw	0
  3883  0088  00B0               	movwf	___flmul@a+2
  3884  0089  3000               	movlw	0
  3885  008A  00AF               	movwf	___flmul@a+1
  3886  008B  3000               	movlw	0
  3887  008C  00AE               	movwf	___flmul@a
  3888  008D                     l2050:
  3889  008D  083C               	movf	___flmul@aexp,w
  3890  008E  1903               	btfsc	3,2
  3891  008F  2891               	goto	u2501
  3892  0090  2892               	goto	u2500
  3893  0091                     u2501:
  3894  0091  2897               	goto	l2054
  3895  0092                     u2500:
  3896  0092                     l2052:
  3897  0092  083D               	movf	___flmul@bexp,w
  3898  0093  1D03               	btfss	3,2
  3899  0094  2896               	goto	u2511
  3900  0095  2897               	goto	u2510
  3901  0096                     u2511:
  3902  0096  28A0               	goto	l2058
  3903  0097                     u2510:
  3904  0097                     l2054:
  3905  0097  3000               	movlw	0
  3906  0098  00AD               	movwf	?___flmul+3
  3907  0099  3000               	movlw	0
  3908  009A  00AC               	movwf	?___flmul+2
  3909  009B  3000               	movlw	0
  3910  009C  00AB               	movwf	?___flmul+1
  3911  009D  3000               	movlw	0
  3912  009E  00AA               	movwf	?___flmul
  3913  009F  2B93               	goto	l715
  3914  00A0                     l2058:
  3915  00A0  082A               	movf	___flmul@b,w
  3916  00A1  00B2               	movwf	??___flmul
  3917  00A2  0832               	movf	??___flmul,w
  3918  00A3  00F3               	movwf	__Umul8_16@multiplicand
  3919  00A4  0830               	movf	___flmul@a+2,w
  3920  00A5  120A  158A  2363  120A  118A  	fcall	__Umul8_16
  3921  00AA  0874               	movf	?__Umul8_16+1,w
  3922  00AB  1283               	bcf	3,5	;RP0=0, select bank0
  3923  00AC  1303               	bcf	3,6	;RP1=0, select bank0
  3924  00AD  00C3               	movwf	___flmul@temp+1
  3925  00AE  0873               	movf	?__Umul8_16,w
  3926  00AF  00C2               	movwf	___flmul@temp
  3927  00B0                     l2060:
  3928  00B0  0842               	movf	___flmul@temp,w
  3929  00B1  00B2               	movwf	??___flmul
  3930  00B2  01B3               	clrf	??___flmul+1
  3931  00B3  01B4               	clrf	??___flmul+2
  3932  00B4  01B5               	clrf	??___flmul+3
  3933  00B5  0835               	movf	??___flmul+3,w
  3934  00B6  00BB               	movwf	___flmul@grs+3
  3935  00B7  0834               	movf	??___flmul+2,w
  3936  00B8  00BA               	movwf	___flmul@grs+2
  3937  00B9  0833               	movf	??___flmul+1,w
  3938  00BA  00B9               	movwf	___flmul@grs+1
  3939  00BB  0832               	movf	??___flmul,w
  3940  00BC  00B8               	movwf	___flmul@grs
  3941  00BD                     l2062:
  3942  00BD  0843               	movf	___flmul@temp+1,w
  3943  00BE  00B2               	movwf	??___flmul
  3944  00BF  01B3               	clrf	??___flmul+1
  3945  00C0  01B4               	clrf	??___flmul+2
  3946  00C1  01B5               	clrf	??___flmul+3
  3947  00C2  0835               	movf	??___flmul+3,w
  3948  00C3  00C1               	movwf	___flmul@prod+3
  3949  00C4  0834               	movf	??___flmul+2,w
  3950  00C5  00C0               	movwf	___flmul@prod+2
  3951  00C6  0833               	movf	??___flmul+1,w
  3952  00C7  00BF               	movwf	___flmul@prod+1
  3953  00C8  0832               	movf	??___flmul,w
  3954  00C9  00BE               	movwf	___flmul@prod
  3955  00CA  082B               	movf	___flmul@b+1,w
  3956  00CB  00B2               	movwf	??___flmul
  3957  00CC  0832               	movf	??___flmul,w
  3958  00CD  00F3               	movwf	__Umul8_16@multiplicand
  3959  00CE  082F               	movf	___flmul@a+1,w
  3960  00CF  120A  158A  2363  120A  118A  	fcall	__Umul8_16
  3961  00D4  0874               	movf	?__Umul8_16+1,w
  3962  00D5  1283               	bcf	3,5	;RP0=0, select bank0
  3963  00D6  1303               	bcf	3,6	;RP1=0, select bank0
  3964  00D7  00C3               	movwf	___flmul@temp+1
  3965  00D8  0873               	movf	?__Umul8_16,w
  3966  00D9  00C2               	movwf	___flmul@temp
  3967  00DA                     l2064:
  3968  00DA  0842               	movf	___flmul@temp,w
  3969  00DB  00B2               	movwf	??___flmul
  3970  00DC  01B3               	clrf	??___flmul+1
  3971  00DD  01B4               	clrf	??___flmul+2
  3972  00DE  01B5               	clrf	??___flmul+3
  3973  00DF  0832               	movf	??___flmul,w
  3974  00E0  07B8               	addwf	___flmul@grs,f
  3975  00E1  0833               	movf	??___flmul+1,w
  3976  00E2  1103               	clrz
  3977  00E3  1803               	skipnc
  3978  00E4  3E01               	addlw	1
  3979  00E5  1903               	skipnz
  3980  00E6  28E8               	goto	u2521
  3981  00E7  07B9               	addwf	___flmul@grs+1,f
  3982  00E8                     u2521:
  3983  00E8  0834               	movf	??___flmul+2,w
  3984  00E9  1103               	clrz
  3985  00EA  1803               	skipnc
  3986  00EB  3E01               	addlw	1
  3987  00EC  1903               	skipnz
  3988  00ED  28EF               	goto	u2522
  3989  00EE  07BA               	addwf	___flmul@grs+2,f
  3990  00EF                     u2522:
  3991  00EF  0835               	movf	??___flmul+3,w
  3992  00F0  1103               	clrz
  3993  00F1  1803               	skipnc
  3994  00F2  3E01               	addlw	1
  3995  00F3  1903               	skipnz
  3996  00F4  28F6               	goto	u2523
  3997  00F5  07BB               	addwf	___flmul@grs+3,f
  3998  00F6                     u2523:
  3999  00F6                     l2066:
  4000  00F6  0843               	movf	___flmul@temp+1,w
  4001  00F7  00B2               	movwf	??___flmul
  4002  00F8  01B3               	clrf	??___flmul+1
  4003  00F9  01B4               	clrf	??___flmul+2
  4004  00FA  01B5               	clrf	??___flmul+3
  4005  00FB  0832               	movf	??___flmul,w
  4006  00FC  07BE               	addwf	___flmul@prod,f
  4007  00FD  0833               	movf	??___flmul+1,w
  4008  00FE  1103               	clrz
  4009  00FF  1803               	skipnc
  4010  0100  3E01               	addlw	1
  4011  0101  1903               	skipnz
  4012  0102  2904               	goto	u2531
  4013  0103  07BF               	addwf	___flmul@prod+1,f
  4014  0104                     u2531:
  4015  0104  0834               	movf	??___flmul+2,w
  4016  0105  1103               	clrz
  4017  0106  1803               	skipnc
  4018  0107  3E01               	addlw	1
  4019  0108  1903               	skipnz
  4020  0109  290B               	goto	u2532
  4021  010A  07C0               	addwf	___flmul@prod+2,f
  4022  010B                     u2532:
  4023  010B  0835               	movf	??___flmul+3,w
  4024  010C  1103               	clrz
  4025  010D  1803               	skipnc
  4026  010E  3E01               	addlw	1
  4027  010F  1903               	skipnz
  4028  0110  2912               	goto	u2533
  4029  0111  07C1               	addwf	___flmul@prod+3,f
  4030  0112                     u2533:
  4031  0112  082C               	movf	___flmul@b+2,w
  4032  0113  00B2               	movwf	??___flmul
  4033  0114  0832               	movf	??___flmul,w
  4034  0115  00F3               	movwf	__Umul8_16@multiplicand
  4035  0116  082E               	movf	___flmul@a,w
  4036  0117  120A  158A  2363  120A  118A  	fcall	__Umul8_16
  4037  011C  0874               	movf	?__Umul8_16+1,w
  4038  011D  1283               	bcf	3,5	;RP0=0, select bank0
  4039  011E  1303               	bcf	3,6	;RP1=0, select bank0
  4040  011F  00C3               	movwf	___flmul@temp+1
  4041  0120  0873               	movf	?__Umul8_16,w
  4042  0121  00C2               	movwf	___flmul@temp
  4043  0122                     l2068:
  4044  0122  0842               	movf	___flmul@temp,w
  4045  0123  00B2               	movwf	??___flmul
  4046  0124  01B3               	clrf	??___flmul+1
  4047  0125  01B4               	clrf	??___flmul+2
  4048  0126  01B5               	clrf	??___flmul+3
  4049  0127  0832               	movf	??___flmul,w
  4050  0128  07B8               	addwf	___flmul@grs,f
  4051  0129  0833               	movf	??___flmul+1,w
  4052  012A  1103               	clrz
  4053  012B  1803               	skipnc
  4054  012C  3E01               	addlw	1
  4055  012D  1903               	skipnz
  4056  012E  2930               	goto	u2541
  4057  012F  07B9               	addwf	___flmul@grs+1,f
  4058  0130                     u2541:
  4059  0130  0834               	movf	??___flmul+2,w
  4060  0131  1103               	clrz
  4061  0132  1803               	skipnc
  4062  0133  3E01               	addlw	1
  4063  0134  1903               	skipnz
  4064  0135  2937               	goto	u2542
  4065  0136  07BA               	addwf	___flmul@grs+2,f
  4066  0137                     u2542:
  4067  0137  0835               	movf	??___flmul+3,w
  4068  0138  1103               	clrz
  4069  0139  1803               	skipnc
  4070  013A  3E01               	addlw	1
  4071  013B  1903               	skipnz
  4072  013C  293E               	goto	u2543
  4073  013D  07BB               	addwf	___flmul@grs+3,f
  4074  013E                     u2543:
  4075  013E                     l2070:
  4076  013E  0843               	movf	___flmul@temp+1,w
  4077  013F  00B2               	movwf	??___flmul
  4078  0140  01B3               	clrf	??___flmul+1
  4079  0141  01B4               	clrf	??___flmul+2
  4080  0142  01B5               	clrf	??___flmul+3
  4081  0143  0832               	movf	??___flmul,w
  4082  0144  07BE               	addwf	___flmul@prod,f
  4083  0145  0833               	movf	??___flmul+1,w
  4084  0146  1103               	clrz
  4085  0147  1803               	skipnc
  4086  0148  3E01               	addlw	1
  4087  0149  1903               	skipnz
  4088  014A  294C               	goto	u2551
  4089  014B  07BF               	addwf	___flmul@prod+1,f
  4090  014C                     u2551:
  4091  014C  0834               	movf	??___flmul+2,w
  4092  014D  1103               	clrz
  4093  014E  1803               	skipnc
  4094  014F  3E01               	addlw	1
  4095  0150  1903               	skipnz
  4096  0151  2953               	goto	u2552
  4097  0152  07C0               	addwf	___flmul@prod+2,f
  4098  0153                     u2552:
  4099  0153  0835               	movf	??___flmul+3,w
  4100  0154  1103               	clrz
  4101  0155  1803               	skipnc
  4102  0156  3E01               	addlw	1
  4103  0157  1903               	skipnz
  4104  0158  295A               	goto	u2553
  4105  0159  07C1               	addwf	___flmul@prod+3,f
  4106  015A                     u2553:
  4107  015A                     l2072:
  4108  015A  3008               	movlw	8
  4109  015B  00B2               	movwf	??___flmul
  4110  015C                     u2565:
  4111  015C  1003               	clrc
  4112  015D  0DB8               	rlf	___flmul@grs,f
  4113  015E  0DB9               	rlf	___flmul@grs+1,f
  4114  015F  0DBA               	rlf	___flmul@grs+2,f
  4115  0160  0DBB               	rlf	___flmul@grs+3,f
  4116  0161  0BB2               	decfsz	??___flmul,f
  4117  0162  295C               	goto	u2565
  4118  0163                     l2074:
  4119  0163  082B               	movf	___flmul@b+1,w
  4120  0164  00B2               	movwf	??___flmul
  4121  0165  0832               	movf	??___flmul,w
  4122  0166  00F3               	movwf	__Umul8_16@multiplicand
  4123  0167  082E               	movf	___flmul@a,w
  4124  0168  120A  158A  2363  120A  118A  	fcall	__Umul8_16
  4125  016D  0874               	movf	?__Umul8_16+1,w
  4126  016E  1283               	bcf	3,5	;RP0=0, select bank0
  4127  016F  1303               	bcf	3,6	;RP1=0, select bank0
  4128  0170  00C3               	movwf	___flmul@temp+1
  4129  0171  0873               	movf	?__Umul8_16,w
  4130  0172  00C2               	movwf	___flmul@temp
  4131  0173                     l2076:
  4132  0173  0842               	movf	___flmul@temp,w
  4133  0174  00B2               	movwf	??___flmul
  4134  0175  0843               	movf	___flmul@temp+1,w
  4135  0176  00B3               	movwf	??___flmul+1
  4136  0177  01B4               	clrf	??___flmul+2
  4137  0178  01B5               	clrf	??___flmul+3
  4138  0179  0832               	movf	??___flmul,w
  4139  017A  07B8               	addwf	___flmul@grs,f
  4140  017B  0833               	movf	??___flmul+1,w
  4141  017C  1103               	clrz
  4142  017D  1803               	skipnc
  4143  017E  3E01               	addlw	1
  4144  017F  1903               	skipnz
  4145  0180  2982               	goto	u2571
  4146  0181  07B9               	addwf	___flmul@grs+1,f
  4147  0182                     u2571:
  4148  0182  0834               	movf	??___flmul+2,w
  4149  0183  1103               	clrz
  4150  0184  1803               	skipnc
  4151  0185  3E01               	addlw	1
  4152  0186  1903               	skipnz
  4153  0187  2989               	goto	u2572
  4154  0188  07BA               	addwf	___flmul@grs+2,f
  4155  0189                     u2572:
  4156  0189  0835               	movf	??___flmul+3,w
  4157  018A  1103               	clrz
  4158  018B  1803               	skipnc
  4159  018C  3E01               	addlw	1
  4160  018D  1903               	skipnz
  4161  018E  2990               	goto	u2573
  4162  018F  07BB               	addwf	___flmul@grs+3,f
  4163  0190                     u2573:
  4164  0190                     l2078:
  4165  0190  082A               	movf	___flmul@b,w
  4166  0191  00B2               	movwf	??___flmul
  4167  0192  0832               	movf	??___flmul,w
  4168  0193  00F3               	movwf	__Umul8_16@multiplicand
  4169  0194  082F               	movf	___flmul@a+1,w
  4170  0195  120A  158A  2363  120A  118A  	fcall	__Umul8_16
  4171  019A  0874               	movf	?__Umul8_16+1,w
  4172  019B  1283               	bcf	3,5	;RP0=0, select bank0
  4173  019C  1303               	bcf	3,6	;RP1=0, select bank0
  4174  019D  00C3               	movwf	___flmul@temp+1
  4175  019E  0873               	movf	?__Umul8_16,w
  4176  019F  00C2               	movwf	___flmul@temp
  4177  01A0                     l2080:
  4178  01A0  0842               	movf	___flmul@temp,w
  4179  01A1  00B2               	movwf	??___flmul
  4180  01A2  0843               	movf	___flmul@temp+1,w
  4181  01A3  00B3               	movwf	??___flmul+1
  4182  01A4  01B4               	clrf	??___flmul+2
  4183  01A5  01B5               	clrf	??___flmul+3
  4184  01A6  0832               	movf	??___flmul,w
  4185  01A7  07B8               	addwf	___flmul@grs,f
  4186  01A8  0833               	movf	??___flmul+1,w
  4187  01A9  1103               	clrz
  4188  01AA  1803               	skipnc
  4189  01AB  3E01               	addlw	1
  4190  01AC  1903               	skipnz
  4191  01AD  29AF               	goto	u2581
  4192  01AE  07B9               	addwf	___flmul@grs+1,f
  4193  01AF                     u2581:
  4194  01AF  0834               	movf	??___flmul+2,w
  4195  01B0  1103               	clrz
  4196  01B1  1803               	skipnc
  4197  01B2  3E01               	addlw	1
  4198  01B3  1903               	skipnz
  4199  01B4  29B6               	goto	u2582
  4200  01B5  07BA               	addwf	___flmul@grs+2,f
  4201  01B6                     u2582:
  4202  01B6  0835               	movf	??___flmul+3,w
  4203  01B7  1103               	clrz
  4204  01B8  1803               	skipnc
  4205  01B9  3E01               	addlw	1
  4206  01BA  1903               	skipnz
  4207  01BB  29BD               	goto	u2583
  4208  01BC  07BB               	addwf	___flmul@grs+3,f
  4209  01BD                     u2583:
  4210  01BD                     l2082:
  4211  01BD  3008               	movlw	8
  4212  01BE  00B2               	movwf	??___flmul
  4213  01BF                     u2595:
  4214  01BF  1003               	clrc
  4215  01C0  0DB8               	rlf	___flmul@grs,f
  4216  01C1  0DB9               	rlf	___flmul@grs+1,f
  4217  01C2  0DBA               	rlf	___flmul@grs+2,f
  4218  01C3  0DBB               	rlf	___flmul@grs+3,f
  4219  01C4  0BB2               	decfsz	??___flmul,f
  4220  01C5  29BF               	goto	u2595
  4221  01C6  082A               	movf	___flmul@b,w
  4222  01C7  00B2               	movwf	??___flmul
  4223  01C8  0832               	movf	??___flmul,w
  4224  01C9  00F3               	movwf	__Umul8_16@multiplicand
  4225  01CA  082E               	movf	___flmul@a,w
  4226  01CB  120A  158A  2363  120A  118A  	fcall	__Umul8_16
  4227  01D0  0874               	movf	?__Umul8_16+1,w
  4228  01D1  1283               	bcf	3,5	;RP0=0, select bank0
  4229  01D2  1303               	bcf	3,6	;RP1=0, select bank0
  4230  01D3  00C3               	movwf	___flmul@temp+1
  4231  01D4  0873               	movf	?__Umul8_16,w
  4232  01D5  00C2               	movwf	___flmul@temp
  4233  01D6                     l2084:
  4234  01D6  0842               	movf	___flmul@temp,w
  4235  01D7  00B2               	movwf	??___flmul
  4236  01D8  0843               	movf	___flmul@temp+1,w
  4237  01D9  00B3               	movwf	??___flmul+1
  4238  01DA  01B4               	clrf	??___flmul+2
  4239  01DB  01B5               	clrf	??___flmul+3
  4240  01DC  0832               	movf	??___flmul,w
  4241  01DD  07B8               	addwf	___flmul@grs,f
  4242  01DE  0833               	movf	??___flmul+1,w
  4243  01DF  1103               	clrz
  4244  01E0  1803               	skipnc
  4245  01E1  3E01               	addlw	1
  4246  01E2  1903               	skipnz
  4247  01E3  29E5               	goto	u2601
  4248  01E4  07B9               	addwf	___flmul@grs+1,f
  4249  01E5                     u2601:
  4250  01E5  0834               	movf	??___flmul+2,w
  4251  01E6  1103               	clrz
  4252  01E7  1803               	skipnc
  4253  01E8  3E01               	addlw	1
  4254  01E9  1903               	skipnz
  4255  01EA  29EC               	goto	u2602
  4256  01EB  07BA               	addwf	___flmul@grs+2,f
  4257  01EC                     u2602:
  4258  01EC  0835               	movf	??___flmul+3,w
  4259  01ED  1103               	clrz
  4260  01EE  1803               	skipnc
  4261  01EF  3E01               	addlw	1
  4262  01F0  1903               	skipnz
  4263  01F1  29F3               	goto	u2603
  4264  01F2  07BB               	addwf	___flmul@grs+3,f
  4265  01F3                     u2603:
  4266  01F3                     l2086:
  4267  01F3  082B               	movf	___flmul@b+1,w
  4268  01F4  00B2               	movwf	??___flmul
  4269  01F5  0832               	movf	??___flmul,w
  4270  01F6  00F3               	movwf	__Umul8_16@multiplicand
  4271  01F7  0830               	movf	___flmul@a+2,w
  4272  01F8  120A  158A  2363  120A  118A  	fcall	__Umul8_16
  4273  01FD  0874               	movf	?__Umul8_16+1,w
  4274  01FE  1283               	bcf	3,5	;RP0=0, select bank0
  4275  01FF  1303               	bcf	3,6	;RP1=0, select bank0
  4276  0200  00C3               	movwf	___flmul@temp+1
  4277  0201  0873               	movf	?__Umul8_16,w
  4278  0202  00C2               	movwf	___flmul@temp
  4279  0203  0842               	movf	___flmul@temp,w
  4280  0204  00B2               	movwf	??___flmul
  4281  0205  0843               	movf	___flmul@temp+1,w
  4282  0206  00B3               	movwf	??___flmul+1
  4283  0207  01B4               	clrf	??___flmul+2
  4284  0208  01B5               	clrf	??___flmul+3
  4285  0209  0832               	movf	??___flmul,w
  4286  020A  07BE               	addwf	___flmul@prod,f
  4287  020B  0833               	movf	??___flmul+1,w
  4288  020C  1103               	clrz
  4289  020D  1803               	skipnc
  4290  020E  3E01               	addlw	1
  4291  020F  1903               	skipnz
  4292  0210  2A12               	goto	u2611
  4293  0211  07BF               	addwf	___flmul@prod+1,f
  4294  0212                     u2611:
  4295  0212  0834               	movf	??___flmul+2,w
  4296  0213  1103               	clrz
  4297  0214  1803               	skipnc
  4298  0215  3E01               	addlw	1
  4299  0216  1903               	skipnz
  4300  0217  2A19               	goto	u2612
  4301  0218  07C0               	addwf	___flmul@prod+2,f
  4302  0219                     u2612:
  4303  0219  0835               	movf	??___flmul+3,w
  4304  021A  1103               	clrz
  4305  021B  1803               	skipnc
  4306  021C  3E01               	addlw	1
  4307  021D  1903               	skipnz
  4308  021E  2A20               	goto	u2613
  4309  021F  07C1               	addwf	___flmul@prod+3,f
  4310  0220                     u2613:
  4311  0220                     l2088:
  4312  0220  082C               	movf	___flmul@b+2,w
  4313  0221  00B2               	movwf	??___flmul
  4314  0222  0832               	movf	??___flmul,w
  4315  0223  00F3               	movwf	__Umul8_16@multiplicand
  4316  0224  082F               	movf	___flmul@a+1,w
  4317  0225  120A  158A  2363  120A  118A  	fcall	__Umul8_16
  4318  022A  0874               	movf	?__Umul8_16+1,w
  4319  022B  1283               	bcf	3,5	;RP0=0, select bank0
  4320  022C  1303               	bcf	3,6	;RP1=0, select bank0
  4321  022D  00C3               	movwf	___flmul@temp+1
  4322  022E  0873               	movf	?__Umul8_16,w
  4323  022F  00C2               	movwf	___flmul@temp
  4324  0230                     l2090:
  4325  0230  0842               	movf	___flmul@temp,w
  4326  0231  00B2               	movwf	??___flmul
  4327  0232  0843               	movf	___flmul@temp+1,w
  4328  0233  00B3               	movwf	??___flmul+1
  4329  0234  01B4               	clrf	??___flmul+2
  4330  0235  01B5               	clrf	??___flmul+3
  4331  0236  0832               	movf	??___flmul,w
  4332  0237  07BE               	addwf	___flmul@prod,f
  4333  0238  0833               	movf	??___flmul+1,w
  4334  0239  1103               	clrz
  4335  023A  1803               	skipnc
  4336  023B  3E01               	addlw	1
  4337  023C  1903               	skipnz
  4338  023D  2A3F               	goto	u2621
  4339  023E  07BF               	addwf	___flmul@prod+1,f
  4340  023F                     u2621:
  4341  023F  0834               	movf	??___flmul+2,w
  4342  0240  1103               	clrz
  4343  0241  1803               	skipnc
  4344  0242  3E01               	addlw	1
  4345  0243  1903               	skipnz
  4346  0244  2A46               	goto	u2622
  4347  0245  07C0               	addwf	___flmul@prod+2,f
  4348  0246                     u2622:
  4349  0246  0835               	movf	??___flmul+3,w
  4350  0247  1103               	clrz
  4351  0248  1803               	skipnc
  4352  0249  3E01               	addlw	1
  4353  024A  1903               	skipnz
  4354  024B  2A4D               	goto	u2623
  4355  024C  07C1               	addwf	___flmul@prod+3,f
  4356  024D                     u2623:
  4357  024D  082C               	movf	___flmul@b+2,w
  4358  024E  00B2               	movwf	??___flmul
  4359  024F  0832               	movf	??___flmul,w
  4360  0250  00F3               	movwf	__Umul8_16@multiplicand
  4361  0251  0830               	movf	___flmul@a+2,w
  4362  0252  120A  158A  2363  120A  118A  	fcall	__Umul8_16
  4363  0257  0874               	movf	?__Umul8_16+1,w
  4364  0258  1283               	bcf	3,5	;RP0=0, select bank0
  4365  0259  1303               	bcf	3,6	;RP1=0, select bank0
  4366  025A  00C3               	movwf	___flmul@temp+1
  4367  025B  0873               	movf	?__Umul8_16,w
  4368  025C  00C2               	movwf	___flmul@temp
  4369  025D                     l2092:
  4370  025D  0842               	movf	___flmul@temp,w
  4371  025E  00B2               	movwf	??___flmul
  4372  025F  0843               	movf	___flmul@temp+1,w
  4373  0260  00B3               	movwf	??___flmul+1
  4374  0261  01B4               	clrf	??___flmul+2
  4375  0262  01B5               	clrf	??___flmul+3
  4376  0263  3008               	movlw	8
  4377  0264                     u2635:
  4378  0264  1003               	clrc
  4379  0265  0DB2               	rlf	??___flmul,f
  4380  0266  0DB3               	rlf	??___flmul+1,f
  4381  0267  0DB4               	rlf	??___flmul+2,f
  4382  0268  0DB5               	rlf	??___flmul+3,f
  4383  0269                     u2630:
  4384  0269  3EFF               	addlw	-1
  4385  026A  1D03               	skipz
  4386  026B  2A64               	goto	u2635
  4387  026C  0832               	movf	??___flmul,w
  4388  026D  07BE               	addwf	___flmul@prod,f
  4389  026E  0833               	movf	??___flmul+1,w
  4390  026F  1103               	clrz
  4391  0270  1803               	skipnc
  4392  0271  3E01               	addlw	1
  4393  0272  1903               	skipnz
  4394  0273  2A75               	goto	u2641
  4395  0274  07BF               	addwf	___flmul@prod+1,f
  4396  0275                     u2641:
  4397  0275  0834               	movf	??___flmul+2,w
  4398  0276  1103               	clrz
  4399  0277  1803               	skipnc
  4400  0278  3E01               	addlw	1
  4401  0279  1903               	skipnz
  4402  027A  2A7C               	goto	u2642
  4403  027B  07C0               	addwf	___flmul@prod+2,f
  4404  027C                     u2642:
  4405  027C  0835               	movf	??___flmul+3,w
  4406  027D  1103               	clrz
  4407  027E  1803               	skipnc
  4408  027F  3E01               	addlw	1
  4409  0280  1903               	skipnz
  4410  0281  2A83               	goto	u2643
  4411  0282  07C1               	addwf	___flmul@prod+3,f
  4412  0283                     u2643:
  4413  0283                     l2094:
  4414  0283  0838               	movf	___flmul@grs,w
  4415  0284  00B2               	movwf	??___flmul
  4416  0285  0839               	movf	___flmul@grs+1,w
  4417  0286  00B3               	movwf	??___flmul+1
  4418  0287  083A               	movf	___flmul@grs+2,w
  4419  0288  00B4               	movwf	??___flmul+2
  4420  0289  083B               	movf	___flmul@grs+3,w
  4421  028A  00B5               	movwf	??___flmul+3
  4422  028B  3018               	movlw	24
  4423  028C                     u2655:
  4424  028C  1003               	clrc
  4425  028D  0CB5               	rrf	??___flmul+3,f
  4426  028E  0CB4               	rrf	??___flmul+2,f
  4427  028F  0CB3               	rrf	??___flmul+1,f
  4428  0290  0CB2               	rrf	??___flmul,f
  4429  0291                     u2650:
  4430  0291  3EFF               	addlw	-1
  4431  0292  1D03               	skipz
  4432  0293  2A8C               	goto	u2655
  4433  0294  0832               	movf	??___flmul,w
  4434  0295  07BE               	addwf	___flmul@prod,f
  4435  0296  0833               	movf	??___flmul+1,w
  4436  0297  1103               	clrz
  4437  0298  1803               	skipnc
  4438  0299  3E01               	addlw	1
  4439  029A  1903               	skipnz
  4440  029B  2A9D               	goto	u2661
  4441  029C  07BF               	addwf	___flmul@prod+1,f
  4442  029D                     u2661:
  4443  029D  0834               	movf	??___flmul+2,w
  4444  029E  1103               	clrz
  4445  029F  1803               	skipnc
  4446  02A0  3E01               	addlw	1
  4447  02A1  1903               	skipnz
  4448  02A2  2AA4               	goto	u2662
  4449  02A3  07C0               	addwf	___flmul@prod+2,f
  4450  02A4                     u2662:
  4451  02A4  0835               	movf	??___flmul+3,w
  4452  02A5  1103               	clrz
  4453  02A6  1803               	skipnc
  4454  02A7  3E01               	addlw	1
  4455  02A8  1903               	skipnz
  4456  02A9  2AAB               	goto	u2663
  4457  02AA  07C1               	addwf	___flmul@prod+3,f
  4458  02AB                     u2663:
  4459  02AB                     l2096:
  4460  02AB  3008               	movlw	8
  4461  02AC  00B2               	movwf	??___flmul
  4462  02AD                     u2675:
  4463  02AD  1003               	clrc
  4464  02AE  0DB8               	rlf	___flmul@grs,f
  4465  02AF  0DB9               	rlf	___flmul@grs+1,f
  4466  02B0  0DBA               	rlf	___flmul@grs+2,f
  4467  02B1  0DBB               	rlf	___flmul@grs+3,f
  4468  02B2  0BB2               	decfsz	??___flmul,f
  4469  02B3  2AAD               	goto	u2675
  4470  02B4                     l2098:
  4471  02B4  083D               	movf	___flmul@bexp,w
  4472  02B5  073C               	addwf	___flmul@aexp,w
  4473  02B6  00B2               	movwf	??___flmul
  4474  02B7  01B3               	clrf	??___flmul+1
  4475  02B8  0DB3               	rlf	??___flmul+1,f
  4476  02B9  0832               	movf	??___flmul,w
  4477  02BA  3E82               	addlw	130
  4478  02BB  00C2               	movwf	___flmul@temp
  4479  02BC  0833               	movf	??___flmul+1,w
  4480  02BD  1803               	skipnc
  4481  02BE  3E01               	addlw	1
  4482  02BF  3EFF               	addlw	255
  4483  02C0  00C3               	movwf	___flmul@temp+1
  4484  02C1  2ADF               	goto	l2110
  4485  02C2                     l2100:
  4486  02C2  3001               	movlw	1
  4487  02C3  00B2               	movwf	??___flmul
  4488  02C4                     u2685:
  4489  02C4  1003               	clrc
  4490  02C5  0DBE               	rlf	___flmul@prod,f
  4491  02C6  0DBF               	rlf	___flmul@prod+1,f
  4492  02C7  0DC0               	rlf	___flmul@prod+2,f
  4493  02C8  0DC1               	rlf	___flmul@prod+3,f
  4494  02C9  0BB2               	decfsz	??___flmul,f
  4495  02CA  2AC4               	goto	u2685
  4496  02CB                     l2102:
  4497  02CB  1FBB               	btfss	___flmul@grs+3,7
  4498  02CC  2ACE               	goto	u2691
  4499  02CD  2ACF               	goto	u2690
  4500  02CE                     u2691:
  4501  02CE  2AD0               	goto	l2106
  4502  02CF                     u2690:
  4503  02CF                     l2104:
  4504  02CF  143E               	bsf	___flmul@prod,0
  4505  02D0                     l2106:
  4506  02D0  3001               	movlw	1
  4507  02D1  00B2               	movwf	??___flmul
  4508  02D2                     u2705:
  4509  02D2  1003               	clrc
  4510  02D3  0DB8               	rlf	___flmul@grs,f
  4511  02D4  0DB9               	rlf	___flmul@grs+1,f
  4512  02D5  0DBA               	rlf	___flmul@grs+2,f
  4513  02D6  0DBB               	rlf	___flmul@grs+3,f
  4514  02D7  0BB2               	decfsz	??___flmul,f
  4515  02D8  2AD2               	goto	u2705
  4516  02D9                     l2108:
  4517  02D9  30FF               	movlw	255
  4518  02DA  07C2               	addwf	___flmul@temp,f
  4519  02DB  1803               	skipnc
  4520  02DC  0AC3               	incf	___flmul@temp+1,f
  4521  02DD  30FF               	movlw	255
  4522  02DE  07C3               	addwf	___flmul@temp+1,f
  4523  02DF                     l2110:
  4524  02DF  1FC0               	btfss	___flmul@prod+2,7
  4525  02E0  2AE2               	goto	u2711
  4526  02E1  2AE3               	goto	u2710
  4527  02E2                     u2711:
  4528  02E2  2AC2               	goto	l2100
  4529  02E3                     u2710:
  4530  02E3                     l2112:
  4531  02E3  01BC               	clrf	___flmul@aexp
  4532  02E4                     l2114:
  4533  02E4  1FBB               	btfss	___flmul@grs+3,7
  4534  02E5  2AE7               	goto	u2721
  4535  02E6  2AE8               	goto	u2720
  4536  02E7                     u2721:
  4537  02E7  2B04               	goto	l2122
  4538  02E8                     u2720:
  4539  02E8                     l2116:
  4540  02E8  30FF               	movlw	255
  4541  02E9  0538               	andwf	___flmul@grs,w
  4542  02EA  00B2               	movwf	??___flmul
  4543  02EB  30FF               	movlw	255
  4544  02EC  0539               	andwf	___flmul@grs+1,w
  4545  02ED  00B3               	movwf	??___flmul+1
  4546  02EE  30FF               	movlw	255
  4547  02EF  053A               	andwf	___flmul@grs+2,w
  4548  02F0  00B4               	movwf	??___flmul+2
  4549  02F1  307F               	movlw	127
  4550  02F2  053B               	andwf	___flmul@grs+3,w
  4551  02F3  00B5               	movwf	??___flmul+3
  4552  02F4  0835               	movf	??___flmul+3,w
  4553  02F5  0434               	iorwf	??___flmul+2,w
  4554  02F6  0433               	iorwf	??___flmul+1,w
  4555  02F7  0432               	iorwf	??___flmul,w
  4556  02F8  1903               	skipnz
  4557  02F9  2AFB               	goto	u2731
  4558  02FA  2AFC               	goto	u2730
  4559  02FB                     u2731:
  4560  02FB  2AFF               	goto	l721
  4561  02FC                     u2730:
  4562  02FC                     l2118:
  4563  02FC  01BC               	clrf	___flmul@aexp
  4564  02FD  0ABC               	incf	___flmul@aexp,f
  4565  02FE  2B04               	goto	l2122
  4566  02FF                     l721:
  4567  02FF  1C3E               	btfss	___flmul@prod,0
  4568  0300  2B02               	goto	u2741
  4569  0301  2B03               	goto	u2740
  4570  0302                     u2741:
  4571  0302  2B04               	goto	l2122
  4572  0303                     u2740:
  4573  0303  2AFC               	goto	l2118
  4574  0304                     l2122:
  4575  0304  083C               	movf	___flmul@aexp,w
  4576  0305  1903               	btfsc	3,2
  4577  0306  2B08               	goto	u2751
  4578  0307  2B09               	goto	u2750
  4579  0308                     u2751:
  4580  0308  2B3A               	goto	l2132
  4581  0309                     u2750:
  4582  0309                     l2124:
  4583  0309  3001               	movlw	1
  4584  030A  07BE               	addwf	___flmul@prod,f
  4585  030B  3000               	movlw	0
  4586  030C  1803               	skipnc
  4587  030D  3001               	movlw	1
  4588  030E  07BF               	addwf	___flmul@prod+1,f
  4589  030F  3000               	movlw	0
  4590  0310  1803               	skipnc
  4591  0311  3001               	movlw	1
  4592  0312  07C0               	addwf	___flmul@prod+2,f
  4593  0313  3000               	movlw	0
  4594  0314  1803               	skipnc
  4595  0315  3001               	movlw	1
  4596  0316  07C1               	addwf	___flmul@prod+3,f
  4597  0317                     l2126:
  4598  0317  1C41               	btfss	___flmul@prod+3,0
  4599  0318  2B1A               	goto	u2761
  4600  0319  2B1B               	goto	u2760
  4601  031A                     u2761:
  4602  031A  2B3A               	goto	l2132
  4603  031B                     u2760:
  4604  031B                     l2128:
  4605  031B  083E               	movf	___flmul@prod,w
  4606  031C  00B2               	movwf	??___flmul
  4607  031D  083F               	movf	___flmul@prod+1,w
  4608  031E  00B3               	movwf	??___flmul+1
  4609  031F  0840               	movf	___flmul@prod+2,w
  4610  0320  00B4               	movwf	??___flmul+2
  4611  0321  0841               	movf	___flmul@prod+3,w
  4612  0322  00B5               	movwf	??___flmul+3
  4613  0323  3001               	movlw	1
  4614  0324  00B6               	movwf	??___flmul+4
  4615  0325                     u2775:
  4616  0325  0D35               	rlf	??___flmul+3,w
  4617  0326  0CB5               	rrf	??___flmul+3,f
  4618  0327  0CB4               	rrf	??___flmul+2,f
  4619  0328  0CB3               	rrf	??___flmul+1,f
  4620  0329  0CB2               	rrf	??___flmul,f
  4621  032A                     u2770:
  4622  032A  0BB6               	decfsz	??___flmul+4,f
  4623  032B  2B25               	goto	u2775
  4624  032C  0835               	movf	??___flmul+3,w
  4625  032D  00C1               	movwf	___flmul@prod+3
  4626  032E  0834               	movf	??___flmul+2,w
  4627  032F  00C0               	movwf	___flmul@prod+2
  4628  0330  0833               	movf	??___flmul+1,w
  4629  0331  00BF               	movwf	___flmul@prod+1
  4630  0332  0832               	movf	??___flmul,w
  4631  0333  00BE               	movwf	___flmul@prod
  4632  0334                     l2130:
  4633  0334  3001               	movlw	1
  4634  0335  07C2               	addwf	___flmul@temp,f
  4635  0336  1803               	skipnc
  4636  0337  0AC3               	incf	___flmul@temp+1,f
  4637  0338  3000               	movlw	0
  4638  0339  07C3               	addwf	___flmul@temp+1,f
  4639  033A                     l2132:
  4640  033A  0843               	movf	___flmul@temp+1,w
  4641  033B  3A80               	xorlw	128
  4642  033C  00FF               	movwf	btemp+1
  4643  033D  3080               	movlw	128
  4644  033E  027F               	subwf	btemp+1,w
  4645  033F  1D03               	skipz
  4646  0340  2B43               	goto	u2785
  4647  0341  30FF               	movlw	255
  4648  0342  0242               	subwf	___flmul@temp,w
  4649  0343                     u2785:
  4650  0343  1C03               	skipc
  4651  0344  2B46               	goto	u2781
  4652  0345  2B47               	goto	u2780
  4653  0346                     u2781:
  4654  0346  2B52               	goto	l2136
  4655  0347                     u2780:
  4656  0347                     l2134:
  4657  0347  307F               	movlw	127
  4658  0348  1283               	bcf	3,5	;RP0=0, select bank0
  4659  0349  1303               	bcf	3,6	;RP1=0, select bank0
  4660  034A  00C1               	movwf	___flmul@prod+3
  4661  034B  3080               	movlw	128
  4662  034C  00C0               	movwf	___flmul@prod+2
  4663  034D  3000               	movlw	0
  4664  034E  00BF               	movwf	___flmul@prod+1
  4665  034F  3000               	movlw	0
  4666  0350  00BE               	movwf	___flmul@prod
  4667  0351  2B87               	goto	l727
  4668  0352                     l2136:
  4669  0352  1283               	bcf	3,5	;RP0=0, select bank0
  4670  0353  1303               	bcf	3,6	;RP1=0, select bank0
  4671  0354  0843               	movf	___flmul@temp+1,w
  4672  0355  3A80               	xorlw	128
  4673  0356  00FF               	movwf	btemp+1
  4674  0357  3080               	movlw	128
  4675  0358  027F               	subwf	btemp+1,w
  4676  0359  1D03               	skipz
  4677  035A  2B5D               	goto	u2795
  4678  035B  3001               	movlw	1
  4679  035C  0242               	subwf	___flmul@temp,w
  4680  035D                     u2795:
  4681  035D  1803               	skipnc
  4682  035E  2B60               	goto	u2791
  4683  035F  2B61               	goto	u2790
  4684  0360                     u2791:
  4685  0360  2B6D               	goto	l2142
  4686  0361                     u2790:
  4687  0361                     l2138:
  4688  0361  3000               	movlw	0
  4689  0362  1283               	bcf	3,5	;RP0=0, select bank0
  4690  0363  1303               	bcf	3,6	;RP1=0, select bank0
  4691  0364  00C1               	movwf	___flmul@prod+3
  4692  0365  3000               	movlw	0
  4693  0366  00C0               	movwf	___flmul@prod+2
  4694  0367  3000               	movlw	0
  4695  0368  00BF               	movwf	___flmul@prod+1
  4696  0369  3000               	movlw	0
  4697  036A  00BE               	movwf	___flmul@prod
  4698  036B                     l2140:
  4699  036B  01B7               	clrf	___flmul@sign
  4700  036C  2B87               	goto	l727
  4701  036D                     l2142:
  4702  036D  1283               	bcf	3,5	;RP0=0, select bank0
  4703  036E  1303               	bcf	3,6	;RP1=0, select bank0
  4704  036F  0842               	movf	___flmul@temp,w
  4705  0370  00B2               	movwf	??___flmul
  4706  0371  0832               	movf	??___flmul,w
  4707  0372  00BD               	movwf	___flmul@bexp
  4708  0373  30FF               	movlw	255
  4709  0374  05BE               	andwf	___flmul@prod,f
  4710  0375  30FF               	movlw	255
  4711  0376  05BF               	andwf	___flmul@prod+1,f
  4712  0377  307F               	movlw	127
  4713  0378  05C0               	andwf	___flmul@prod+2,f
  4714  0379  3000               	movlw	0
  4715  037A  05C1               	andwf	___flmul@prod+3,f
  4716  037B                     l2144:
  4717  037B  1C3D               	btfss	___flmul@bexp,0
  4718  037C  2B7E               	goto	u2801
  4719  037D  2B7F               	goto	u2800
  4720  037E                     u2801:
  4721  037E  2B80               	goto	l2148
  4722  037F                     u2800:
  4723  037F                     l2146:
  4724  037F  17C0               	bsf	___flmul@prod+2,7
  4725  0380                     l2148:
  4726  0380  083D               	movf	___flmul@bexp,w
  4727  0381  00B2               	movwf	??___flmul
  4728  0382  1003               	clrc
  4729  0383  0C32               	rrf	??___flmul,w
  4730  0384  00B3               	movwf	??___flmul+1
  4731  0385  0833               	movf	??___flmul+1,w
  4732  0386  00C1               	movwf	___flmul@prod+3
  4733  0387                     l727:
  4734  0387  0837               	movf	___flmul@sign,w
  4735  0388  00B2               	movwf	??___flmul
  4736  0389  0832               	movf	??___flmul,w
  4737  038A  04C1               	iorwf	___flmul@prod+3,f
  4738  038B                     l2150:
  4739  038B  0841               	movf	___flmul@prod+3,w
  4740  038C  00AD               	movwf	?___flmul+3
  4741  038D  0840               	movf	___flmul@prod+2,w
  4742  038E  00AC               	movwf	?___flmul+2
  4743  038F  083F               	movf	___flmul@prod+1,w
  4744  0390  00AB               	movwf	?___flmul+1
  4745  0391  083E               	movf	___flmul@prod,w
  4746  0392  00AA               	movwf	?___flmul
  4747  0393                     l715:
  4748  0393  0008               	return
  4749  0394                     __end_of___flmul:
  4750                           
  4751                           	psect	text10
  4752  0B63                     __ptext10:	
  4753 ;; *************** function __Umul8_16 *****************
  4754 ;; Defined at:
  4755 ;;		line 4 in file "C:\Program Files\Microchip\xc8\v2.31\pic\sources\c90\common\Umul8_16.c"
  4756 ;; Parameters:    Size  Location     Type
  4757 ;;  multiplier      1    wreg     unsigned char 
  4758 ;;  multiplicand    1    3[COMMON] unsigned char 
  4759 ;; Auto vars:     Size  Location     Type
  4760 ;;  multiplier      1    4[BANK0 ] unsigned char 
  4761 ;;  word_mpld       2    2[BANK0 ] unsigned int 
  4762 ;;  product         2    0[BANK0 ] unsigned int 
  4763 ;; Return value:  Size  Location     Type
  4764 ;;                  2    3[COMMON] unsigned int 
  4765 ;; Registers used:
  4766 ;;		wreg, status,2, status,0
  4767 ;; Tracked objects:
  4768 ;;		On entry : 0/0
  4769 ;;		On exit  : 0/0
  4770 ;;		Unchanged: 0/0
  4771 ;; Data sizes:     COMMON   BANK0   BANK1   BANK3   BANK2
  4772 ;;      Params:         2       0       0       0       0
  4773 ;;      Locals:         0       5       0       0       0
  4774 ;;      Temps:          2       0       0       0       0
  4775 ;;      Totals:         4       5       0       0       0
  4776 ;;Total ram usage:        9 bytes
  4777 ;; Hardware stack levels used:    1
  4778 ;; Hardware stack levels required when called:    1
  4779 ;; This function calls:
  4780 ;;		Nothing
  4781 ;; This function is called by:
  4782 ;;		___flmul
  4783 ;; This function uses a non-reentrant model
  4784 ;;
  4785                           
  4786                           
  4787                           ;psect for function __Umul8_16
  4788  0B63                     __Umul8_16:
  4789                           
  4790                           ;incstack = 0
  4791                           ; Regs used in __Umul8_16: [wreg+status,2+status,0]
  4792                           ;__Umul8_16@multiplier stored from wreg
  4793  0B63  1283               	bcf	3,5	;RP0=0, select bank0
  4794  0B64  1303               	bcf	3,6	;RP1=0, select bank0
  4795  0B65  00A4               	movwf	__Umul8_16@multiplier
  4796  0B66                     l1924:
  4797  0B66  01A0               	clrf	__Umul8_16@product
  4798  0B67  01A1               	clrf	__Umul8_16@product+1
  4799  0B68                     l1926:
  4800  0B68  0873               	movf	__Umul8_16@multiplicand,w
  4801  0B69  00F5               	movwf	??__Umul8_16
  4802  0B6A  01F6               	clrf	??__Umul8_16+1
  4803  0B6B  0875               	movf	??__Umul8_16,w
  4804  0B6C  00A2               	movwf	__Umul8_16@word_mpld
  4805  0B6D  0876               	movf	??__Umul8_16+1,w
  4806  0B6E  00A3               	movwf	__Umul8_16@word_mpld+1
  4807  0B6F                     l1928:
  4808  0B6F  1C24               	btfss	__Umul8_16@multiplier,0
  4809  0B70  2B72               	goto	u2261
  4810  0B71  2B73               	goto	u2260
  4811  0B72                     u2261:
  4812  0B72  2B79               	goto	l734
  4813  0B73                     u2260:
  4814  0B73                     l1930:
  4815  0B73  0822               	movf	__Umul8_16@word_mpld,w
  4816  0B74  07A0               	addwf	__Umul8_16@product,f
  4817  0B75  1803               	skipnc
  4818  0B76  0AA1               	incf	__Umul8_16@product+1,f
  4819  0B77  0823               	movf	__Umul8_16@word_mpld+1,w
  4820  0B78  07A1               	addwf	__Umul8_16@product+1,f
  4821  0B79                     l734:
  4822  0B79  3001               	movlw	1
  4823  0B7A                     u2275:
  4824  0B7A  1003               	clrc
  4825  0B7B  0DA2               	rlf	__Umul8_16@word_mpld,f
  4826  0B7C  0DA3               	rlf	__Umul8_16@word_mpld+1,f
  4827  0B7D  3EFF               	addlw	-1
  4828  0B7E  1D03               	skipz
  4829  0B7F  2B7A               	goto	u2275
  4830  0B80  1003               	clrc
  4831  0B81  0CA4               	rrf	__Umul8_16@multiplier,f
  4832  0B82                     l1932:
  4833  0B82  0824               	movf	__Umul8_16@multiplier,w
  4834  0B83  1D03               	btfss	3,2
  4835  0B84  2B86               	goto	u2281
  4836  0B85  2B87               	goto	u2280
  4837  0B86                     u2281:
  4838  0B86  2B6F               	goto	l1928
  4839  0B87                     u2280:
  4840  0B87                     l1934:
  4841  0B87  0821               	movf	__Umul8_16@product+1,w
  4842  0B88  00F4               	movwf	?__Umul8_16+1
  4843  0B89  0820               	movf	__Umul8_16@product,w
  4844  0B8A  00F3               	movwf	?__Umul8_16
  4845  0B8B                     l736:
  4846  0B8B  0008               	return
  4847  0B8C                     __end_of__Umul8_16:
  4848                           
  4849                           	psect	text11
  4850  07ED                     __ptext11:	
  4851 ;; *************** function _configUART *****************
  4852 ;; Defined at:
  4853 ;;		line 11 in file "UART.c"
  4854 ;; Parameters:    Size  Location     Type
  4855 ;;		None
  4856 ;; Auto vars:     Size  Location     Type
  4857 ;;		None
  4858 ;; Return value:  Size  Location     Type
  4859 ;;                  1    wreg      void 
  4860 ;; Registers used:
  4861 ;;		wreg
  4862 ;; Tracked objects:
  4863 ;;		On entry : 0/0
  4864 ;;		On exit  : 0/0
  4865 ;;		Unchanged: 0/0
  4866 ;; Data sizes:     COMMON   BANK0   BANK1   BANK3   BANK2
  4867 ;;      Params:         0       0       0       0       0
  4868 ;;      Locals:         0       0       0       0       0
  4869 ;;      Temps:          0       0       0       0       0
  4870 ;;      Totals:         0       0       0       0       0
  4871 ;;Total ram usage:        0 bytes
  4872 ;; Hardware stack levels used:    1
  4873 ;; Hardware stack levels required when called:    1
  4874 ;; This function calls:
  4875 ;;		Nothing
  4876 ;; This function is called by:
  4877 ;;		_main
  4878 ;; This function uses a non-reentrant model
  4879 ;;
  4880                           
  4881                           
  4882                           ;psect for function _configUART
  4883  07ED                     _configUART:
  4884  07ED                     l2224:	
  4885                           ;incstack = 0
  4886                           ; Regs used in _configUART: [wreg]
  4887                           
  4888                           
  4889                           ;UART.c: 13:     TRISCbits.TRISC6 = 0;
  4890  07ED  1683               	bsf	3,5	;RP0=1, select bank1
  4891  07EE  1303               	bcf	3,6	;RP1=0, select bank1
  4892  07EF  1307               	bcf	7,6	;volatile
  4893                           
  4894                           ;UART.c: 14:     TRISCbits.TRISC7 = 1;
  4895  07F0  1787               	bsf	7,7	;volatile
  4896  07F1                     l2226:
  4897                           
  4898                           ;UART.c: 15:     SPBRG = 12;
  4899  07F1  300C               	movlw	12
  4900  07F2  0099               	movwf	25	;volatile
  4901  07F3                     l2228:
  4902                           
  4903                           ;UART.c: 16:     TXSTAbits.BRGH = 0;
  4904  07F3  1118               	bcf	24,2	;volatile
  4905  07F4                     l2230:
  4906                           
  4907                           ;UART.c: 17:     TXSTAbits.TXEN = 1;
  4908  07F4  1698               	bsf	24,5	;volatile
  4909  07F5                     l2232:
  4910                           
  4911                           ;UART.c: 18:     RCSTAbits.CREN = 1;
  4912  07F5  1283               	bcf	3,5	;RP0=0, select bank0
  4913  07F6  1303               	bcf	3,6	;RP1=0, select bank0
  4914  07F7  1618               	bsf	24,4	;volatile
  4915  07F8                     l2234:
  4916                           
  4917                           ;UART.c: 19:     TXSTAbits.SYNC = 0;
  4918  07F8  1683               	bsf	3,5	;RP0=1, select bank1
  4919  07F9  1303               	bcf	3,6	;RP1=0, select bank1
  4920  07FA  1218               	bcf	24,4	;volatile
  4921  07FB                     l2236:
  4922                           
  4923                           ;UART.c: 20:     RCSTAbits.SPEN = 1;
  4924  07FB  1283               	bcf	3,5	;RP0=0, select bank0
  4925  07FC  1303               	bcf	3,6	;RP1=0, select bank0
  4926  07FD  1798               	bsf	24,7	;volatile
  4927  07FE                     l228:
  4928  07FE  0008               	return
  4929  07FF                     __end_of_configUART:
  4930                           
  4931                           	psect	text12
  4932  0C59                     __ptext12:	
  4933 ;; *************** function ___awmod *****************
  4934 ;; Defined at:
  4935 ;;		line 5 in file "C:\Program Files\Microchip\xc8\v2.31\pic\sources\c90\common\awmod.c"
  4936 ;; Parameters:    Size  Location     Type
  4937 ;;  divisor         2    3[COMMON] int 
  4938 ;;  dividend        2    5[COMMON] int 
  4939 ;; Auto vars:     Size  Location     Type
  4940 ;;  sign            1    1[BANK0 ] unsigned char 
  4941 ;;  counter         1    0[BANK0 ] unsigned char 
  4942 ;; Return value:  Size  Location     Type
  4943 ;;                  2    3[COMMON] int 
  4944 ;; Registers used:
  4945 ;;		wreg, status,2, status,0
  4946 ;; Tracked objects:
  4947 ;;		On entry : 0/0
  4948 ;;		On exit  : 0/0
  4949 ;;		Unchanged: 0/0
  4950 ;; Data sizes:     COMMON   BANK0   BANK1   BANK3   BANK2
  4951 ;;      Params:         4       0       0       0       0
  4952 ;;      Locals:         0       2       0       0       0
  4953 ;;      Temps:          1       0       0       0       0
  4954 ;;      Totals:         5       2       0       0       0
  4955 ;;Total ram usage:        7 bytes
  4956 ;; Hardware stack levels used:    1
  4957 ;; Hardware stack levels required when called:    1
  4958 ;; This function calls:
  4959 ;;		Nothing
  4960 ;; This function is called by:
  4961 ;;		_main
  4962 ;; This function uses a non-reentrant model
  4963 ;;
  4964                           
  4965                           
  4966                           ;psect for function ___awmod
  4967  0C59                     ___awmod:
  4968  0C59                     l2790:	
  4969                           ;incstack = 0
  4970                           ; Regs used in ___awmod: [wreg+status,2+status,0]
  4971                           
  4972  0C59  1283               	bcf	3,5	;RP0=0, select bank0
  4973  0C5A  1303               	bcf	3,6	;RP1=0, select bank0
  4974  0C5B  01A1               	clrf	___awmod@sign
  4975  0C5C                     l2792:
  4976  0C5C  1FF6               	btfss	___awmod@dividend+1,7
  4977  0C5D  2C5F               	goto	u3891
  4978  0C5E  2C60               	goto	u3890
  4979  0C5F                     u3891:
  4980  0C5F  2C67               	goto	l2798
  4981  0C60                     u3890:
  4982  0C60                     l2794:
  4983  0C60  09F5               	comf	___awmod@dividend,f
  4984  0C61  09F6               	comf	___awmod@dividend+1,f
  4985  0C62  0AF5               	incf	___awmod@dividend,f
  4986  0C63  1903               	skipnz
  4987  0C64  0AF6               	incf	___awmod@dividend+1,f
  4988  0C65                     l2796:
  4989  0C65  01A1               	clrf	___awmod@sign
  4990  0C66  0AA1               	incf	___awmod@sign,f
  4991  0C67                     l2798:
  4992  0C67  1FF4               	btfss	___awmod@divisor+1,7
  4993  0C68  2C6A               	goto	u3901
  4994  0C69  2C6B               	goto	u3900
  4995  0C6A                     u3901:
  4996  0C6A  2C70               	goto	l2802
  4997  0C6B                     u3900:
  4998  0C6B                     l2800:
  4999  0C6B  09F3               	comf	___awmod@divisor,f
  5000  0C6C  09F4               	comf	___awmod@divisor+1,f
  5001  0C6D  0AF3               	incf	___awmod@divisor,f
  5002  0C6E  1903               	skipnz
  5003  0C6F  0AF4               	incf	___awmod@divisor+1,f
  5004  0C70                     l2802:
  5005  0C70  0873               	movf	___awmod@divisor,w
  5006  0C71  0474               	iorwf	___awmod@divisor+1,w
  5007  0C72  1903               	btfsc	3,2
  5008  0C73  2C75               	goto	u3911
  5009  0C74  2C76               	goto	u3910
  5010  0C75                     u3911:
  5011  0C75  2CA5               	goto	l2820
  5012  0C76                     u3910:
  5013  0C76                     l2804:
  5014  0C76  01A0               	clrf	___awmod@counter
  5015  0C77  0AA0               	incf	___awmod@counter,f
  5016  0C78  2C84               	goto	l2810
  5017  0C79                     l2806:
  5018  0C79  3001               	movlw	1
  5019  0C7A                     u3925:
  5020  0C7A  1003               	clrc
  5021  0C7B  0DF3               	rlf	___awmod@divisor,f
  5022  0C7C  0DF4               	rlf	___awmod@divisor+1,f
  5023  0C7D  3EFF               	addlw	-1
  5024  0C7E  1D03               	skipz
  5025  0C7F  2C7A               	goto	u3925
  5026  0C80                     l2808:
  5027  0C80  3001               	movlw	1
  5028  0C81  00F7               	movwf	??___awmod
  5029  0C82  0877               	movf	??___awmod,w
  5030  0C83  07A0               	addwf	___awmod@counter,f
  5031  0C84                     l2810:
  5032  0C84  1FF4               	btfss	___awmod@divisor+1,7
  5033  0C85  2C87               	goto	u3931
  5034  0C86  2C88               	goto	u3930
  5035  0C87                     u3931:
  5036  0C87  2C79               	goto	l2806
  5037  0C88                     u3930:
  5038  0C88                     l2812:
  5039  0C88  0874               	movf	___awmod@divisor+1,w
  5040  0C89  0276               	subwf	___awmod@dividend+1,w
  5041  0C8A  1D03               	skipz
  5042  0C8B  2C8E               	goto	u3945
  5043  0C8C  0873               	movf	___awmod@divisor,w
  5044  0C8D  0275               	subwf	___awmod@dividend,w
  5045  0C8E                     u3945:
  5046  0C8E  1C03               	skipc
  5047  0C8F  2C91               	goto	u3941
  5048  0C90  2C92               	goto	u3940
  5049  0C91                     u3941:
  5050  0C91  2C98               	goto	l2816
  5051  0C92                     u3940:
  5052  0C92                     l2814:
  5053  0C92  0873               	movf	___awmod@divisor,w
  5054  0C93  02F5               	subwf	___awmod@dividend,f
  5055  0C94  0874               	movf	___awmod@divisor+1,w
  5056  0C95  1C03               	skipc
  5057  0C96  03F6               	decf	___awmod@dividend+1,f
  5058  0C97  02F6               	subwf	___awmod@dividend+1,f
  5059  0C98                     l2816:
  5060  0C98  3001               	movlw	1
  5061  0C99                     u3955:
  5062  0C99  1003               	clrc
  5063  0C9A  0CF4               	rrf	___awmod@divisor+1,f
  5064  0C9B  0CF3               	rrf	___awmod@divisor,f
  5065  0C9C  3EFF               	addlw	-1
  5066  0C9D  1D03               	skipz
  5067  0C9E  2C99               	goto	u3955
  5068  0C9F                     l2818:
  5069  0C9F  3001               	movlw	1
  5070  0CA0  02A0               	subwf	___awmod@counter,f
  5071  0CA1  1D03               	btfss	3,2
  5072  0CA2  2CA4               	goto	u3961
  5073  0CA3  2CA5               	goto	u3960
  5074  0CA4                     u3961:
  5075  0CA4  2C88               	goto	l2812
  5076  0CA5                     u3960:
  5077  0CA5                     l2820:
  5078  0CA5  0821               	movf	___awmod@sign,w
  5079  0CA6  1903               	btfsc	3,2
  5080  0CA7  2CA9               	goto	u3971
  5081  0CA8  2CAA               	goto	u3970
  5082  0CA9                     u3971:
  5083  0CA9  2CAF               	goto	l2824
  5084  0CAA                     u3970:
  5085  0CAA                     l2822:
  5086  0CAA  09F5               	comf	___awmod@dividend,f
  5087  0CAB  09F6               	comf	___awmod@dividend+1,f
  5088  0CAC  0AF5               	incf	___awmod@dividend,f
  5089  0CAD  1903               	skipnz
  5090  0CAE  0AF6               	incf	___awmod@dividend+1,f
  5091  0CAF                     l2824:
  5092  0CAF  0876               	movf	___awmod@dividend+1,w
  5093  0CB0  00F4               	movwf	?___awmod+1
  5094  0CB1  0875               	movf	___awmod@dividend,w
  5095  0CB2  00F3               	movwf	?___awmod
  5096  0CB3                     l492:
  5097  0CB3  0008               	return
  5098  0CB4                     __end_of___awmod:
  5099                           
  5100                           	psect	text13
  5101  0ABB                     __ptext13:	
  5102 ;; *************** function _MasterStop_I2C *****************
  5103 ;; Defined at:
  5104 ;;		line 34 in file "I2C.c"
  5105 ;; Parameters:    Size  Location     Type
  5106 ;;		None
  5107 ;; Auto vars:     Size  Location     Type
  5108 ;;		None
  5109 ;; Return value:  Size  Location     Type
  5110 ;;                  1    wreg      void 
  5111 ;; Registers used:
  5112 ;;		wreg, status,2, status,0, pclath, cstack
  5113 ;; Tracked objects:
  5114 ;;		On entry : 0/0
  5115 ;;		On exit  : 0/0
  5116 ;;		Unchanged: 0/0
  5117 ;; Data sizes:     COMMON   BANK0   BANK1   BANK3   BANK2
  5118 ;;      Params:         0       0       0       0       0
  5119 ;;      Locals:         0       0       0       0       0
  5120 ;;      Temps:          0       0       0       0       0
  5121 ;;      Totals:         0       0       0       0       0
  5122 ;;Total ram usage:        0 bytes
  5123 ;; Hardware stack levels used:    1
  5124 ;; Hardware stack levels required when called:    2
  5125 ;; This function calls:
  5126 ;;		_waitCondition
  5127 ;; This function is called by:
  5128 ;;		_main
  5129 ;; This function uses a non-reentrant model
  5130 ;;
  5131                           
  5132                           
  5133                           ;psect for function _MasterStop_I2C
  5134  0ABB                     _MasterStop_I2C:
  5135  0ABB                     l2246:	
  5136                           ;incstack = 0
  5137                           ; Regs used in _MasterStop_I2C: [wreg+status,2+status,0+pclath+cstack]
  5138                           
  5139                           
  5140                           ;I2C.c: 35:     waitCondition();
  5141  0ABB  120A  158A  22CF  120A  158A  	fcall	_waitCondition
  5142  0AC0                     l2248:
  5143                           
  5144                           ;I2C.c: 36:     SSPCON2bits.PEN = 1;
  5145  0AC0  1683               	bsf	3,5	;RP0=1, select bank1
  5146  0AC1  1303               	bcf	3,6	;RP1=0, select bank1
  5147  0AC2  1511               	bsf	17,2	;volatile
  5148  0AC3                     l159:
  5149  0AC3  0008               	return
  5150  0AC4                     __end_of_MasterStop_I2C:
  5151                           
  5152                           	psect	text14
  5153  0AB2                     __ptext14:	
  5154 ;; *************** function _MasterStart_I2C *****************
  5155 ;; Defined at:
  5156 ;;		line 29 in file "I2C.c"
  5157 ;; Parameters:    Size  Location     Type
  5158 ;;		None
  5159 ;; Auto vars:     Size  Location     Type
  5160 ;;		None
  5161 ;; Return value:  Size  Location     Type
  5162 ;;                  1    wreg      void 
  5163 ;; Registers used:
  5164 ;;		wreg, status,2, status,0, pclath, cstack
  5165 ;; Tracked objects:
  5166 ;;		On entry : 0/0
  5167 ;;		On exit  : 0/0
  5168 ;;		Unchanged: 0/0
  5169 ;; Data sizes:     COMMON   BANK0   BANK1   BANK3   BANK2
  5170 ;;      Params:         0       0       0       0       0
  5171 ;;      Locals:         0       0       0       0       0
  5172 ;;      Temps:          0       0       0       0       0
  5173 ;;      Totals:         0       0       0       0       0
  5174 ;;Total ram usage:        0 bytes
  5175 ;; Hardware stack levels used:    1
  5176 ;; Hardware stack levels required when called:    2
  5177 ;; This function calls:
  5178 ;;		_waitCondition
  5179 ;; This function is called by:
  5180 ;;		_main
  5181 ;; This function uses a non-reentrant model
  5182 ;;
  5183                           
  5184                           
  5185                           ;psect for function _MasterStart_I2C
  5186  0AB2                     _MasterStart_I2C:
  5187  0AB2                     l2238:	
  5188                           ;incstack = 0
  5189                           ; Regs used in _MasterStart_I2C: [wreg+status,2+status,0+pclath+cstack]
  5190                           
  5191                           
  5192                           ;I2C.c: 30:     waitCondition();
  5193  0AB2  120A  158A  22CF  120A  158A  	fcall	_waitCondition
  5194  0AB7                     l2240:
  5195                           
  5196                           ;I2C.c: 31:     SSPCON2bits.SEN = 1;
  5197  0AB7  1683               	bsf	3,5	;RP0=1, select bank1
  5198  0AB8  1303               	bcf	3,6	;RP1=0, select bank1
  5199  0AB9  1411               	bsf	17,0	;volatile
  5200  0ABA                     l156:
  5201  0ABA  0008               	return
  5202  0ABB                     __end_of_MasterStart_I2C:
  5203                           
  5204                           	psect	text15
  5205  0AC4                     __ptext15:	
  5206 ;; *************** function _MasterSend_I2C *****************
  5207 ;; Defined at:
  5208 ;;		line 44 in file "I2C.c"
  5209 ;; Parameters:    Size  Location     Type
  5210 ;;  dato            1    wreg     unsigned char 
  5211 ;; Auto vars:     Size  Location     Type
  5212 ;;  dato            1    3[COMMON] unsigned char 
  5213 ;; Return value:  Size  Location     Type
  5214 ;;                  1    wreg      void 
  5215 ;; Registers used:
  5216 ;;		wreg, status,2, status,0, pclath, cstack
  5217 ;; Tracked objects:
  5218 ;;		On entry : 0/0
  5219 ;;		On exit  : 0/0
  5220 ;;		Unchanged: 0/0
  5221 ;; Data sizes:     COMMON   BANK0   BANK1   BANK3   BANK2
  5222 ;;      Params:         0       0       0       0       0
  5223 ;;      Locals:         1       0       0       0       0
  5224 ;;      Temps:          0       0       0       0       0
  5225 ;;      Totals:         1       0       0       0       0
  5226 ;;Total ram usage:        1 bytes
  5227 ;; Hardware stack levels used:    1
  5228 ;; Hardware stack levels required when called:    2
  5229 ;; This function calls:
  5230 ;;		_waitCondition
  5231 ;; This function is called by:
  5232 ;;		_main
  5233 ;; This function uses a non-reentrant model
  5234 ;;
  5235                           
  5236                           
  5237                           ;psect for function _MasterSend_I2C
  5238  0AC4                     _MasterSend_I2C:
  5239                           
  5240                           ;incstack = 0
  5241                           ; Regs used in _MasterSend_I2C: [wreg+status,2+status,0+pclath+cstack]
  5242                           ;MasterSend_I2C@dato stored from wreg
  5243  0AC4  00F3               	movwf	MasterSend_I2C@dato
  5244  0AC5                     l2242:
  5245                           
  5246                           ;I2C.c: 45:     waitCondition();
  5247  0AC5  120A  158A  22CF  120A  158A  	fcall	_waitCondition
  5248  0ACA                     l2244:
  5249                           
  5250                           ;I2C.c: 46:     SSPBUF = dato;
  5251  0ACA  0873               	movf	MasterSend_I2C@dato,w
  5252  0ACB  1283               	bcf	3,5	;RP0=0, select bank0
  5253  0ACC  1303               	bcf	3,6	;RP1=0, select bank0
  5254  0ACD  0093               	movwf	19	;volatile
  5255  0ACE                     l165:
  5256  0ACE  0008               	return
  5257  0ACF                     __end_of_MasterSend_I2C:
  5258                           
  5259                           	psect	text16
  5260  0AA9                     __ptext16:	
  5261 ;; *************** function _MasterRepeatS_I2C *****************
  5262 ;; Defined at:
  5263 ;;		line 39 in file "I2C.c"
  5264 ;; Parameters:    Size  Location     Type
  5265 ;;		None
  5266 ;; Auto vars:     Size  Location     Type
  5267 ;;		None
  5268 ;; Return value:  Size  Location     Type
  5269 ;;                  1    wreg      void 
  5270 ;; Registers used:
  5271 ;;		wreg, status,2, status,0, pclath, cstack
  5272 ;; Tracked objects:
  5273 ;;		On entry : 0/0
  5274 ;;		On exit  : 0/0
  5275 ;;		Unchanged: 0/0
  5276 ;; Data sizes:     COMMON   BANK0   BANK1   BANK3   BANK2
  5277 ;;      Params:         0       0       0       0       0
  5278 ;;      Locals:         0       0       0       0       0
  5279 ;;      Temps:          0       0       0       0       0
  5280 ;;      Totals:         0       0       0       0       0
  5281 ;;Total ram usage:        0 bytes
  5282 ;; Hardware stack levels used:    1
  5283 ;; Hardware stack levels required when called:    2
  5284 ;; This function calls:
  5285 ;;		_waitCondition
  5286 ;; This function is called by:
  5287 ;;		_main
  5288 ;; This function uses a non-reentrant model
  5289 ;;
  5290                           
  5291                           
  5292                           ;psect for function _MasterRepeatS_I2C
  5293  0AA9                     _MasterRepeatS_I2C:
  5294  0AA9                     l2250:	
  5295                           ;incstack = 0
  5296                           ; Regs used in _MasterRepeatS_I2C: [wreg+status,2+status,0+pclath+cstack]
  5297                           
  5298                           
  5299                           ;I2C.c: 40:     waitCondition();
  5300  0AA9  120A  158A  22CF  120A  158A  	fcall	_waitCondition
  5301  0AAE                     l2252:
  5302                           
  5303                           ;I2C.c: 41:     SSPCON2bits.RSEN = 1;
  5304  0AAE  1683               	bsf	3,5	;RP0=1, select bank1
  5305  0AAF  1303               	bcf	3,6	;RP1=0, select bank1
  5306  0AB0  1491               	bsf	17,1	;volatile
  5307  0AB1                     l162:
  5308  0AB1  0008               	return
  5309  0AB2                     __end_of_MasterRepeatS_I2C:
  5310                           
  5311                           	psect	text17
  5312  0B1E                     __ptext17:	
  5313 ;; *************** function _MasterReceive_I2C *****************
  5314 ;; Defined at:
  5315 ;;		line 49 in file "I2C.c"
  5316 ;; Parameters:    Size  Location     Type
  5317 ;;  valor           1    wreg     PTR unsigned char 
  5318 ;;		 -> TempDEC(1), TempENT(1), 
  5319 ;; Auto vars:     Size  Location     Type
  5320 ;;  valor           1    4[COMMON] PTR unsigned char 
  5321 ;;		 -> TempDEC(1), TempENT(1), 
  5322 ;; Return value:  Size  Location     Type
  5323 ;;                  1    wreg      void 
  5324 ;; Registers used:
  5325 ;;		wreg, fsr0l, fsr0h, status,2, status,0, pclath, cstack
  5326 ;; Tracked objects:
  5327 ;;		On entry : 0/0
  5328 ;;		On exit  : 0/0
  5329 ;;		Unchanged: 0/0
  5330 ;; Data sizes:     COMMON   BANK0   BANK1   BANK3   BANK2
  5331 ;;      Params:         0       0       0       0       0
  5332 ;;      Locals:         1       0       0       0       0
  5333 ;;      Temps:          1       0       0       0       0
  5334 ;;      Totals:         2       0       0       0       0
  5335 ;;Total ram usage:        2 bytes
  5336 ;; Hardware stack levels used:    1
  5337 ;; Hardware stack levels required when called:    2
  5338 ;; This function calls:
  5339 ;;		_waitCondition
  5340 ;; This function is called by:
  5341 ;;		_main
  5342 ;; This function uses a non-reentrant model
  5343 ;;
  5344                           
  5345                           
  5346                           ;psect for function _MasterReceive_I2C
  5347  0B1E                     _MasterReceive_I2C:
  5348                           
  5349                           ;incstack = 0
  5350                           ; Regs used in _MasterReceive_I2C: [wreg-fsr0h+status,2+status,0+pclath+cstack]
  5351                           ;MasterReceive_I2C@valor stored from wreg
  5352  0B1E  00F4               	movwf	MasterReceive_I2C@valor
  5353  0B1F                     l2254:
  5354                           
  5355                           ;I2C.c: 50:     waitCondition();
  5356  0B1F  120A  158A  22CF  120A  158A  	fcall	_waitCondition
  5357  0B24                     l2256:
  5358                           
  5359                           ;I2C.c: 51:     SSPCON2bits.RCEN = 1;
  5360  0B24  1683               	bsf	3,5	;RP0=1, select bank1
  5361  0B25  1303               	bcf	3,6	;RP1=0, select bank1
  5362  0B26  1591               	bsf	17,3	;volatile
  5363                           
  5364                           ;I2C.c: 52:     waitCondition();
  5365  0B27  120A  158A  22CF  120A  158A  	fcall	_waitCondition
  5366  0B2C                     l2258:
  5367                           
  5368                           ;I2C.c: 53:     *valor = SSPBUF;
  5369  0B2C  1283               	bcf	3,5	;RP0=0, select bank0
  5370  0B2D  1303               	bcf	3,6	;RP1=0, select bank0
  5371  0B2E  0813               	movf	19,w	;volatile
  5372  0B2F  00F3               	movwf	??_MasterReceive_I2C
  5373  0B30  0874               	movf	MasterReceive_I2C@valor,w
  5374  0B31  0084               	movwf	4
  5375  0B32  0873               	movf	??_MasterReceive_I2C,w
  5376  0B33  1383               	bcf	3,7	;select IRP bank0
  5377  0B34  0080               	movwf	0
  5378  0B35                     l2260:
  5379                           
  5380                           ;I2C.c: 54:     waitCondition();
  5381  0B35  120A  158A  22CF  120A  158A  	fcall	_waitCondition
  5382  0B3A                     l2262:
  5383                           
  5384                           ;I2C.c: 55:     SSPCON2bits.ACKDT = 0;
  5385  0B3A  1683               	bsf	3,5	;RP0=1, select bank1
  5386  0B3B  1303               	bcf	3,6	;RP1=0, select bank1
  5387  0B3C  1291               	bcf	17,5	;volatile
  5388  0B3D                     l2264:
  5389                           
  5390                           ;I2C.c: 56:     SSPCON2bits.ACKEN = 1;
  5391  0B3D  1611               	bsf	17,4	;volatile
  5392  0B3E                     l168:
  5393  0B3E  0008               	return
  5394  0B3F                     __end_of_MasterReceive_I2C:
  5395                           
  5396                           	psect	text18
  5397  0ACF                     __ptext18:	
  5398 ;; *************** function _waitCondition *****************
  5399 ;; Defined at:
  5400 ;;		line 23 in file "I2C.c"
  5401 ;; Parameters:    Size  Location     Type
  5402 ;;		None
  5403 ;; Auto vars:     Size  Location     Type
  5404 ;;		None
  5405 ;; Return value:  Size  Location     Type
  5406 ;;                  1    wreg      void 
  5407 ;; Registers used:
  5408 ;;		wreg, status,2
  5409 ;; Tracked objects:
  5410 ;;		On entry : 0/0
  5411 ;;		On exit  : 0/0
  5412 ;;		Unchanged: 0/0
  5413 ;; Data sizes:     COMMON   BANK0   BANK1   BANK3   BANK2
  5414 ;;      Params:         0       0       0       0       0
  5415 ;;      Locals:         0       0       0       0       0
  5416 ;;      Temps:          0       0       0       0       0
  5417 ;;      Totals:         0       0       0       0       0
  5418 ;;Total ram usage:        0 bytes
  5419 ;; Hardware stack levels used:    1
  5420 ;; Hardware stack levels required when called:    1
  5421 ;; This function calls:
  5422 ;;		Nothing
  5423 ;; This function is called by:
  5424 ;;		_MasterStart_I2C
  5425 ;;		_MasterStop_I2C
  5426 ;;		_MasterRepeatS_I2C
  5427 ;;		_MasterSend_I2C
  5428 ;;		_MasterReceive_I2C
  5429 ;; This function uses a non-reentrant model
  5430 ;;
  5431                           
  5432                           
  5433                           ;psect for function _waitCondition
  5434  0ACF                     _waitCondition:
  5435  0ACF                     l1968:	
  5436                           ;incstack = 0
  5437                           ; Regs used in _waitCondition: [wreg+status,2]
  5438                           
  5439  0ACF                     l150:	
  5440                           ;I2C.c: 24:     while ((SSPSTAT & 0x04) || (SSPCON2 & 0x1F));
  5441                           
  5442  0ACF  1683               	bsf	3,5	;RP0=1, select bank1
  5443  0AD0  1303               	bcf	3,6	;RP1=0, select bank1
  5444  0AD1  1914               	btfsc	20,2	;volatile
  5445  0AD2  2AD4               	goto	u2321
  5446  0AD3  2AD5               	goto	u2320
  5447  0AD4                     u2321:
  5448  0AD4  2ACF               	goto	l150
  5449  0AD5                     u2320:
  5450  0AD5                     l1970:
  5451  0AD5  0811               	movf	17,w	;volatile
  5452  0AD6  391F               	andlw	31
  5453  0AD7  1D03               	btfss	3,2
  5454  0AD8  2ADA               	goto	u2331
  5455  0AD9  2ADB               	goto	u2330
  5456  0ADA                     u2331:
  5457  0ADA  2ACF               	goto	l150
  5458  0ADB                     u2330:
  5459  0ADB                     l153:
  5460  0ADB  0008               	return
  5461  0ADC                     __end_of_waitCondition:
  5462                           
  5463                           	psect	text19
  5464  0B03                     __ptext19:	
  5465 ;; *************** function _DHT11_START *****************
  5466 ;; Defined at:
  5467 ;;		line 11 in file "DHT11.c"
  5468 ;; Parameters:    Size  Location     Type
  5469 ;;		None
  5470 ;; Auto vars:     Size  Location     Type
  5471 ;;		None
  5472 ;; Return value:  Size  Location     Type
  5473 ;;                  1    wreg      void 
  5474 ;; Registers used:
  5475 ;;		wreg
  5476 ;; Tracked objects:
  5477 ;;		On entry : 0/0
  5478 ;;		On exit  : 0/0
  5479 ;;		Unchanged: 0/0
  5480 ;; Data sizes:     COMMON   BANK0   BANK1   BANK3   BANK2
  5481 ;;      Params:         0       0       0       0       0
  5482 ;;      Locals:         0       0       0       0       0
  5483 ;;      Temps:          2       0       0       0       0
  5484 ;;      Totals:         2       0       0       0       0
  5485 ;;Total ram usage:        2 bytes
  5486 ;; Hardware stack levels used:    1
  5487 ;; Hardware stack levels required when called:    1
  5488 ;; This function calls:
  5489 ;;		Nothing
  5490 ;; This function is called by:
  5491 ;;		_main
  5492 ;; This function uses a non-reentrant model
  5493 ;;
  5494                           
  5495                           
  5496                           ;psect for function _DHT11_START
  5497  0B03                     _DHT11_START:
  5498  0B03                     l2288:	
  5499                           ;incstack = 0
  5500                           ; Regs used in _DHT11_START: [wreg]
  5501                           
  5502                           
  5503                           ;DHT11.c: 15:     TRISEbits.TRISE0 = 0;
  5504  0B03  1683               	bsf	3,5	;RP0=1, select bank1
  5505  0B04  1303               	bcf	3,6	;RP1=0, select bank1
  5506  0B05  1009               	bcf	9,0	;volatile
  5507                           
  5508                           ;DHT11.c: 16:     RE0 = 0;
  5509  0B06  1283               	bcf	3,5	;RP0=0, select bank0
  5510  0B07  1303               	bcf	3,6	;RP1=0, select bank0
  5511  0B08  1009               	bcf	9,0	;volatile
  5512  0B09                     l2290:
  5513                           
  5514                           ;DHT11.c: 17:     _delay((unsigned long)((25)*(8000000/4000.0)));
  5515  0B09  3041               	movlw	65
  5516  0B0A  00F4               	movwf	??_DHT11_START+1
  5517  0B0B  30EE               	movlw	238
  5518  0B0C  00F3               	movwf	??_DHT11_START
  5519  0B0D                     u4027:
  5520  0B0D  0BF3               	decfsz	??_DHT11_START,f
  5521  0B0E  2B0D               	goto	u4027
  5522  0B0F  0BF4               	decfsz	??_DHT11_START+1,f
  5523  0B10  2B0D               	goto	u4027
  5524  0B11  0000               	nop
  5525  0B12                     l2292:
  5526                           
  5527                           ;DHT11.c: 18:     RE0 = 1;
  5528  0B12  1283               	bcf	3,5	;RP0=0, select bank0
  5529  0B13  1303               	bcf	3,6	;RP1=0, select bank0
  5530  0B14  1409               	bsf	9,0	;volatile
  5531                           
  5532                           ;DHT11.c: 19:     _delay((unsigned long)((25)*(8000000/4000000.0)));
  5533  0B15  3010               	movlw	16
  5534  0B16  00F3               	movwf	??_DHT11_START
  5535  0B17                     u4037:
  5536  0B17  0BF3               	decfsz	??_DHT11_START,f
  5537  0B18  2B17               	goto	u4037
  5538  0B19  0000               	nop
  5539  0B1A                     l2294:
  5540                           
  5541                           ;DHT11.c: 20:     TRISEbits.TRISE0 = 1;
  5542  0B1A  1683               	bsf	3,5	;RP0=1, select bank1
  5543  0B1B  1303               	bcf	3,6	;RP1=0, select bank1
  5544  0B1C  1409               	bsf	9,0	;volatile
  5545  0B1D                     l186:
  5546  0B1D  0008               	return
  5547  0B1E                     __end_of_DHT11_START:
  5548                           
  5549                           	psect	text20
  5550  0BE9                     __ptext20:	
  5551 ;; *************** function _DHT11_ReadData *****************
  5552 ;; Defined at:
  5553 ;;		line 45 in file "DHT11.c"
  5554 ;; Parameters:    Size  Location     Type
  5555 ;;  datos           1    wreg     PTR unsigned char 
  5556 ;;		 -> CHECKSUM(1), dummyT1(1), Temp1(1), dummyHum1(1), 
  5557 ;;		 -> Hum1(1), 
  5558 ;; Auto vars:     Size  Location     Type
  5559 ;;  datos           1    6[COMMON] PTR unsigned char 
  5560 ;;		 -> CHECKSUM(1), dummyT1(1), Temp1(1), dummyHum1(1), 
  5561 ;;		 -> Hum1(1), 
  5562 ;;  i               1    5[COMMON] unsigned char 
  5563 ;; Return value:  Size  Location     Type
  5564 ;;                  1    wreg      void 
  5565 ;; Registers used:
  5566 ;;		wreg, fsr0l, fsr0h, status,2, status,0
  5567 ;; Tracked objects:
  5568 ;;		On entry : 0/0
  5569 ;;		On exit  : 0/0
  5570 ;;		Unchanged: 0/0
  5571 ;; Data sizes:     COMMON   BANK0   BANK1   BANK3   BANK2
  5572 ;;      Params:         0       0       0       0       0
  5573 ;;      Locals:         2       0       0       0       0
  5574 ;;      Temps:          2       0       0       0       0
  5575 ;;      Totals:         4       0       0       0       0
  5576 ;;Total ram usage:        4 bytes
  5577 ;; Hardware stack levels used:    1
  5578 ;; Hardware stack levels required when called:    1
  5579 ;; This function calls:
  5580 ;;		Nothing
  5581 ;; This function is called by:
  5582 ;;		_main
  5583 ;; This function uses a non-reentrant model
  5584 ;;
  5585                           
  5586                           
  5587                           ;psect for function _DHT11_ReadData
  5588  0BE9                     _DHT11_ReadData:
  5589                           
  5590                           ;incstack = 0
  5591                           ; Regs used in _DHT11_ReadData: [wreg-fsr0h+status,2+status,0]
  5592                           ;DHT11_ReadData@datos stored from wreg
  5593  0BE9  00F6               	movwf	DHT11_ReadData@datos
  5594  0BEA                     l2326:
  5595                           
  5596                           ;DHT11.c: 46:     uint8_t i;;DHT11.c: 47:     *datos = 0;
  5597  0BEA  0876               	movf	DHT11_ReadData@datos,w
  5598  0BEB  0084               	movwf	4
  5599  0BEC  1383               	bcf	3,7	;select IRP bank0
  5600  0BED  0180               	clrf	0
  5601  0BEE                     l2328:
  5602                           
  5603                           ;DHT11.c: 48:     for(i=0; i<8; i++){
  5604  0BEE  01F5               	clrf	DHT11_ReadData@i
  5605  0BEF                     l208:
  5606  0BEF  1283               	bcf	3,5	;RP0=0, select bank0
  5607  0BF0  1303               	bcf	3,6	;RP1=0, select bank0
  5608  0BF1  1C09               	btfss	9,0	;volatile
  5609  0BF2  2BF4               	goto	u3011
  5610  0BF3  2BF5               	goto	u3010
  5611  0BF4                     u3011:
  5612  0BF4  2BEF               	goto	l208
  5613  0BF5                     u3010:
  5614  0BF5                     l2334:
  5615                           
  5616                           ;DHT11.c: 50:         TMR1H = 0;
  5617  0BF5  018F               	clrf	15	;volatile
  5618                           
  5619                           ;DHT11.c: 51:         TMR1L = 0;
  5620  0BF6  018E               	clrf	14	;volatile
  5621  0BF7                     l211:	
  5622                           ;DHT11.c: 52:         while(RE0);
  5623                           
  5624  0BF7  1809               	btfsc	9,0	;volatile
  5625  0BF8  2BFA               	goto	u3021
  5626  0BF9  2BFB               	goto	u3020
  5627  0BFA                     u3021:
  5628  0BFA  2BF7               	goto	l211
  5629  0BFB                     u3020:
  5630  0BFB                     l2336:
  5631                           
  5632                           ;DHT11.c: 53:         if(TMR1L > 50)*datos |= (1 << (7-i));
  5633  0BFB  3033               	movlw	51
  5634  0BFC  020E               	subwf	14,w	;volatile
  5635  0BFD  1C03               	skipc
  5636  0BFE  2C00               	goto	u3031
  5637  0BFF  2C01               	goto	u3030
  5638  0C00                     u3031:
  5639  0C00  2C13               	goto	l2340
  5640  0C01                     u3030:
  5641  0C01                     l2338:
  5642  0C01  3001               	movlw	1
  5643  0C02  00F3               	movwf	??_DHT11_ReadData
  5644  0C03  0875               	movf	DHT11_ReadData@i,w
  5645  0C04  3C07               	sublw	7
  5646  0C05  3E01               	addlw	1
  5647  0C06  2C09               	goto	u3044
  5648  0C07                     u3045:
  5649  0C07  1003               	clrc
  5650  0C08  0DF3               	rlf	??_DHT11_ReadData,f
  5651  0C09                     u3044:
  5652  0C09  3EFF               	addlw	-1
  5653  0C0A  1D03               	skipz
  5654  0C0B  2C07               	goto	u3045
  5655  0C0C  0873               	movf	??_DHT11_ReadData,w
  5656  0C0D  00F4               	movwf	??_DHT11_ReadData+1
  5657  0C0E  0876               	movf	DHT11_ReadData@datos,w
  5658  0C0F  0084               	movwf	4
  5659  0C10  0874               	movf	??_DHT11_ReadData+1,w
  5660  0C11  1383               	bcf	3,7	;select IRP bank0
  5661  0C12  0480               	iorwf	0,f
  5662  0C13                     l2340:
  5663                           
  5664                           ;DHT11.c: 56:     }
  5665  0C13  3001               	movlw	1
  5666  0C14  00F3               	movwf	??_DHT11_ReadData
  5667  0C15  0873               	movf	??_DHT11_ReadData,w
  5668  0C16  07F5               	addwf	DHT11_ReadData@i,f
  5669  0C17                     l2342:
  5670  0C17  3008               	movlw	8
  5671  0C18  0275               	subwf	DHT11_ReadData@i,w
  5672  0C19  1C03               	skipc
  5673  0C1A  2C1C               	goto	u3051
  5674  0C1B  2C1D               	goto	u3050
  5675  0C1C                     u3051:
  5676  0C1C  2BEF               	goto	l208
  5677  0C1D                     u3050:
  5678  0C1D                     l215:
  5679  0C1D  0008               	return
  5680  0C1E                     __end_of_DHT11_ReadData:
  5681                           
  5682                           	psect	text21
  5683  0B8C                     __ptext21:	
  5684 ;; *************** function _DHT11_ALIVE *****************
  5685 ;; Defined at:
  5686 ;;		line 24 in file "DHT11.c"
  5687 ;; Parameters:    Size  Location     Type
  5688 ;;		None
  5689 ;; Auto vars:     Size  Location     Type
  5690 ;;		None
  5691 ;; Return value:  Size  Location     Type
  5692 ;;                  1    wreg      unsigned char 
  5693 ;; Registers used:
  5694 ;;		wreg, status,2
  5695 ;; Tracked objects:
  5696 ;;		On entry : 0/0
  5697 ;;		On exit  : 0/0
  5698 ;;		Unchanged: 0/0
  5699 ;; Data sizes:     COMMON   BANK0   BANK1   BANK3   BANK2
  5700 ;;      Params:         0       0       0       0       0
  5701 ;;      Locals:         0       0       0       0       0
  5702 ;;      Temps:          0       0       0       0       0
  5703 ;;      Totals:         0       0       0       0       0
  5704 ;;Total ram usage:        0 bytes
  5705 ;; Hardware stack levels used:    1
  5706 ;; Hardware stack levels required when called:    1
  5707 ;; This function calls:
  5708 ;;		Nothing
  5709 ;; This function is called by:
  5710 ;;		_main
  5711 ;; This function uses a non-reentrant model
  5712 ;;
  5713                           
  5714                           
  5715                           ;psect for function _DHT11_ALIVE
  5716  0B8C                     _DHT11_ALIVE:
  5717  0B8C                     l2296:	
  5718                           ;incstack = 0
  5719                           ; Regs used in _DHT11_ALIVE: [wreg+status,2]
  5720                           
  5721                           
  5722                           ;DHT11.c: 29:     TMR1H = 0;
  5723  0B8C  1283               	bcf	3,5	;RP0=0, select bank0
  5724  0B8D  1303               	bcf	3,6	;RP1=0, select bank0
  5725  0B8E  018F               	clrf	15	;volatile
  5726                           
  5727                           ;DHT11.c: 30:     TMR1L = 0;
  5728  0B8F  018E               	clrf	14	;volatile
  5729  0B90                     l2298:
  5730                           
  5731                           ;DHT11.c: 31:     T1CONbits.TMR1ON = 1;
  5732  0B90  1410               	bsf	16,0	;volatile
  5733  0B91                     l189:	
  5734                           ;DHT11.c: 32:     while(!RE0 && TMR1L < 100);
  5735                           
  5736  0B91  1809               	btfsc	9,0	;volatile
  5737  0B92  2B94               	goto	u2951
  5738  0B93  2B95               	goto	u2950
  5739  0B94                     u2951:
  5740  0B94  2B9B               	goto	l2302
  5741  0B95                     u2950:
  5742  0B95                     l2300:
  5743  0B95  3064               	movlw	100
  5744  0B96  020E               	subwf	14,w	;volatile
  5745  0B97  1C03               	skipc
  5746  0B98  2B9A               	goto	u2961
  5747  0B99  2B9B               	goto	u2960
  5748  0B9A                     u2961:
  5749  0B9A  2B91               	goto	l189
  5750  0B9B                     u2960:
  5751  0B9B                     l2302:
  5752                           
  5753                           ;DHT11.c: 34:     if(TMR1L > 99)return 0;
  5754  0B9B  3064               	movlw	100
  5755  0B9C  020E               	subwf	14,w	;volatile
  5756  0B9D  1C03               	skipc
  5757  0B9E  2BA0               	goto	u2971
  5758  0B9F  2BA1               	goto	u2970
  5759  0BA0                     u2971:
  5760  0BA0  2BA3               	goto	l2310
  5761  0BA1                     u2970:
  5762  0BA1                     l2304:
  5763  0BA1  3000               	movlw	0
  5764  0BA2  2BB7               	goto	l195
  5765  0BA3                     l2310:
  5766                           
  5767                           ;DHT11.c: 36:         TMR1H = 0;
  5768  0BA3  018F               	clrf	15	;volatile
  5769                           
  5770                           ;DHT11.c: 37:         TMR1L = 0;
  5771  0BA4  018E               	clrf	14	;volatile
  5772  0BA5                     l197:	
  5773                           ;DHT11.c: 38:         while(RE0 && TMR1L < 100);
  5774                           
  5775  0BA5  1C09               	btfss	9,0	;volatile
  5776  0BA6  2BA8               	goto	u2981
  5777  0BA7  2BA9               	goto	u2980
  5778  0BA8                     u2981:
  5779  0BA8  2BAF               	goto	l2314
  5780  0BA9                     u2980:
  5781  0BA9                     l2312:
  5782  0BA9  3064               	movlw	100
  5783  0BAA  020E               	subwf	14,w	;volatile
  5784  0BAB  1C03               	skipc
  5785  0BAC  2BAE               	goto	u2991
  5786  0BAD  2BAF               	goto	u2990
  5787  0BAE                     u2991:
  5788  0BAE  2BA5               	goto	l197
  5789  0BAF                     u2990:
  5790  0BAF                     l2314:
  5791                           
  5792                           ;DHT11.c: 40:         if(TMR1L > 99) return 0;
  5793  0BAF  3064               	movlw	100
  5794  0BB0  020E               	subwf	14,w	;volatile
  5795  0BB1  1C03               	skipc
  5796  0BB2  2BB4               	goto	u3001
  5797  0BB3  2BB5               	goto	u3000
  5798  0BB4                     u3001:
  5799  0BB4  2BB6               	goto	l2322
  5800  0BB5                     u3000:
  5801  0BB5  2BA1               	goto	l2304
  5802  0BB6                     l2322:
  5803  0BB6  3001               	movlw	1
  5804  0BB7                     l195:
  5805  0BB7  0008               	return
  5806  0BB8                     __end_of_DHT11_ALIVE:
  5807                           
  5808                           	psect	text22
  5809  0BB8                     __ptext22:	
  5810 ;; *************** function _CONFIG *****************
  5811 ;; Defined at:
  5812 ;;		line 164 in file "main.c"
  5813 ;; Parameters:    Size  Location     Type
  5814 ;;		None
  5815 ;; Auto vars:     Size  Location     Type
  5816 ;;		None
  5817 ;; Return value:  Size  Location     Type
  5818 ;;                  1    wreg      void 
  5819 ;; Registers used:
  5820 ;;		wreg, status,2, status,0, pclath, cstack
  5821 ;; Tracked objects:
  5822 ;;		On entry : 0/0
  5823 ;;		On exit  : 0/0
  5824 ;;		Unchanged: 0/0
  5825 ;; Data sizes:     COMMON   BANK0   BANK1   BANK3   BANK2
  5826 ;;      Params:         0       0       0       0       0
  5827 ;;      Locals:         0       0       0       0       0
  5828 ;;      Temps:          0       0       0       0       0
  5829 ;;      Totals:         0       0       0       0       0
  5830 ;;Total ram usage:        0 bytes
  5831 ;; Hardware stack levels used:    1
  5832 ;; Hardware stack levels required when called:    3
  5833 ;; This function calls:
  5834 ;;		_MasterInit_I2C
  5835 ;; This function is called by:
  5836 ;;		_main
  5837 ;; This function uses a non-reentrant model
  5838 ;;
  5839                           
  5840                           
  5841                           ;psect for function _CONFIG
  5842  0BB8                     _CONFIG:
  5843  0BB8                     l2742:	
  5844                           ;incstack = 0
  5845                           ; Regs used in _CONFIG: [wreg+status,2+status,0+pclath+cstack]
  5846                           
  5847                           
  5848                           ;main.c: 165:     ANSEL = 0X00;
  5849  0BB8  1683               	bsf	3,5	;RP0=1, select bank3
  5850  0BB9  1703               	bsf	3,6	;RP1=1, select bank3
  5851  0BBA  0188               	clrf	8	;volatile
  5852                           
  5853                           ;main.c: 166:     ANSELH = 0X00;
  5854  0BBB  0189               	clrf	9	;volatile
  5855                           
  5856                           ;main.c: 167:     TRISA = 0X00;
  5857  0BBC  1683               	bsf	3,5	;RP0=1, select bank1
  5858  0BBD  1303               	bcf	3,6	;RP1=0, select bank1
  5859  0BBE  0185               	clrf	5	;volatile
  5860                           
  5861                           ;main.c: 168:     TRISB = 0X00;
  5862  0BBF  0186               	clrf	6	;volatile
  5863                           
  5864                           ;main.c: 169:     TRISD = 0X00;
  5865  0BC0  0188               	clrf	8	;volatile
  5866  0BC1                     l2744:
  5867                           
  5868                           ;main.c: 170:     TRISEbits.TRISE1 = 0;
  5869  0BC1  1089               	bcf	9,1	;volatile
  5870  0BC2                     l2746:
  5871                           
  5872                           ;main.c: 171:     TRISEbits.TRISE2 = 0;
  5873  0BC2  1109               	bcf	9,2	;volatile
  5874                           
  5875                           ;main.c: 172:     PORTA = 0X00;
  5876  0BC3  1283               	bcf	3,5	;RP0=0, select bank0
  5877  0BC4  1303               	bcf	3,6	;RP1=0, select bank0
  5878  0BC5  0185               	clrf	5	;volatile
  5879                           
  5880                           ;main.c: 173:     PORTB = 0X00;
  5881  0BC6  0186               	clrf	6	;volatile
  5882                           
  5883                           ;main.c: 174:     PORTD = 0X00;
  5884  0BC7  0188               	clrf	8	;volatile
  5885  0BC8                     l2748:
  5886                           
  5887                           ;main.c: 177:     OSCCONbits.IRCF = 0b111;
  5888  0BC8  3070               	movlw	112
  5889  0BC9  1683               	bsf	3,5	;RP0=1, select bank1
  5890  0BCA  1303               	bcf	3,6	;RP1=0, select bank1
  5891  0BCB  048F               	iorwf	15,f	;volatile
  5892  0BCC                     l2750:
  5893                           
  5894                           ;main.c: 178:     OSCCONbits.SCS = 0b1;
  5895  0BCC  140F               	bsf	15,0	;volatile
  5896  0BCD                     l2752:
  5897                           
  5898                           ;main.c: 181:     INTCONbits.GIE = 1;
  5899  0BCD  178B               	bsf	11,7	;volatile
  5900  0BCE                     l2754:
  5901                           
  5902                           ;main.c: 182:     INTCONbits.PEIE = 1;
  5903  0BCE  170B               	bsf	11,6	;volatile
  5904  0BCF                     l2756:
  5905                           
  5906                           ;main.c: 183:     PIR1bits.RCIF = 0;
  5907  0BCF  1283               	bcf	3,5	;RP0=0, select bank0
  5908  0BD0  1303               	bcf	3,6	;RP1=0, select bank0
  5909  0BD1  128C               	bcf	12,5	;volatile
  5910  0BD2                     l2758:
  5911                           
  5912                           ;main.c: 184:     PIE1bits.RCIE = 1;
  5913  0BD2  1683               	bsf	3,5	;RP0=1, select bank1
  5914  0BD3  1303               	bcf	3,6	;RP1=0, select bank1
  5915  0BD4  168C               	bsf	12,5	;volatile
  5916  0BD5                     l2760:
  5917                           
  5918                           ;main.c: 187:     T1CON = 0X10;
  5919  0BD5  3010               	movlw	16
  5920  0BD6  1283               	bcf	3,5	;RP0=0, select bank0
  5921  0BD7  1303               	bcf	3,6	;RP1=0, select bank0
  5922  0BD8  0090               	movwf	16	;volatile
  5923  0BD9                     l2762:
  5924                           
  5925                           ;main.c: 188:     TMR1H = 0;
  5926  0BD9  018F               	clrf	15	;volatile
  5927  0BDA                     l2764:
  5928                           
  5929                           ;main.c: 189:     TMR1L = 0;
  5930  0BDA  018E               	clrf	14	;volatile
  5931  0BDB                     l2766:
  5932                           
  5933                           ;main.c: 190:     MasterInit_I2C(100000);
  5934  0BDB  3000               	movlw	0
  5935  0BDC  00B0               	movwf	MasterInit_I2C@frec+3
  5936  0BDD  3001               	movlw	1
  5937  0BDE  00AF               	movwf	MasterInit_I2C@frec+2
  5938  0BDF  3086               	movlw	134
  5939  0BE0  00AE               	movwf	MasterInit_I2C@frec+1
  5940  0BE1  30A0               	movlw	160
  5941  0BE2  00AD               	movwf	MasterInit_I2C@frec
  5942  0BE3  120A  158A  241E  120A  158A  	fcall	_MasterInit_I2C
  5943  0BE8                     l118:
  5944  0BE8  0008               	return
  5945  0BE9                     __end_of_CONFIG:
  5946                           
  5947                           	psect	text23
  5948  0C1E                     __ptext23:	
  5949 ;; *************** function _MasterInit_I2C *****************
  5950 ;; Defined at:
  5951 ;;		line 13 in file "I2C.c"
  5952 ;; Parameters:    Size  Location     Type
  5953 ;;  frec            4   13[BANK0 ] unsigned long 
  5954 ;; Auto vars:     Size  Location     Type
  5955 ;;		None
  5956 ;; Return value:  Size  Location     Type
  5957 ;;                  1    wreg      void 
  5958 ;; Registers used:
  5959 ;;		wreg, status,2, status,0, pclath, cstack
  5960 ;; Tracked objects:
  5961 ;;		On entry : 0/0
  5962 ;;		On exit  : 0/0
  5963 ;;		Unchanged: 0/0
  5964 ;; Data sizes:     COMMON   BANK0   BANK1   BANK3   BANK2
  5965 ;;      Params:         0       4       0       0       0
  5966 ;;      Locals:         0       0       0       0       0
  5967 ;;      Temps:          4       0       0       0       0
  5968 ;;      Totals:         4       4       0       0       0
  5969 ;;Total ram usage:        8 bytes
  5970 ;; Hardware stack levels used:    1
  5971 ;; Hardware stack levels required when called:    2
  5972 ;; This function calls:
  5973 ;;		___lldiv
  5974 ;; This function is called by:
  5975 ;;		_CONFIG
  5976 ;; This function uses a non-reentrant model
  5977 ;;
  5978                           
  5979                           
  5980                           ;psect for function _MasterInit_I2C
  5981  0C1E                     _MasterInit_I2C:
  5982  0C1E                     l2662:	
  5983                           ;incstack = 0
  5984                           ; Regs used in _MasterInit_I2C: [wreg+status,2+status,0+pclath+cstack]
  5985                           
  5986                           
  5987                           ;I2C.c: 14:     SSPCON = 0X28;
  5988  0C1E  3028               	movlw	40
  5989  0C1F  1283               	bcf	3,5	;RP0=0, select bank0
  5990  0C20  1303               	bcf	3,6	;RP1=0, select bank0
  5991  0C21  0094               	movwf	20	;volatile
  5992  0C22                     l2664:
  5993                           
  5994                           ;I2C.c: 15:     SSPCON2 = 0X00;
  5995  0C22  1683               	bsf	3,5	;RP0=1, select bank1
  5996  0C23  1303               	bcf	3,6	;RP1=0, select bank1
  5997  0C24  0191               	clrf	17	;volatile
  5998  0C25                     l2666:
  5999                           
  6000                           ;I2C.c: 16:     SSPSTAT = 0X80;
  6001  0C25  3080               	movlw	128
  6002  0C26  0094               	movwf	20	;volatile
  6003  0C27                     l2668:
  6004                           
  6005                           ;I2C.c: 17:     SSPADD = (8000000/(4*frec))-1;
  6006  0C27  1283               	bcf	3,5	;RP0=0, select bank0
  6007  0C28  1303               	bcf	3,6	;RP1=0, select bank0
  6008  0C29  082D               	movf	MasterInit_I2C@frec,w
  6009  0C2A  00F4               	movwf	??_MasterInit_I2C
  6010  0C2B  082E               	movf	MasterInit_I2C@frec+1,w
  6011  0C2C  00F5               	movwf	??_MasterInit_I2C+1
  6012  0C2D  082F               	movf	MasterInit_I2C@frec+2,w
  6013  0C2E  00F6               	movwf	??_MasterInit_I2C+2
  6014  0C2F  0830               	movf	MasterInit_I2C@frec+3,w
  6015  0C30  00F7               	movwf	??_MasterInit_I2C+3
  6016  0C31  3002               	movlw	2
  6017  0C32                     u3725:
  6018  0C32  1003               	clrc
  6019  0C33  0DF4               	rlf	??_MasterInit_I2C,f
  6020  0C34  0DF5               	rlf	??_MasterInit_I2C+1,f
  6021  0C35  0DF6               	rlf	??_MasterInit_I2C+2,f
  6022  0C36  0DF7               	rlf	??_MasterInit_I2C+3,f
  6023  0C37                     u3720:
  6024  0C37  3EFF               	addlw	-1
  6025  0C38  1D03               	skipz
  6026  0C39  2C32               	goto	u3725
  6027  0C3A  0877               	movf	??_MasterInit_I2C+3,w
  6028  0C3B  00A3               	movwf	___lldiv@divisor+3
  6029  0C3C  0876               	movf	??_MasterInit_I2C+2,w
  6030  0C3D  00A2               	movwf	___lldiv@divisor+2
  6031  0C3E  0875               	movf	??_MasterInit_I2C+1,w
  6032  0C3F  00A1               	movwf	___lldiv@divisor+1
  6033  0C40  0874               	movf	??_MasterInit_I2C,w
  6034  0C41  00A0               	movwf	___lldiv@divisor
  6035  0C42  3000               	movlw	0
  6036  0C43  00A7               	movwf	___lldiv@dividend+3
  6037  0C44  307A               	movlw	122
  6038  0C45  00A6               	movwf	___lldiv@dividend+2
  6039  0C46  3012               	movlw	18
  6040  0C47  00A5               	movwf	___lldiv@dividend+1
  6041  0C48  3000               	movlw	0
  6042  0C49  00A4               	movwf	___lldiv@dividend
  6043  0C4A  120A  158A  24B4  120A  158A  	fcall	___lldiv
  6044  0C4F  1283               	bcf	3,5	;RP0=0, select bank0
  6045  0C50  1303               	bcf	3,6	;RP1=0, select bank0
  6046  0C51  0820               	movf	?___lldiv,w
  6047  0C52  3EFF               	addlw	255
  6048  0C53  1683               	bsf	3,5	;RP0=1, select bank1
  6049  0C54  1303               	bcf	3,6	;RP1=0, select bank1
  6050  0C55  0093               	movwf	19	;volatile
  6051  0C56                     l2670:
  6052                           
  6053                           ;I2C.c: 19:     TRISCbits.TRISC3 = 1;
  6054  0C56  1587               	bsf	7,3	;volatile
  6055  0C57                     l2672:
  6056                           
  6057                           ;I2C.c: 20:     TRISCbits.TRISC4 = 1;
  6058  0C57  1607               	bsf	7,4	;volatile
  6059  0C58                     l147:
  6060  0C58  0008               	return
  6061  0C59                     __end_of_MasterInit_I2C:
  6062                           
  6063                           	psect	text24
  6064  0CB4                     __ptext24:	
  6065 ;; *************** function ___lldiv *****************
  6066 ;; Defined at:
  6067 ;;		line 5 in file "C:\Program Files\Microchip\xc8\v2.31\pic\sources\c90\common\__lldiv.c"
  6068 ;; Parameters:    Size  Location     Type
  6069 ;;  divisor         4    0[BANK0 ] unsigned long 
  6070 ;;  dividend        4    4[BANK0 ] unsigned long 
  6071 ;; Auto vars:     Size  Location     Type
  6072 ;;  quotient        4    8[BANK0 ] unsigned long 
  6073 ;;  counter         1   12[BANK0 ] unsigned char 
  6074 ;; Return value:  Size  Location     Type
  6075 ;;                  4    0[BANK0 ] unsigned long 
  6076 ;; Registers used:
  6077 ;;		wreg, status,2, status,0
  6078 ;; Tracked objects:
  6079 ;;		On entry : 0/0
  6080 ;;		On exit  : 0/0
  6081 ;;		Unchanged: 0/0
  6082 ;; Data sizes:     COMMON   BANK0   BANK1   BANK3   BANK2
  6083 ;;      Params:         0       8       0       0       0
  6084 ;;      Locals:         0       5       0       0       0
  6085 ;;      Temps:          1       0       0       0       0
  6086 ;;      Totals:         1      13       0       0       0
  6087 ;;Total ram usage:       14 bytes
  6088 ;; Hardware stack levels used:    1
  6089 ;; Hardware stack levels required when called:    1
  6090 ;; This function calls:
  6091 ;;		Nothing
  6092 ;; This function is called by:
  6093 ;;		_MasterInit_I2C
  6094 ;; This function uses a non-reentrant model
  6095 ;;
  6096                           
  6097                           
  6098                           ;psect for function ___lldiv
  6099  0CB4                     ___lldiv:
  6100  0CB4                     l2444:	
  6101                           ;incstack = 0
  6102                           ; Regs used in ___lldiv: [wreg+status,2+status,0]
  6103                           
  6104  0CB4  3000               	movlw	0
  6105  0CB5  1283               	bcf	3,5	;RP0=0, select bank0
  6106  0CB6  1303               	bcf	3,6	;RP1=0, select bank0
  6107  0CB7  00AB               	movwf	___lldiv@quotient+3
  6108  0CB8  3000               	movlw	0
  6109  0CB9  00AA               	movwf	___lldiv@quotient+2
  6110  0CBA  3000               	movlw	0
  6111  0CBB  00A9               	movwf	___lldiv@quotient+1
  6112  0CBC  3000               	movlw	0
  6113  0CBD  00A8               	movwf	___lldiv@quotient
  6114  0CBE  0823               	movf	___lldiv@divisor+3,w
  6115  0CBF  0422               	iorwf	___lldiv@divisor+2,w
  6116  0CC0  0421               	iorwf	___lldiv@divisor+1,w
  6117  0CC1  0420               	iorwf	___lldiv@divisor,w
  6118  0CC2  1903               	skipnz
  6119  0CC3  2CC5               	goto	u3191
  6120  0CC4  2CC6               	goto	u3190
  6121  0CC5                     u3191:
  6122  0CC5  2D13               	goto	l2464
  6123  0CC6                     u3190:
  6124  0CC6                     l2446:
  6125  0CC6  01AC               	clrf	___lldiv@counter
  6126  0CC7  0AAC               	incf	___lldiv@counter,f
  6127  0CC8  2CD6               	goto	l2450
  6128  0CC9                     l2448:
  6129  0CC9  3001               	movlw	1
  6130  0CCA  00F3               	movwf	??___lldiv
  6131  0CCB                     u3205:
  6132  0CCB  1003               	clrc
  6133  0CCC  0DA0               	rlf	___lldiv@divisor,f
  6134  0CCD  0DA1               	rlf	___lldiv@divisor+1,f
  6135  0CCE  0DA2               	rlf	___lldiv@divisor+2,f
  6136  0CCF  0DA3               	rlf	___lldiv@divisor+3,f
  6137  0CD0  0BF3               	decfsz	??___lldiv,f
  6138  0CD1  2CCB               	goto	u3205
  6139  0CD2  3001               	movlw	1
  6140  0CD3  00F3               	movwf	??___lldiv
  6141  0CD4  0873               	movf	??___lldiv,w
  6142  0CD5  07AC               	addwf	___lldiv@counter,f
  6143  0CD6                     l2450:
  6144  0CD6  1FA3               	btfss	___lldiv@divisor+3,7
  6145  0CD7  2CD9               	goto	u3211
  6146  0CD8  2CDA               	goto	u3210
  6147  0CD9                     u3211:
  6148  0CD9  2CC9               	goto	l2448
  6149  0CDA                     u3210:
  6150  0CDA                     l2452:
  6151  0CDA  3001               	movlw	1
  6152  0CDB  00F3               	movwf	??___lldiv
  6153  0CDC                     u3225:
  6154  0CDC  1003               	clrc
  6155  0CDD  0DA8               	rlf	___lldiv@quotient,f
  6156  0CDE  0DA9               	rlf	___lldiv@quotient+1,f
  6157  0CDF  0DAA               	rlf	___lldiv@quotient+2,f
  6158  0CE0  0DAB               	rlf	___lldiv@quotient+3,f
  6159  0CE1  0BF3               	decfsz	??___lldiv,f
  6160  0CE2  2CDC               	goto	u3225
  6161  0CE3                     l2454:
  6162  0CE3  0823               	movf	___lldiv@divisor+3,w
  6163  0CE4  0227               	subwf	___lldiv@dividend+3,w
  6164  0CE5  1D03               	skipz
  6165  0CE6  2CF1               	goto	u3235
  6166  0CE7  0822               	movf	___lldiv@divisor+2,w
  6167  0CE8  0226               	subwf	___lldiv@dividend+2,w
  6168  0CE9  1D03               	skipz
  6169  0CEA  2CF1               	goto	u3235
  6170  0CEB  0821               	movf	___lldiv@divisor+1,w
  6171  0CEC  0225               	subwf	___lldiv@dividend+1,w
  6172  0CED  1D03               	skipz
  6173  0CEE  2CF1               	goto	u3235
  6174  0CEF  0820               	movf	___lldiv@divisor,w
  6175  0CF0  0224               	subwf	___lldiv@dividend,w
  6176  0CF1                     u3235:
  6177  0CF1  1C03               	skipc
  6178  0CF2  2CF4               	goto	u3231
  6179  0CF3  2CF5               	goto	u3230
  6180  0CF4                     u3231:
  6181  0CF4  2D04               	goto	l2460
  6182  0CF5                     u3230:
  6183  0CF5                     l2456:
  6184  0CF5  0820               	movf	___lldiv@divisor,w
  6185  0CF6  02A4               	subwf	___lldiv@dividend,f
  6186  0CF7  0821               	movf	___lldiv@divisor+1,w
  6187  0CF8  1C03               	skipc
  6188  0CF9  0F21               	incfsz	___lldiv@divisor+1,w
  6189  0CFA  02A5               	subwf	___lldiv@dividend+1,f
  6190  0CFB  0822               	movf	___lldiv@divisor+2,w
  6191  0CFC  1C03               	skipc
  6192  0CFD  0F22               	incfsz	___lldiv@divisor+2,w
  6193  0CFE  02A6               	subwf	___lldiv@dividend+2,f
  6194  0CFF  0823               	movf	___lldiv@divisor+3,w
  6195  0D00  1C03               	skipc
  6196  0D01  0F23               	incfsz	___lldiv@divisor+3,w
  6197  0D02  02A7               	subwf	___lldiv@dividend+3,f
  6198  0D03                     l2458:
  6199  0D03  1428               	bsf	___lldiv@quotient,0
  6200  0D04                     l2460:
  6201  0D04  3001               	movlw	1
  6202  0D05                     u3245:
  6203  0D05  1003               	clrc
  6204  0D06  0CA3               	rrf	___lldiv@divisor+3,f
  6205  0D07  0CA2               	rrf	___lldiv@divisor+2,f
  6206  0D08  0CA1               	rrf	___lldiv@divisor+1,f
  6207  0D09  0CA0               	rrf	___lldiv@divisor,f
  6208  0D0A  3EFF               	addlw	-1
  6209  0D0B  1D03               	skipz
  6210  0D0C  2D05               	goto	u3245
  6211  0D0D                     l2462:
  6212  0D0D  3001               	movlw	1
  6213  0D0E  02AC               	subwf	___lldiv@counter,f
  6214  0D0F  1D03               	btfss	3,2
  6215  0D10  2D12               	goto	u3251
  6216  0D11  2D13               	goto	u3250
  6217  0D12                     u3251:
  6218  0D12  2CDA               	goto	l2452
  6219  0D13                     u3250:
  6220  0D13                     l2464:
  6221  0D13  082B               	movf	___lldiv@quotient+3,w
  6222  0D14  00A3               	movwf	?___lldiv+3
  6223  0D15  082A               	movf	___lldiv@quotient+2,w
  6224  0D16  00A2               	movwf	?___lldiv+2
  6225  0D17  0829               	movf	___lldiv@quotient+1,w
  6226  0D18  00A1               	movwf	?___lldiv+1
  6227  0D19  0828               	movf	___lldiv@quotient,w
  6228  0D1A  00A0               	movwf	?___lldiv
  6229  0D1B                     l362:
  6230  0D1B  0008               	return
  6231  0D1C                     __end_of___lldiv:
  6232                           
  6233                           	psect	text25
  6234  0ADC                     __ptext25:	
  6235 ;; *************** function _interrupcion *****************
  6236 ;; Defined at:
  6237 ;;		line 59 in file "main.c"
  6238 ;; Parameters:    Size  Location     Type
  6239 ;;		None
  6240 ;; Auto vars:     Size  Location     Type
  6241 ;;		None
  6242 ;; Return value:  Size  Location     Type
  6243 ;;                  1    wreg      void 
  6244 ;; Registers used:
  6245 ;;		wreg
  6246 ;; Tracked objects:
  6247 ;;		On entry : 0/0
  6248 ;;		On exit  : 0/0
  6249 ;;		Unchanged: 0/0
  6250 ;; Data sizes:     COMMON   BANK0   BANK1   BANK3   BANK2
  6251 ;;      Params:         0       0       0       0       0
  6252 ;;      Locals:         0       0       0       0       0
  6253 ;;      Temps:          3       0       0       0       0
  6254 ;;      Totals:         3       0       0       0       0
  6255 ;;Total ram usage:        3 bytes
  6256 ;; Hardware stack levels used:    1
  6257 ;; This function calls:
  6258 ;;		Nothing
  6259 ;; This function is called by:
  6260 ;;		Interrupt level 1
  6261 ;; This function uses a non-reentrant model
  6262 ;;
  6263                           
  6264                           
  6265                           ;psect for function _interrupcion
  6266  0ADC                     _interrupcion:
  6267  0ADC                     i1l2382:
  6268                           
  6269                           ;main.c: 61:     if(PIR1bits.RCIF){
  6270  0ADC  1283               	bcf	3,5	;RP0=0, select bank0
  6271  0ADD  1303               	bcf	3,6	;RP1=0, select bank0
  6272  0ADE  1E8C               	btfss	12,5	;volatile
  6273  0ADF  2AE1               	goto	u315_21
  6274  0AE0  2AE2               	goto	u315_20
  6275  0AE1                     u315_21:
  6276  0AE1  2AE7               	goto	i1l98
  6277  0AE2                     u315_20:
  6278  0AE2                     i1l2384:
  6279                           
  6280                           ;main.c: 62:         UARTData = RCREG;
  6281  0AE2  081A               	movf	26,w	;volatile
  6282  0AE3  00F0               	movwf	??_interrupcion
  6283  0AE4  0870               	movf	??_interrupcion,w
  6284  0AE5  00E1               	movwf	_UARTData
  6285  0AE6                     i1l2386:
  6286                           
  6287                           ;main.c: 63:         PIR1bits.RCIF = 0;
  6288  0AE6  128C               	bcf	12,5	;volatile
  6289  0AE7                     i1l98:
  6290  0AE7  0872               	movf	??_interrupcion+2,w
  6291  0AE8  008A               	movwf	10
  6292  0AE9  0E71               	swapf	??_interrupcion+1,w
  6293  0AEA  0083               	movwf	3
  6294  0AEB  0EFE               	swapf	btemp,f
  6295  0AEC  0E7E               	swapf	btemp,w
  6296  0AED  0009               	retfie
  6297  0AEE                     __end_of_interrupcion:
  6298  007E                     btemp	set	126	;btemp
  6299  007E                     wtemp0	set	126
  6300                           
  6301                           	psect	intentry
  6302  0004                     __pintentry:	
  6303                           ;incstack = 0
  6304                           ; Regs used in _interrupcion: [wreg]
  6305                           
  6306  0004                     interrupt_function:
  6307  007E                     saved_w	set	btemp
  6308  0004  00FE               	movwf	btemp
  6309  0005  0E03               	swapf	3,w
  6310  0006  00F1               	movwf	??_interrupcion+1
  6311  0007  080A               	movf	10,w
  6312  0008  00F2               	movwf	??_interrupcion+2
  6313  0009  120A  158A  2ADC   	ljmp	_interrupcion
  6314                           
  6315                           	psect	config
  6316                           
  6317                           ;Config register CONFIG1 @ 0x2007
  6318                           ;	Oscillator Selection bits
  6319                           ;	FOSC = INTRC_NOCLKOUT, INTOSCIO oscillator: I/O function on RA6/OSC2/CLKOUT pin, I/O f
      +                          unction on RA7/OSC1/CLKIN
  6320                           ;	Watchdog Timer Enable bit
  6321                           ;	WDTE = OFF, WDT disabled and can be enabled by SWDTEN bit of the WDTCON register
  6322                           ;	Power-up Timer Enable bit
  6323                           ;	PWRTE = OFF, PWRT disabled
  6324                           ;	RE3/MCLR pin function select bit
  6325                           ;	MCLRE = ON, RE3/MCLR pin function is MCLR
  6326                           ;	Code Protection bit
  6327                           ;	CP = OFF, Program memory code protection is disabled
  6328                           ;	Data Code Protection bit
  6329                           ;	CPD = OFF, Data memory code protection is disabled
  6330                           ;	Brown Out Reset Selection bits
  6331                           ;	BOREN = OFF, BOR disabled
  6332                           ;	Internal External Switchover bit
  6333                           ;	IESO = OFF, Internal/External Switchover mode is disabled
  6334                           ;	Fail-Safe Clock Monitor Enabled bit
  6335                           ;	FCMEN = OFF, Fail-Safe Clock Monitor is disabled
  6336                           ;	Low Voltage Programming Enable bit
  6337                           ;	LVP = OFF, RB3 pin has digital I/O, HV on MCLR must be used for programming
  6338                           ;	In-Circuit Debugger Mode bit
  6339                           ;	DEBUG = 0x1, unprogrammed default
  6340  2007                     	org	8199
  6341  2007  20F4               	dw	8436
  6342                           
  6343                           ;Config register CONFIG2 @ 0x2008
  6344                           ;	Brown-out Reset Selection bit
  6345                           ;	BOR4V = BOR40V, Brown-out Reset set to 4.0V
  6346                           ;	Flash Program Memory Self Write Enable bits
  6347                           ;	WRT = OFF, Write protection off
  6348  2008                     	org	8200
  6349  2008  3FFF               	dw	16383

Data Sizes:
    Strings     0
    Constant    0
    Data        1
    BSS         22
    Persistent  0
    Stack       0

Auto Spaces:
    Space          Size  Autos    Used
    COMMON           14      8      11
    BANK0            80     65      73
    BANK1            80     10      22
    BANK3            96      0       0
    BANK2            96      0       0

Pointer List with Targets:

    DHT11_ReadData@datos	PTR unsigned char  size(1) Largest target is 1
		 -> CHECKSUM(BANK0[1]), dummyT1(BANK0[1]), Temp1(BANK0[1]), dummyHum1(BANK0[1]), 
		 -> Hum1(BANK0[1]), 

    MasterReceive_I2C@valor	PTR unsigned char  size(1) Largest target is 1
		 -> TempDEC(BANK0[1]), TempENT(BANK0[1]), 

    divisiondecimal@cent	PTR unsigned char  size(1) Largest target is 3
		 -> floToChar@digdecimal(BANK0[3]), 

    divisiondecimal@dec	PTR unsigned char  size(1) Largest target is 3
		 -> floToChar@digdecimal(BANK0[3]), 

    divisiondecimal@un	PTR unsigned char  size(1) Largest target is 3
		 -> floToChar@digdecimal(BANK0[3]), 

    floToChar@salida	PTR unsigned char  size(1) Largest target is 6
		 -> TEMPdig(BANK1[6]), 


Critical Paths under _main in COMMON

    _main->___awdiv
    _main->___awmod
    _divisiondecimal->___awdiv
    ___flsub->___fladd
    ___flsub->___xxtofl
    ___flmul->__Umul8_16
    ___flmul->___xxtofl
    _CONFIG->_MasterInit_I2C
    _MasterInit_I2C->___lldiv

Critical Paths under _interrupcion in COMMON

    None.

Critical Paths under _main in BANK0

    _main->_floToChar
    _floToChar->___fltol
    _divisiondecimal->___awdiv
    ___fltol->___flmul
    ___flsub->___fladd
    ___flmul->___xxtofl
    _CONFIG->_MasterInit_I2C
    _MasterInit_I2C->___lldiv

Critical Paths under _interrupcion in BANK0

    None.

Critical Paths under _main in BANK1

    None.

Critical Paths under _interrupcion in BANK1

    None.

Critical Paths under _main in BANK3

    None.

Critical Paths under _interrupcion in BANK3

    None.

Critical Paths under _main in BANK2

    None.

Critical Paths under _interrupcion in BANK2

    None.

Call Graph Tables:

 ---------------------------------------------------------------------------------
 (Depth) Function   	        Calls       Base Space   Used Autos Params    Refs
 ---------------------------------------------------------------------------------
 (0) _main                                                10    10      0   15528
                                              0 BANK1     10    10      0
                             _CONFIG
                        _DHT11_ALIVE
                     _DHT11_ReadData
                        _DHT11_START
                  _MasterReceive_I2C
                  _MasterRepeatS_I2C
                     _MasterSend_I2C
                    _MasterStart_I2C
                     _MasterStop_I2C
                            ___awdiv
                            ___awmod
                            ___flmul
                           ___xxtofl
                         _configUART
                          _floToChar
 ---------------------------------------------------------------------------------
 (1) _floToChar                                           18    13      5   10005
                                             47 BANK0     18    13      5
                            ___flmul
                            ___flsub
                            ___fltol
                           ___xxtofl
                    _divisiondecimal
 ---------------------------------------------------------------------------------
 (2) _divisiondecimal                                      8     5      3    2045
                                              4 BANK0      8     5      3
                            ___awdiv
                             ___bmul
 ---------------------------------------------------------------------------------
 (3) ___bmul                                               4     3      1     244
                                              3 COMMON     4     3      1
 ---------------------------------------------------------------------------------
 (3) ___awdiv                                              9     5      4     756
                                              3 COMMON     5     1      4
                                              0 BANK0      4     4      0
 ---------------------------------------------------------------------------------
 (2) ___xxtofl                                            14    10      4     656
                                              3 COMMON     4     0      4
                                              0 BANK0     10    10      0
 ---------------------------------------------------------------------------------
 (2) ___fltol                                             11     7      4     381
                                             36 BANK0     11     7      4
                            ___flmul (ARG)
 ---------------------------------------------------------------------------------
 (2) ___flsub                                              8     0      8    3367
                                             16 BANK0      8     0      8
                            ___fladd
                           ___xxtofl (ARG)
 ---------------------------------------------------------------------------------
 (3) ___fladd                                             20    12      8    3122
                                              3 COMMON     4     4      0
                                              0 BANK0     16     8      8
 ---------------------------------------------------------------------------------
 (2) ___flmul                                             26    18      8    2569
                                             10 BANK0     26    18      8
                          __Umul8_16
                           ___xxtofl (ARG)
 ---------------------------------------------------------------------------------
 (3) __Umul8_16                                            9     7      2     799
                                              3 COMMON     4     2      2
                                              0 BANK0      5     5      0
 ---------------------------------------------------------------------------------
 (1) _configUART                                           0     0      0       0
 ---------------------------------------------------------------------------------
 (1) ___awmod                                              7     3      4     613
                                              3 COMMON     5     1      4
                                              0 BANK0      2     2      0
 ---------------------------------------------------------------------------------
 (1) _MasterStop_I2C                                       0     0      0       0
                      _waitCondition
 ---------------------------------------------------------------------------------
 (1) _MasterStart_I2C                                      0     0      0       0
                      _waitCondition
 ---------------------------------------------------------------------------------
 (1) _MasterSend_I2C                                       1     1      0      22
                                              3 COMMON     1     1      0
                      _waitCondition
 ---------------------------------------------------------------------------------
 (1) _MasterRepeatS_I2C                                    0     0      0       0
                      _waitCondition
 ---------------------------------------------------------------------------------
 (1) _MasterReceive_I2C                                    2     2      0      88
                                              3 COMMON     2     2      0
                      _waitCondition
 ---------------------------------------------------------------------------------
 (2) _waitCondition                                        0     0      0       0
 ---------------------------------------------------------------------------------
 (1) _DHT11_START                                          2     2      0       0
                                              3 COMMON     2     2      0
 ---------------------------------------------------------------------------------
 (1) _DHT11_ReadData                                       4     4      0     277
                                              3 COMMON     4     4      0
 ---------------------------------------------------------------------------------
 (1) _DHT11_ALIVE                                          0     0      0       0
 ---------------------------------------------------------------------------------
 (1) _CONFIG                                               0     0      0     542
                     _MasterInit_I2C
 ---------------------------------------------------------------------------------
 (2) _MasterInit_I2C                                       8     4      4     542
                                              4 COMMON     4     4      0
                                             13 BANK0      4     0      4
                            ___lldiv
 ---------------------------------------------------------------------------------
 (3) ___lldiv                                             14     6      8     421
                                              3 COMMON     1     1      0
                                              0 BANK0     13     5      8
 ---------------------------------------------------------------------------------
 Estimated maximum stack depth 3
 ---------------------------------------------------------------------------------
 (Depth) Function   	        Calls       Base Space   Used Autos Params    Refs
 ---------------------------------------------------------------------------------
 (4) _interrupcion                                         3     3      0       0
                                              0 COMMON     3     3      0
 ---------------------------------------------------------------------------------
 Estimated maximum stack depth 4
 ---------------------------------------------------------------------------------

 Call Graph Graphs:

 _main (ROOT)
   _CONFIG
     _MasterInit_I2C
       ___lldiv
   _DHT11_ALIVE
   _DHT11_ReadData
   _DHT11_START
   _MasterReceive_I2C
     _waitCondition
   _MasterRepeatS_I2C
     _waitCondition
   _MasterSend_I2C
     _waitCondition
   _MasterStart_I2C
     _waitCondition
   _MasterStop_I2C
     _waitCondition
   ___awdiv
   ___awmod
   ___flmul
     __Umul8_16
     ___xxtofl (ARG)
   ___xxtofl
   _configUART
   _floToChar
     ___flmul
       __Umul8_16
       ___xxtofl (ARG)
     ___flsub
       ___fladd
       ___xxtofl (ARG)
     ___fltol
       ___flmul (ARG)
         __Umul8_16
         ___xxtofl (ARG)
     ___xxtofl
     _divisiondecimal
       ___awdiv
       ___bmul

 _interrupcion (ROOT)

 Address spaces:
Name               Size   Autos  Total    Cost      Usage
BANK3               60      0       0       9        0.0%
BITBANK3            60      0       0       8        0.0%
SFR3                 0      0       0       4        0.0%
BITSFR3              0      0       0       4        0.0%
BANK2               60      0       0      11        0.0%
BITBANK2            60      0       0      10        0.0%
SFR2                 0      0       0       5        0.0%
BITSFR2              0      0       0       5        0.0%
BANK1               50      A      16       7       27.5%
BITBANK1            50      0       0       6        0.0%
SFR1                 0      0       0       2        0.0%
BITSFR1              0      0       0       2        0.0%
BANK0               50     41      49       5       91.2%
BITBANK0            50      0       0       4        0.0%
SFR0                 0      0       0       1        0.0%
BITSFR0              0      0       0       1        0.0%
COMMON               E      8       B       1       78.6%
BITCOMMON            E      0       0       0        0.0%
CODE                 0      0       0       0        0.0%
DATA                 0      0      6A      12        0.0%
ABS                  0      0      6A       3        0.0%
NULL                 0      0       0       0        0.0%
STACK                0      0       0       2        0.0%
EEDATA             100      0       0       0        0.0%


Microchip Technology PIC Macro Assembler V2.31 build 20201012212115 
Symbol Table                                                                                   Fri Aug 20 09:28:22 2021

            ___bmul@product 0075                ___awdiv@sign 0021         __Umul8_16@word_mpld 0022  
                       l110 07AA                         l111 07B1                         l103 064E  
                       l112 07B8                         l121 0FFF                         l130 0E7D  
                       l211 0BF7                         l107 079C                         l108 07DC  
                       l109 07A3                         l118 0BE8                         l150 0ACF  
                       l215 0C1D                         l208 0BEF                         l153 0ADB  
                       l162 0AB1                         l147 0C58                         l156 0ABA  
                       l228 07FE                         l165 0ACE                         l159 0AC3  
                       l168 0B3E                         l512 0E00                         l352 0B02  
                       l362 0D1B                         l186 0B1D                         l522 0E00  
                       l195 0BB7                         l197 0BA5                         l189 0B91  
                       l623 04A0                         l519 0DEB                         l640 0571  
                       l632 0623                         l721 02FF                         l625 0475  
                       l650 05B7                         l715 0393                         l619 03F7  
                       l492 0CB3                         l644 0595                         l661 0617  
                       l653 05F5                         l734 0B79                         l662 0623  
                       l727 0387                         l479 0D84                         l736 0B8B  
                       l665 0B62                         l761 0F39                         l772 0F03  
                       l773 0F0F                         l765 0EE7                         l759 0EA2  
                       _RE0 0048                         fsr0 0004                         indf 0000  
              ___awmod@sign 0021                ___flmul@aexp 003C                ___flmul@bexp 003D  
              ___flmul@sign 0037                ___flmul@temp 0042                ___flmul@prod 003E  
              ___fltol@exp1 004E                        l2002 0DE0                        l2100 02C2  
                      l2020 0044                        l2004 0DF0                        l2102 02CB  
                      l2110 02DF                        l2030 0059                        l2022 0045  
                      l2014 0033                        l2006 0DF5                        l2112 02E3  
                      l2104 02CF                        l2040 0071                        l2032 0061  
                      l2024 004A                        l2016 003A                        l2130 0334  
                      l2122 0304                        l2114 02E4                        l2106 02D0  
                      l2050 008D                        l2042 0076                        l2034 0066  
                      l2026 004F                        l2018 0040                        l2300 0B95  
                      l2140 036B                        l2124 0309                        l2132 033A  
                      l2116 02E8                        l2108 02D9                        l2060 00B0  
                      l2052 0092                        l2044 007B                        l2036 006C  
                      l2028 0057                        l2310 0BA3                        l2302 0B9B  
                      l2230 07F4                        l2150 038B                        l2142 036D  
                      l2134 0347                        l2126 0317                        l2118 02FC  
                      l2070 013E                        l2062 00BD                        l2054 0097  
                      l2046 0083                        l2038 0070                        l2312 0BA9  
                      l2304 0BA1                        l2240 0AB7                        l2232 07F5  
                      l2224 07ED                        l2144 037B                        l2136 0352  
                      l2128 031B                        l2080 01A0                        l2072 015A  
                      l2064 00DA                        l2048 0085                        l2322 0BB6  
                      l2314 0BAF                        l2250 0AA9                        l2242 0AC5  
                      l2234 07F8                        l2226 07F1                        l2146 037F  
                      l2138 0361                        l2090 0230                        l2082 01BD  
                      l2074 0163                        l2066 00F6                        l2058 00A0  
                      l2340 0C13                        l2260 0B35                        l2252 0AAE  
                      l2244 0ACA                        l2236 07FB                        l2228 07F3  
                      l2148 0380                        l2092 025D                        l2084 01D6  
                      l2076 0173                        l2068 0122                        l2500 03DA  
                      l1700 0D37                        l2342 0C17                        l2334 0BF5  
                      l2326 0BEA                        l2262 0B3A                        l2254 0B1F  
                      l2238 0AB2                        l2246 0ABB                        l2094 0283  
                      l2086 01F3                        l2078 0190                        l2502 03DF  
                      l2510 03EF                        l1710 0D4D                        l1702 0D39  
                      l2336 0BFB                        l2328 0BEE                        l2264 0B3D  
                      l2256 0B24                        l2248 0AC0                        l2096 02AB  
                      l2088 0220                        l2600 0563                        l2520 040D  
                      l2512 03FD                        l2504 03E4                        l1720 0D70  
                      l1712 0D51                        l1704 0D3F                        l2450 0CD6  
                      l2338 0C01                        l2290 0B09                        l2258 0B2C  
                      l2098 02B4                        l2610 0590                        l2602 0579  
                      l2530 0421                        l2522 0411                        l2514 0401  
                      l2506 03EC                        l1714 0D62                        l1706 0D42  
                      l1722 0D76                        l1650 0AF0                        l2460 0D04  
                      l2452 0CDA                        l2444 0CB4                        l2292 0B12  
                      l2620 05A3                        l2612 0594                        l2604 057E  
                      l2540 0435                        l2532 0425                        l2524 0415  
                      l2516 0405                        l2508 03ED                        l2700 0E86  
                      l1724 0D7B                        l1716 0D68                        l1708 0D49  
                      l1652 0AF4                        l2462 0D0D                        l2454 0CE3  
                      l2446 0CC6                        l2294 0B1A                        l2630 05B4  
                      l2614 0599                        l2622 05A5                        l2550 0459  
                      l2542 0439                        l2534 0429                        l2526 0419  
                      l2518 0409                        l2470 039B                        l2710 0EB3  
                      l2702 0E8A                        l1726 0D80                        l1718 0D69  
                      l1654 0AF8                        l2456 0CF5                        l2448 0CC9  
                      l2464 0D13                        l2296 0B8C                        l2288 0B03  
                      l2800 0C6B                        l2640 05D3                        l2616 059C  
                      l2608 0587                        l2624 05A9                        l2560 048D  
                      l2552 0479                        l2544 043D                        l2536 042D  
                      l2528 041D                        l2480 03B0                        l2472 03A1  
                      l2720 0EDE                        l2712 0EB8                        l2704 0E9A  
                      l1656 0AFA                        l1648 0AEF                        l2458 0D03  
                      l2298 0B90                        l2810 0C84                        l2802 0C70  
                      l1930 0B73                        l2650 060C                        l2642 05F1  
                      l2634 05BC                        l2626 05AA                        l2618 059E  
                      l2562 0496                        l2554 0484                        l2538 0431  
                      l2546 0441                        l2490 03C8                        l2482 03B8  
                      l2474 03A5                        l2730 0F11                        l2722 0EEE  
                      l2714 0EC5                        l2706 0EAA                        l1690 0D23  
                      l1658 0B01                        l2812 0C88                        l2804 0C76  
                      l2820 0CA5                        l1932 0B82                        l1924 0B66  
                      l2660 0622                        l2652 060D                        l2644 05FA  
                      l2636 05C1                        l2628 05AE                        l2580 04DE  
                      l2572 04B4                        l2556 0486                        l2564 049A  
                      l2548 0442                        l2492 03CE                        l2484 03B9  
                      l2476 03A6                        l2468 0394                        l2732 0F27  
                      l2724 0EF9                        l2716 0ECC                        l1692 0D28  
                      l2670 0C56                        l2662 0C1E                        l2750 0BCC  
                      l2742 0BB8                        l2822 0CAA                        l2814 0C92  
                      l2806 0C79                        l1934 0B87                        l1926 0B68  
                      l2654 0611                        l2646 05FF                        l2638 05CF  
                      l2582 04E0                        l2574 04CD                        l2566 04A4  
                      l2590 04F3                        l2558 048C                        l2494 03CF  
                      l2478 03AB                        l2486 03BB                        l2734 0F2C  
                      l2726 0EFD                        l2718 0ED0                        l1694 0D2A  
                      l1686 0D1C                        l2830 062E                        l2672 0C57  
                      l2664 0C22                        l2760 0BD5                        l2752 0BCD  
                      l2744 0BC1                        l2824 0CAF                        l2816 0C98  
                      l2808 0C80                        l1928 0B6F                        l2656 0613  
                      l2648 0607                        l2592 050B                        l2584 04E4  
                      l2576 04D1                        l2568 04A9                        l2496 03D5  
                      l2488 03C3                        l2736 0F30                        l2728 0F07  
                      l1696 0D2E                        l1688 0D1F                        l2680 0E0F  
                      l2840 06A0                        l2832 0631                        l2666 0C25  
                      l2762 0BD9                        l2754 0BCE                        l2746 0BC2  
                      l1970 0AD5                        l2818 0C9F                        l2658 061E  
                      l2594 0549                        l2586 04E5                        l2578 04D5  
                      l2498 03D9                        l2738 0F31                        l1698 0D33  
                      l2690 0E76                        l2682 0E13                        l2674 0E04  
                      l2770 0F4F                        l2850 072D                        l2842 06DD  
                      l2834 066A                        l2668 0C27                        l2764 0BDA  
                      l2756 0BCF                        l2748 0BC8                        l2596 054F  
                      l2588 04EE                        l2692 0B3F                        l1980 0DB0  
                      l1972 0D85                        l2684 0E3E                        l2676 0E08  
                      l2780 0FD0                        l2772 0F83                        l2852 0765  
                      l2844 0700                        l2836 0670                        l2828 0624  
                      l2766 0BDB                        l2758 0BD2                        l2790 0C59  
                      l2598 0554                        l2694 0B43                        l1982 0DB1  
                      l1974 0D92                        l2686 0E45                        l2678 0E0C  
                      l2782 0FD7                        l2774 0FAD                        l2846 0705  
                      l2838 067B                        l1968 0ACF                        l2792 0C5C  
                      l1984 0DB9                        l2688 0E70                        l2784 0FE9  
                      l2776 0FBF                        l2768 0F3A                        l2848 070F  
                      l2856 07BF                        l2794 0C60                        l1994 0DC7  
                      l1986 0DBB                        l1978 0D9B                        l2698 0E81  
                      l2786 0FF3                        l2778 0FC9                        l2858 07DE  
                      l2796 0C65                        l1988 0DBF                        l1996 0DD9  
                      l2788 0FF9                        l2884 07CB                        l2798 0C67  
                      u3000 0BB5                        u3001 0BB4                        u3010 0BF5  
                      u3011 0BF4                        u3020 0BFB                        u3021 0BFA  
                      u3030 0C01                        u3031 0C00                        u2320 0AD5  
                      u2400 0DDF                        u4000 0765                        u2321 0AD4  
                      u2401 0DDE                        u4001 0764                        u3210 0CDA  
                      u3050 0C1D                        u2330 0ADB                        u1610 0AF4  
                      u3211 0CD9                        u3051 0C1C                        u2331 0ADA  
                      u1611 0AF3                        u3044 0C09                        u2260 0B73  
                      u2500 0092                        u3300 03D9                        u2420 0DF0  
                      u2340 0D92                        u1700 0D23                        u1620 0B01  
                      u3205 0CCB                        u3045 0C07                        u2261 0B72  
                      u2501 0091                        u3301 03D8                        u2421 0DEF  
                      u2341 0D91                        u1701 0D22                        u1621 0B00  
                      u4005 0761                        u3230 0CF5                        u2510 0097  
                      u3310 03DF                        u2430 0DF5                        u2350 0DA9  
                      u1710 0D2E                        u3231 0CF4                        u2511 0096  
                      u3311 03DE                        u2431 0DF4                        u2415 0DE2  
                      u1711 0D2D                        u2280 0B87                        u2440 0044  
                      u3320 03E4                        u2360 0DBF                        u1720 0D3F  
                      u3225 0CDC                        u2281 0B86                        u2601 01E5  
                      u2521 00E8                        u2441 0043                        u3321 03E3  
                      u2361 0DBE                        u1721 0D3E                        u4017 07E4  
                      u3250 0D13                        u2602 01EC                        u2522 00EF  
                      u2450 004A                        u3410 04A0                        u3330 03FD  
                      u2370 0DC6                        u3251 0D12                        u3235 0CF1  
                      u4027 0B0D                        u2275 0B7A                        u2611 0212  
                      u2603 01F3                        u2531 0104                        u2523 00F6  
                      u2451 0049                        u3411 049F                        u3331 03FC  
                      u2371 0DC5                        u2355 0DA4                        u2612 0219  
                      u2532 010B                        u2460 004F                        u3420 04A4  
                      u3340 0401                        u3260 03A5                        u1740 0D51  
                      u3245 0D05                        u4037 0B17                        u2621 023F  
                      u2613 0220                        u2541 0130                        u2533 0112  
                      u2461 004E                        u3501 0522                        u3421 04A3  
                      u3405 048F                        u3341 0400                        u3261 03A4  
                      u1741 0D50                        u3190 0CC6                        u2710 02E3  
                      u2630 0269                        u2622 0246                        u2542 0137  
                      u2470 0070                        u3510 0536                        u3502 0523  
                      u3430 04A9                        u3350 0459                        u3270 03AB  
                      u2390 0DD8                        u3191 0CC5                        u2711 02E2  
                      u2623 024D                        u2551 014C                        u2543 013E  
                      u2471 006F                        u3511 0537                        u3503 0528  
                      u3431 04A8                        u3351 0458                        u3271 03AA  
                      u2391 0DD7                        u1735 0D43                        u2800 037F  
                      u2720 02E8                        u2552 0153                        u2480 0076  
                      u3600 05AE                        u3520 0554                        u3512 053C  
                      u3504 0529                        u3360 0464                        u3280 03B0  
                      u1760 0D62                        u2801 037E                        u2721 02E7  
                      u2705 02D2                        u2641 0275                        u2553 015A  
                      u2481 0075                        u3601 05AD                        u3521 0553  
                      u3513 053D                        u3505 052E                        u3441 04BF  
                      u3361 0462                        u3281 03AF                        u2385 0DC8  
                      u1761 0D61                        u2730 02FC                        u2650 0291  
                      u2642 027C                        u2490 007B                        u3610 05B4  
                      u3530 0579                        u3506 052F                        u3450 04D1  
                      u3442 04C6                        u3370 0465                        u3290 03CE  
                      u2731 02FB                        u2643 0283                        u2635 0264  
                      u2571 0182                        u2491 007A                        u3611 05B3  
                      u3531 0578                        u3451 04D0                        u3443 04CD  
                      u3355 0455                        u3291 03CD                        u1755 0D52  
                      u2740 0303                        u2572 0189                        u3700 0611  
                      u3620 05BB                        u3540 057E                        u3460 04D5  
                      u3380 0479                        u1780 0D76                        u2741 0302  
                      u2661 029D                        u2581 01AF                        u2573 0190  
                      u2565 015C                        u3701 0610                        u3621 05BA  
                      u3541 057D                        u3461 04D4                        u3381 0478  
                      u1781 0D75                        u1765 0D5E                        u2750 0309  
                      u2662 02A4                        u2582 01B6                        u3710 0622  
                      u3630 05C1                        u3470 04E4                        u3390 048C  
                      u1790 0D7B                        u2751 0308                        u2663 02AB  
                      u2655 028C                        u2583 01BD                        u3711 0621  
                      u3631 05C0                        u3471 04E3                        u3391 048B  
                      u1791 0D7A                        u1775 0D6A                        u3720 0C37  
                      u2760 031B                        u3640 05D3                        u3560 0594  
                      u2761 031A                        u3641 05D2                        u3561 0593  
                      u2770 032A                        u2690 02CF                        u3650 05E2  
                      u3570 0599                        u3490 050B                        u3810 0EED  
                      u3730 0E44                        u2691 02CE                        u2675 02AD  
                      u2595 01BF                        u3571 0598                        u3555 0589  
                      u3491 050A                        u3811 0EEC                        u3731 0E43  
                      u3900 0C6B                        u2780 0347                        u3660 05F1  
                      u3580 05A3                        u3740 0E76                        u3725 0C32  
                      u3901 0C6A                        u2781 0346                        u2685 02C4  
                      u3661 05F0                        u3581 05A2                        u3493 0507  
                      u3485 04E7                        u3805 0EDF                        u3741 0E75  
                      u2950 0B95                        u3910 0C76                        u2790 0361  
                      u3670 05FA                        u3590 05A9                        u3830 0EFD  
                      u3750 0E86                        u2951 0B94                        u3911 0C75  
                      u2791 0360                        u2775 0325                        u3671 05F9  
                      u3655 05DD                        u3591 05A8                        u3831 0EFC  
                      u3751 0E85                        u2960 0B9B                        u3680 05FF  
                      u3840 0F03                        u3760 0E8A                        u2961 0B9A  
                      u2785 0343                        u3681 05FE                        u3841 0F02  
                      u3825 0EF2                        u3761 0E89                        u2970 0BA1  
                      u3930 0C88                        u3690 060C                        u3850 0F07  
                      u3770 0EAA                        u2971 0BA0                        u3931 0C87  
                      u2795 035D                        u3691 060B                        u3851 0F06  
                      u3771 0EA9                        u2980 0BA9                        u3940 0C92  
                      u3860 0F1C                        u2981 0BA8                        u3941 0C91  
                      u3925 0C7A                        u2990 0BAF                        u3870 0F2C  
                      u3790 0ECB                        u2991 0BAE                        u3871 0F2B  
                      u3791 0ECA                        u3960 0CA5                        u3880 0F30  
                      u3961 0CA4                        u3945 0C8E                        u3881 0F2F  
                      u3865 0F17                        u3785 0EBD                        u3970 0CAA  
                      u3890 0C60                        u3971 0CA9                        u3955 0C99  
                      u3891 0C5F                        u3990 070F                        u3991 070E  
                      u3985 0682                        i1l98 0AE7                        _Hum1 0066  
                      _HumR 00A4        __size_of_DHT11_ALIVE 002C                        _main 0624  
                      _temp 0078                        btemp 007E        __size_of_DHT11_START 001B  
           _divisiondecimal 0E01                        start 000C            ??_DHT11_ReadData 0073  
       DHT11_ReadData@datos 0076           ___bmul@multiplier 0076               ___fltol@sign1 004D  
           __end_of___fladd 0624                       ?_main 0070             __end_of___awdiv 0D85  
           __end_of___awmod 0CB4             __end_of___flmul 0394             __end_of___flsub 0B63  
           __end_of___fltol 0E01                       _ANSEL 0188             __end_of___lldiv 0D1C  
           ___awdiv@divisor 0073                       _T1CON 0010             ___awdiv@counter 0020  
                     _RCREG 001A                       _TMR1H 000F                       _TMR1L 000E  
                     _SPBRG 0099                       _PORTA 0005                       _PORTB 0006  
                     _PORTD 0008                       _TRISA 0085                       _TRISB 0086  
                     _TRISD 0088                       _TXREG 0019                       _Temp1 0068  
   __size_of_MasterInit_I2C 003B     __size_of_MasterSend_I2C 000B                       pclath 000A  
                     status 0003                       wtemp0 007E     __size_of_MasterStop_I2C 0009  
           __initialization 000F                __end_of_main 07ED         floToChar@digdecimal 005E  
                    ??_main 00AC         divisiondecimal@cent 0026            ___awdiv@dividend 0075  
   __end_of_divisiondecimal 0E7E                      _ANSELH 0189                      _CONFIG 0BB8  
        MasterInit_I2C@frec 002D                      i1l2382 0ADC                      i1l2384 0AE2  
                    i1l2386 0AE6                      u315_20 0AE2                      u315_21 0AE1  
                    _SSPADD 0093                      _SSPCON 0014                      _SSPBUF 0013  
          __end_of___xxtofl 0F3A                      ___bmul 0AEE                   ??___fladd 0028  
                 ??___awdiv 0077                   ??___awmod 0077                   ??___flmul 0032  
                 ??___flsub 0077                   ??___fltol 0048                   ??___lldiv 0073  
          ___awdiv@quotient 0022             ___awmod@divisor 0073             ___awmod@counter 0020  
              __pdataCOMMON 007A          __size_of__Umul8_16 0029                      saved_w 007E  
     __end_of_waitCondition 0ADC                ___xxtofl@arg 0026                ___xxtofl@exp 0025  
              ___xxtofl@val 0073     __end_of__initialization 002F    __size_of_MasterStart_I2C 0009  
                ___fltol@f1 0044      MasterReceive_I2C@valor 0074         ___bmul@multiplicand 0073  
            __pcstackCOMMON 0070               ?_interrupcion 0070          __size_of_floToChar 00C6  
            _MasterInit_I2C 0C1E              _MasterSend_I2C 0AC4                     ?_CONFIG 0070  
          ?_divisiondecimal 0024                  __pbssBANK0 0061                  __pbssBANK1 00A0  
            _MasterStop_I2C 0ABB           __end_of__Umul8_16 0B8C              ??_interrupcion 0070  
                __pmaintext 0624                     ?___bmul 0073                  __pintentry 0004  
    __end_of_MasterInit_I2C 0C59                  _configUART 07ED                   ?___xxtofl 0073  
    __end_of_MasterSend_I2C 0ACF                     _TEMPdig 00A6               ??_DHT11_ALIVE 0073  
                   _SSPCON2 0091                     _SSPSTAT 0094               ??_DHT11_START 0073  
           __size_of_CONFIG 0031      __end_of_MasterStop_I2C 0AC4                     _TempDEC 0062  
                   _TempENT 0063           __end_of_floToChar 1000             __size_of___bmul 0015  
                   ___fladd 0394                     ___awdiv 0D1C           ??_MasterStart_I2C 0073  
                   ___awmod 0C59                     ___flmul 0033                     ___flsub 0B3F  
                   ___fltol 0D85                     ___lldiv 0CB4                     _digTemp 00A0  
                   __ptext1 0F3A                     __ptext2 0E01                     __ptext3 0AEE  
                   __ptext4 0D1C                     __ptext5 0E7E                     __ptext6 0D85  
                   __ptext7 0B3F                     __ptext8 0394                     __ptext9 0033  
                 _T1CONbits 0010             ?_MasterInit_I2C 002D                     _dummyT1 0067  
                ??___xxtofl 0020            ___awmod@dividend 0075             ?_MasterSend_I2C 0070  
      end_of_initialization 002F           _MasterReceive_I2C 0B1E             ?_MasterStop_I2C 0070  
       __end_of_DHT11_ALIVE 0BB8          ?_MasterReceive_I2C 0070             ___lldiv@divisor 0020  
       __end_of_DHT11_START 0B1E             ___lldiv@counter 002C                   _RCSTAbits 0018  
       ??_MasterReceive_I2C 0073                   _PORTBbits 0006     __size_of_DHT11_ReadData 0035  
               ___fladd@grs 0076                 ?_configUART 0070           _MasterRepeatS_I2C 0AA9  
             ___xxtofl@sign 0024                   _TRISCbits 0087                   _TRISEbits 0089  
        MasterSend_I2C@dato 0073          ?_MasterRepeatS_I2C 0070        __end_of_interrupcion 0AEE  
 __end_of_MasterReceive_I2C 0B3F                 ___flmul@grs 0038              __end_of_CONFIG 0BE9  
       ??_MasterRepeatS_I2C 0073                   _TXSTAbits 0098              __end_of___bmul 0B03  
             __pidataCOMMON 07FF   __end_of_MasterRepeatS_I2C 0AB2         start_initialization 000F  
               _DHT11_ALIVE 0B8C                    ??_CONFIG 0078          divisiondecimal@dec 0025  
        divisiondecimal@div 002B                 _DHT11_START 0B03         __size_of_configUART 0012  
                  ??___bmul 0074                   __Umul8_16 0B63      __size_of_waitCondition 000D  
                 ___fladd@a 0024                   ___fladd@b 0020       divisiondecimal@conteo 002A  
                 ___flmul@a 002E                   ___flmul@b 002A                 __pbssCOMMON 0078  
                 ___flsub@a 0030                   ___flsub@b 0034                   ___latbits 0002  
             __pcstackBANK0 0020               __pcstackBANK1 00AC           __size_of___xxtofl 00BC  
          floToChar@decimal 005C  __size_of_MasterReceive_I2C 0021             _MasterStart_I2C 0AB2  
  __size_of_divisiondecimal 007D                    ?___fladd 0020                    ?___awdiv 0073  
                  ?___awmod 0073                    ?___flmul 002A                    ?___flsub 0030  
                  ?___fltol 0044                    ?___lldiv 0020                  ?__Umul8_16 0073  
          ??_MasterInit_I2C 0074                   _floToChar 0F3A              _DHT11_ReadData 0BE9  
__size_of_MasterRepeatS_I2C 0009            ??_MasterSend_I2C 0073       __size_of_interrupcion 0012  
                  _CHECKSUM 0064                   _dummyHum1 0065            ??_MasterStop_I2C 0073  
             _waitCondition 0ACF           interrupt_function 0004                    _PIE1bits 008C  
                  _PIR1bits 000C                    _UARTData 0061                _interrupcion 0ADC  
    __end_of_DHT11_ReadData 0C1E                  ?_floToChar 004F                ??_configUART 0073  
   __end_of_MasterStart_I2C 0ABB              ?_waitCondition 0070                _SlaveAddress 007A  
         divisiondecimal@un 0024          __end_of_configUART 07FF                 ??__Umul8_16 0075  
           ?_DHT11_ReadData 0070            __size_of___fladd 0290            __size_of___awdiv 0069  
          __size_of___awmod 005B            __size_of___flmul 0361            __size_of___flsub 0024  
          __size_of___fltol 007C            __size_of___lldiv 0068           ??_divisiondecimal 0027  
           DHT11_ReadData@i 0075             floToChar@entero 005D             floToChar@salida 0053  
                  ___xxtofl 0E7E                    __ptext10 0B63                    __ptext11 07ED  
                  __ptext20 0BE9                    __ptext12 0C59                    __ptext21 0B8C  
                  __ptext13 0ABB                    __ptext22 0BB8                    __ptext14 0AB2  
                  __ptext23 0C1E                    __ptext15 0AC4                    __ptext24 0CB4  
                  __ptext16 0AA9                    __ptext25 0ADC                    __ptext17 0B1E  
                  __ptext18 0ACF                    __ptext19 0B03                ?_DHT11_ALIVE 0070  
              ?_DHT11_START 0070               __size_of_main 01C9                 ??_floToChar 0054  
                _INTCONbits 000B             ??_waitCondition 0073            ?_MasterStart_I2C 0070  
                  intlevel1 0000              floToChar@valor 004F            ___lldiv@dividend 0024  
                _OSCCONbits 008F      __Umul8_16@multiplicand 0073               floToChar@temp 0058  
          ___lldiv@quotient 0028                 _SSPCON2bits 0091               ___fladd@signs 0073  
              ___fladd@aexp 0074                ___fladd@bexp 0075        __Umul8_16@multiplier 0024  
         __Umul8_16@product 0020  
